---
triple:          'arm64-apple-darwin'
binary-path:     '/Users/hornley/Documents/VSCode/Personal/main'
relocations:
  - { offsetInCU: 0x4C, offset: 0x4C, size: 0x8, addend: 0x0, symName: __ZN4Game9Inventory9inventoryE, symObjAddr: 0x2F7758, symBinAddr: 0x100074020, symSize: 0x0 }
  - { offsetInCU: 0x10757, offset: 0x10757, size: 0x8, addend: 0x0, symName: __ZNSt3__1L19piecewise_constructE, symObjAddr: 0x664EC, symBinAddr: 0x100069C8C, symSize: 0x0 }
  - { offsetInCU: 0x1A3D5, offset: 0x1A3D5, size: 0x8, addend: 0x0, symName: __ZNSt3__17advanceB7v160006INS_21__tree_const_iteratorINS_12__value_typeIiNS_4pairINS_12basic_stringIcNS_11char_traitsIcEENS_9allocatorIcEEEENS3_INS_6vectorIfNS7_IfEEEENSA_IiNS7_IiEEEEEEEEEEPNS_11__tree_nodeISH_PvEElEEllvEEvRT_T0_, symObjAddr: 0x187F0, symBinAddr: 0x10001C2EC, symSize: 0x50 }
  - { offsetInCU: 0x1A466, offset: 0x1A466, size: 0x8, addend: 0x0, symName: __ZNSt3__17advanceB7v160006INS_21__tree_const_iteratorINS_12__value_typeIiNS_4pairINS_6vectorINS_12basic_stringIcNS_11char_traitsIcEENS_9allocatorIcEEEENS8_ISA_EEEENS3_INS4_IiNS8_IiEEEENS4_IfNS8_IfEEEEEEEEEEPNS_11__tree_nodeISJ_PvEElEEllvEEvRT_T0_, symObjAddr: 0x19C24, symBinAddr: 0x10001D720, symSize: 0x50 }
  - { offsetInCU: 0x1A970, offset: 0x1A970, size: 0x8, addend: 0x0, symName: __ZNSt3__17advanceB7v160006INS_21__tree_const_iteratorINS_12__value_typeIiiEEPNS_11__tree_nodeIS3_PvEElEEllvEEvRT_T0_, symObjAddr: 0x1C6F0, symBinAddr: 0x1000201EC, symSize: 0x50 }
  - { offsetInCU: 0x1C9FB, offset: 0x1C9FB, size: 0x8, addend: 0x0, symName: __ZNSt3__17advanceB7v160006INS_21__tree_const_iteratorINS_12__value_typeIiNS_4pairINS_6vectorINS_12basic_stringIcNS_11char_traitsIcEENS_9allocatorIcEEEENS8_ISA_EEEENS3_INS4_IiNS8_IiEEEESE_EEEEEEPNS_11__tree_nodeISH_PvEElEEllvEEvRT_T0_, symObjAddr: 0x1E468, symBinAddr: 0x100021F64, symSize: 0x50 }
  - { offsetInCU: 0x1FE71, offset: 0x1FE71, size: 0x8, addend: 0x0, symName: __ZNSt3__114__copy_alignedB7v160006INS_6vectorIbNS_9allocatorIbEEEELb0EEENS_14__bit_iteratorIT_Lb0EXLi0EEEENS5_IS6_XT0_EXLi0EEEES8_S7_, symObjAddr: 0x30300, symBinAddr: 0x100033DFC, symSize: 0x278 }
  - { offsetInCU: 0x1FF9F, offset: 0x1FF9F, size: 0x8, addend: 0x0, symName: __ZNSt3__16copy_nB7v160006IPmmS1_EENS_9enable_ifIXsr33__is_cpp17_random_access_iteratorIT_EE5valueET1_E4typeES3_T0_S4_, symObjAddr: 0x30AE4, symBinAddr: 0x1000345E0, symSize: 0x44 }
  - { offsetInCU: 0x20046, offset: 0x20046, size: 0x8, addend: 0x0, symName: __ZNSt3__116__copy_unalignedB7v160006INS_6vectorIbNS_9allocatorIbEEEELb0EEENS_14__bit_iteratorIT_Lb0EXLi0EEEENS5_IS6_XT0_EXLi0EEEES8_S7_, symObjAddr: 0x30578, symBinAddr: 0x100034074, symSize: 0x540 }
  - { offsetInCU: 0x21AA1, offset: 0x21AA1, size: 0x8, addend: 0x0, symName: __ZNSt3__17advanceB7v160006INS_14__map_iteratorINS_15__tree_iteratorINS_12__value_typeINS_12basic_stringIcNS_11char_traitsIcEENS_9allocatorIcEEEEN8nlohmann16json_abi_v3_11_210basic_jsonINS_3mapENS_6vectorES9_bxydS7_NSB_14adl_serializerENSE_IhNS7_IhEEEEEEEEPNS_11__tree_nodeISJ_PvEElEEEEiivEEvRT_T0_, symObjAddr: 0x36DA8, symBinAddr: 0x10003A8A4, symSize: 0x58 }
  - { offsetInCU: 0x21B32, offset: 0x21B32, size: 0x8, addend: 0x0, symName: __ZNSt3__17advanceB7v160006INS_11__wrap_iterIPN8nlohmann16json_abi_v3_11_210basic_jsonINS_3mapENS_6vectorENS_12basic_stringIcNS_11char_traitsIcEENS_9allocatorIcEEEEbxydSA_NS3_14adl_serializerENS6_IhNSA_IhEEEEEEEEiivEEvRT_T0_, symObjAddr: 0x36E00, symBinAddr: 0x10003A8FC, symSize: 0x58 }
  - { offsetInCU: 0x21E6E, offset: 0x21E6E, size: 0x8, addend: 0x0, symName: __ZNSt3__124__put_character_sequenceB7v160006IcNS_11char_traitsIcEEEERNS_13basic_ostreamIT_T0_EES7_PKS4_m, symObjAddr: 0x3EFAC, symBinAddr: 0x100042AA8, symSize: 0x1EC }
  - { offsetInCU: 0x22A5F, offset: 0x22A5F, size: 0x8, addend: 0x0, symName: __ZNSt3__17advanceB7v160006INS_20__map_const_iteratorINS_21__tree_const_iteratorINS_12__value_typeINS_12basic_stringIcNS_11char_traitsIcEENS_9allocatorIcEEEEN8nlohmann16json_abi_v3_11_210basic_jsonINS_3mapENS_6vectorES9_bxydS7_NSB_14adl_serializerENSE_IhNS7_IhEEEEEEEEPNS_11__tree_nodeISJ_PvEElEEEEllvEEvRT_T0_, symObjAddr: 0x4AC00, symBinAddr: 0x10004E6FC, symSize: 0x50 }
  - { offsetInCU: 0x2359B, offset: 0x2359B, size: 0x8, addend: 0x0, symName: __ZNSt3__17advanceB7v160006INS_21__tree_const_iteratorINS_12__value_typeINS_12basic_stringIcNS_11char_traitsIcEENS_9allocatorIcEEEEN8nlohmann16json_abi_v3_11_210basic_jsonINS_3mapENS_6vectorES8_bxydS6_NSA_14adl_serializerENSD_IhNS6_IhEEEEEEEEPNS_11__tree_nodeISI_PvEElEEllvEEvRT_T0_, symObjAddr: 0x4ED48, symBinAddr: 0x100052844, symSize: 0x50 }
  - { offsetInCU: 0x28A9A, offset: 0x28A9A, size: 0x8, addend: 0x0, symName: __ZNSt3__17advanceB7v160006INS_21__tree_const_iteratorINS_12__value_typeINS_12basic_stringIcNS_11char_traitsIcEENS_9allocatorIcEEEEiEEPNS_11__tree_nodeIS9_PvEElEEllvEEvRT_T0_, symObjAddr: 0x5ECA0, symBinAddr: 0x10006279C, symSize: 0x50 }
  - { offsetInCU: 0x28B2B, offset: 0x28B2B, size: 0x8, addend: 0x0, symName: __ZNSt3__16copy_nB7v160006IPKcmPcEENS_9enable_ifIXsr33__is_cpp17_random_access_iteratorIT_EE5valueET1_E4typeES5_T0_S6_, symObjAddr: 0x604DC, symBinAddr: 0x100063FD8, symSize: 0x44 }
  - { offsetInCU: 0x2A7DC, offset: 0x2A7DC, size: 0x8, addend: 0x0, symName: __ZNSt3__1lsB7v160006INS_11char_traitsIcEEEERNS_13basic_ostreamIcT_EES6_PKc, symObjAddr: 0xB7C, symBinAddr: 0x100004678, symSize: 0x48 }
  - { offsetInCU: 0x2A822, offset: 0x2A822, size: 0x8, addend: 0x0, symName: __ZNSt3__17getlineB7v160006IcNS_11char_traitsIcEENS_9allocatorIcEEEERNS_13basic_istreamIT_T0_EES9_RNS_12basic_stringIS6_S7_T1_EE, symObjAddr: 0xBCC, symBinAddr: 0x1000046C8, symSize: 0x5C }
  - { offsetInCU: 0x2A87A, offset: 0x2A87A, size: 0x8, addend: 0x0, symName: __ZNSt3__1rsB7v160006IcNS_11char_traitsIcEENS_9allocatorIcEEEERNS_13basic_istreamIT_T0_EES9_RNS_12basic_stringIS6_S7_T1_EE, symObjAddr: 0xC28, symBinAddr: 0x100004724, symSize: 0x308 }
  - { offsetInCU: 0x2A947, offset: 0x2A947, size: 0x8, addend: 0x0, symName: __ZNSt3__19make_pairB7v160006INS_6vectorINS_12basic_stringIcNS_11char_traitsIcEENS_9allocatorIcEEEENS5_IS7_EEEENS_4pairINS1_IiNS5_IiEEEESC_EEEENSA_INS_18__unwrap_ref_decayIT_E4typeENSE_IT0_E4typeEEEOSF_OSI_, symObjAddr: 0xF9C, symBinAddr: 0x100004A98, symSize: 0x40 }
  - { offsetInCU: 0x2A996, offset: 0x2A996, size: 0x8, addend: 0x0, symName: __ZNSt3__19make_pairB7v160006INS_6vectorIiNS_9allocatorIiEEEES4_EENS_4pairINS_18__unwrap_ref_decayIT_E4typeENS6_IT0_E4typeEEEOS7_OSA_, symObjAddr: 0x1018, symBinAddr: 0x100004B14, symSize: 0x40 }
  - { offsetInCU: 0x2AB50, offset: 0x2AB50, size: 0x8, addend: 0x0, symName: __ZNSt3__1lsB7v160006IcNS_11char_traitsIcEEEERNS_13basic_ostreamIT_T0_EES7_RKNS_8__iom_t6E, symObjAddr: 0x1724, symBinAddr: 0x100005220, symSize: 0x40 }
  - { offsetInCU: 0x2AB9F, offset: 0x2AB9F, size: 0x8, addend: 0x0, symName: __ZNSt3__14setwB7v160006Ei, symObjAddr: 0x1764, symBinAddr: 0x100005260, symSize: 0x2C }
  - { offsetInCU: 0x2ABCD, offset: 0x2ABCD, size: 0x8, addend: 0x0, symName: __ZNSt3__14endlB7v160006IcNS_11char_traitsIcEEEERNS_13basic_ostreamIT_T0_EES7_, symObjAddr: 0x17BC, symBinAddr: 0x1000052B8, symSize: 0x58 }
  - { offsetInCU: 0x2AC18, offset: 0x2AC18, size: 0x8, addend: 0x0, symName: __ZNSt3__1neB7v160006ERKNS_14__map_iteratorINS_15__tree_iteratorINS_12__value_typeIiNS_4pairINS_6vectorINS_12basic_stringIcNS_11char_traitsIcEENS_9allocatorIcEEEENS8_ISA_EEEENS3_INS4_IiNS8_IiEEEESE_EEEEEEPNS_11__tree_nodeISH_PvEElEEEESP_, symObjAddr: 0x2E7C, symBinAddr: 0x100006978, symSize: 0x30 }
  - { offsetInCU: 0x2AC55, offset: 0x2AC55, size: 0x8, addend: 0x0, symName: __ZNSt3__1lsB7v160006IcNS_11char_traitsIcEENS_9allocatorIcEEEERNS_13basic_ostreamIT_T0_EES9_RKNS_12basic_stringIS6_S7_T1_EE, symObjAddr: 0x3CD0, symBinAddr: 0x1000077CC, symSize: 0x4C }
  - { offsetInCU: 0x2ACAD, offset: 0x2ACAD, size: 0x8, addend: 0x0, symName: __ZNSt3__19make_pairB7v160006IRNS_12basic_stringIcNS_11char_traitsIcEENS_9allocatorIcEEEENS_4pairINS_6vectorIfNS4_IfEEEENS9_IiNS4_IiEEEEEEEENS8_INS_18__unwrap_ref_decayIT_E4typeENSF_IT0_E4typeEEEOSG_OSJ_, symObjAddr: 0x6220, symBinAddr: 0x100009D1C, symSize: 0x40 }
  - { offsetInCU: 0x2ACFC, offset: 0x2ACFC, size: 0x8, addend: 0x0, symName: __ZNSt3__19make_pairB7v160006INS_6vectorIfNS_9allocatorIfEEEENS1_IiNS2_IiEEEEEENS_4pairINS_18__unwrap_ref_decayIT_E4typeENS8_IT0_E4typeEEEOS9_OSC_, symObjAddr: 0x6260, symBinAddr: 0x100009D5C, symSize: 0x40 }
  - { offsetInCU: 0x2AD4B, offset: 0x2AD4B, size: 0x8, addend: 0x0, symName: __ZNSt3__19make_pairB7v160006IRNS_12basic_stringIcNS_11char_traitsIcEENS_9allocatorIcEEEENS_4pairINS_6vectorIiNS4_IiEEEENS9_IfNS4_IfEEEEEEEENS8_INS_18__unwrap_ref_decayIT_E4typeENSF_IT0_E4typeEEEOSG_OSJ_, symObjAddr: 0x6E84, symBinAddr: 0x10000A980, symSize: 0x40 }
  - { offsetInCU: 0x2AD9A, offset: 0x2AD9A, size: 0x8, addend: 0x0, symName: __ZNSt3__19make_pairB7v160006INS_6vectorIiNS_9allocatorIiEEEENS1_IfNS2_IfEEEEEENS_4pairINS_18__unwrap_ref_decayIT_E4typeENS8_IT0_E4typeEEEOS9_OSC_, symObjAddr: 0x6EC4, symBinAddr: 0x10000A9C0, symSize: 0x40 }
  - { offsetInCU: 0x2AEC8, offset: 0x2AEC8, size: 0x8, addend: 0x0, symName: __ZNSt3__1neB7v160006ERKNS_14__map_iteratorINS_15__tree_iteratorINS_12__value_typeIiNS_4pairINS_12basic_stringIcNS_11char_traitsIcEENS_9allocatorIcEEEENS3_INS_6vectorIfNS7_IfEEEENSA_IiNS7_IiEEEEEEEEEEPNS_11__tree_nodeISH_PvEElEEEESP_, symObjAddr: 0x8378, symBinAddr: 0x10000BE74, symSize: 0x30 }
  - { offsetInCU: 0x2AF05, offset: 0x2AF05, size: 0x8, addend: 0x0, symName: __ZNSt3__1neB7v160006ERKNS_14__map_iteratorINS_15__tree_iteratorINS_12__value_typeIiNS_4pairINS_6vectorINS_12basic_stringIcNS_11char_traitsIcEENS_9allocatorIcEEEENS8_ISA_EEEENS3_INS4_IiNS8_IiEEEENS4_IfNS8_IfEEEEEEEEEEPNS_11__tree_nodeISJ_PvEElEEEESR_, symObjAddr: 0xAB30, symBinAddr: 0x10000E62C, symSize: 0x30 }
  - { offsetInCU: 0x2AF42, offset: 0x2AF42, size: 0x8, addend: 0x0, symName: __ZNSt3__1neB7v160006ERKNS_14__map_iteratorINS_15__tree_iteratorINS_12__value_typeIiNS_4pairINS_6vectorIiNS_9allocatorIiEEEENS4_IfNS5_IfEEEEEEEEPNS_11__tree_nodeISB_PvEElEEEESJ_, symObjAddr: 0xAD38, symBinAddr: 0x10000E834, symSize: 0x30 }
  - { offsetInCU: 0x2AF7F, offset: 0x2AF7F, size: 0x8, addend: 0x0, symName: __ZNSt3__1eqB7v160006IcNS_11char_traitsIcEENS_9allocatorIcEEEEbRKNS_12basic_stringIT_T0_T1_EEPKS6_, symObjAddr: 0xBE8C, symBinAddr: 0x10000F988, symSize: 0xAC }
  - { offsetInCU: 0x2AFE6, offset: 0x2AFE6, size: 0x8, addend: 0x0, symName: __ZNSt3__1eqB7v160006INS_9allocatorIcEEEEbRKNS_12basic_stringIcNS_11char_traitsIcEET_EES9_, symObjAddr: 0xDBA0, symBinAddr: 0x10001169C, symSize: 0x148 }
  - { offsetInCU: 0x2B059, offset: 0x2B059, size: 0x8, addend: 0x0, symName: __ZNSt3__1neB7v160006ERKNS_14__map_iteratorINS_15__tree_iteratorINS_12__value_typeINS_12basic_stringIcNS_11char_traitsIcEENS_9allocatorIcEEEEiEEPNS_11__tree_nodeIS9_PvEElEEEESH_, symObjAddr: 0xDD9C, symBinAddr: 0x100011898, symSize: 0x30 }
  - { offsetInCU: 0x2B096, offset: 0x2B096, size: 0x8, addend: 0x0, symName: __ZNSt3__1neB7v160006ERKNS_14__map_iteratorINS_15__tree_iteratorINS_12__value_typeIiiEEPNS_11__tree_nodeIS3_PvEElEEEESB_, symObjAddr: 0xE5E8, symBinAddr: 0x1000120E4, symSize: 0x30 }
  - { offsetInCU: 0x2B0D3, offset: 0x2B0D3, size: 0x8, addend: 0x0, symName: __ZNSt3__1plB7v160006IcNS_11char_traitsIcEENS_9allocatorIcEEEENS_12basic_stringIT_T0_T1_EERKS9_PKS6_, symObjAddr: 0x102BC, symBinAddr: 0x100013DB8, symSize: 0x11C }
  - { offsetInCU: 0x2B174, offset: 0x2B174, size: 0x8, addend: 0x0, symName: __ZNSt3__1lsB7v160006IcNS_11char_traitsIcEEEERNS_13basic_ostreamIT_T0_EES7_RKNS_8__iom_t5E, symObjAddr: 0x11938, symBinAddr: 0x100015434, symSize: 0x40 }
  - { offsetInCU: 0x2B1C0, offset: 0x2B1C0, size: 0x8, addend: 0x0, symName: __ZNSt3__112setprecisionB7v160006Ei, symObjAddr: 0x11978, symBinAddr: 0x100015474, symSize: 0x2C }
  - { offsetInCU: 0x2B1EC, offset: 0x2B1EC, size: 0x8, addend: 0x0, symName: __ZNSt3__15fixedB7v160006ERNS_8ios_baseE, symObjAddr: 0x119E4, symBinAddr: 0x1000154E0, symSize: 0x30 }
  - { offsetInCU: 0x2B21B, offset: 0x2B21B, size: 0x8, addend: 0x0, symName: __ZNSt3__119__debug_db_insert_cB7v160006INS_6vectorINS_12basic_stringIcNS_11char_traitsIcEENS_9allocatorIcEEEENS5_IS7_EEEEEEvPT_, symObjAddr: 0x11C50, symBinAddr: 0x10001574C, symSize: 0x10 }
  - { offsetInCU: 0x2B24C, offset: 0x2B24C, size: 0x8, addend: 0x0, symName: __ZNSt3__115__debug_db_swapB7v160006INS_6vectorINS_12basic_stringIcNS_11char_traitsIcEENS_9allocatorIcEEEENS5_IS7_EEEEEEvPT_SB_, symObjAddr: 0x11C60, symBinAddr: 0x10001575C, symSize: 0x14 }
  - { offsetInCU: 0x2B28B, offset: 0x2B28B, size: 0x8, addend: 0x0, symName: __ZNSt3__119__debug_db_insert_cB7v160006INS_6vectorIiNS_9allocatorIiEEEEEEvPT_, symObjAddr: 0x11F44, symBinAddr: 0x100015A40, symSize: 0x10 }
  - { offsetInCU: 0x2B2BC, offset: 0x2B2BC, size: 0x8, addend: 0x0, symName: __ZNSt3__115__debug_db_swapB7v160006INS_6vectorIiNS_9allocatorIiEEEEEEvPT_S6_, symObjAddr: 0x11F54, symBinAddr: 0x100015A50, symSize: 0x14 }
  - { offsetInCU: 0x2B2FA, offset: 0x2B2FA, size: 0x8, addend: 0x0, symName: __ZNSt3__1neB7v160006ERKNS_15__tree_iteratorINS_12__value_typeIiiEEPNS_11__tree_nodeIS2_PvEElEES9_, symObjAddr: 0x12644, symBinAddr: 0x100016140, symSize: 0x34 }
  - { offsetInCU: 0x2B36B, offset: 0x2B36B, size: 0x8, addend: 0x0, symName: __ZNSt3__1eqB7v160006ERKNS_15__tree_iteratorINS_12__value_typeIiiEEPNS_11__tree_nodeIS2_PvEElEES9_, symObjAddr: 0x128E0, symBinAddr: 0x1000163DC, symSize: 0x30 }
  - { offsetInCU: 0x2B3DE, offset: 0x2B3DE, size: 0x8, addend: 0x0, symName: __ZNSt3__116forward_as_tupleB7v160006IJRKiEEENS_5tupleIJDpOT_EEES6_, symObjAddr: 0x12A80, symBinAddr: 0x10001657C, symSize: 0x2C }
  - { offsetInCU: 0x2B418, offset: 0x2B418, size: 0x8, addend: 0x0, symName: __ZNSt3__116forward_as_tupleB7v160006IJEEENS_5tupleIJDpOT_EEES4_, symObjAddr: 0x12AAC, symBinAddr: 0x1000165A8, symSize: 0x4 }
  - { offsetInCU: 0x2B459, offset: 0x2B459, size: 0x8, addend: 0x0, symName: __ZNSt3__117__libcpp_allocateB7v160006Emm, symObjAddr: 0x13204, symBinAddr: 0x100016D00, symSize: 0x28 }
  - { offsetInCU: 0x2B496, offset: 0x2B496, size: 0x8, addend: 0x0, symName: __ZNSt3__121__libcpp_operator_newB7v160006IJmEEEPvDpT_, symObjAddr: 0x13244, symBinAddr: 0x100016D40, symSize: 0x24 }
  - { offsetInCU: 0x2B4DA, offset: 0x2B4DA, size: 0x8, addend: 0x0, symName: __ZNSt3__13getB7v160006ILm0EJRKiEEERNS_13tuple_elementIXT_ENS_5tupleIJDpT0_EEEE4typeERS7_, symObjAddr: 0x134C0, symBinAddr: 0x100016FBC, symSize: 0x24 }
  - { offsetInCU: 0x2B51E, offset: 0x2B51E, size: 0x8, addend: 0x0, symName: __ZNSt3__127__tree_balance_after_insertB7v160006IPNS_16__tree_node_baseIPvEEEEvT_S5_, symObjAddr: 0x13584, symBinAddr: 0x100017080, symSize: 0x32C }
  - { offsetInCU: 0x2B59A, offset: 0x2B59A, size: 0x8, addend: 0x0, symName: __ZNSt3__120__tree_is_left_childB7v160006IPNS_16__tree_node_baseIPvEEEEbT_, symObjAddr: 0x138F0, symBinAddr: 0x1000173EC, symSize: 0x2C }
  - { offsetInCU: 0x2B5D0, offset: 0x2B5D0, size: 0x8, addend: 0x0, symName: __ZNSt3__118__tree_left_rotateB7v160006IPNS_16__tree_node_baseIPvEEEEvT_, symObjAddr: 0x1391C, symBinAddr: 0x100017418, symSize: 0xD8 }
  - { offsetInCU: 0x2B612, offset: 0x2B612, size: 0x8, addend: 0x0, symName: __ZNSt3__119__tree_right_rotateB7v160006IPNS_16__tree_node_baseIPvEEEEvT_, symObjAddr: 0x139F4, symBinAddr: 0x1000174F0, symSize: 0xCC }
  - { offsetInCU: 0x2B654, offset: 0x2B654, size: 0x8, addend: 0x0, symName: __ZNSt3__119__libcpp_deallocateB7v160006EPvmm, symObjAddr: 0x13D1C, symBinAddr: 0x100017818, symSize: 0x30 }
  - { offsetInCU: 0x2B69C, offset: 0x2B69C, size: 0x8, addend: 0x0, symName: __ZNSt3__127__do_deallocate_handle_sizeB7v160006IJEEEvPvmDpT_, symObjAddr: 0x13D4C, symBinAddr: 0x100017848, symSize: 0x28 }
  - { offsetInCU: 0x2B6DA, offset: 0x2B6DA, size: 0x8, addend: 0x0, symName: __ZNSt3__124__libcpp_operator_deleteB7v160006IJPvEEEvDpT_, symObjAddr: 0x13D74, symBinAddr: 0x100017870, symSize: 0x24 }
  - { offsetInCU: 0x2B78A, offset: 0x2B78A, size: 0x8, addend: 0x0, symName: __ZNSt3__119__debug_db_insert_cB7v160006INS_12basic_stringIcNS_11char_traitsIcEENS_9allocatorIcEEEEEEvPT_, symObjAddr: 0x143FC, symBinAddr: 0x100017EF8, symSize: 0x10 }
  - { offsetInCU: 0x2B7BB, offset: 0x2B7BB, size: 0x8, addend: 0x0, symName: __ZNSt3__115__debug_db_swapB7v160006INS_12basic_stringIcNS_11char_traitsIcEENS_9allocatorIcEEEEEEvPT_S8_, symObjAddr: 0x14444, symBinAddr: 0x100017F40, symSize: 0x14 }
  - { offsetInCU: 0x2B7FA, offset: 0x2B7FA, size: 0x8, addend: 0x0, symName: __ZNSt3__119__debug_db_insert_cB7v160006INS_6vectorIfNS_9allocatorIfEEEEEEvPT_, symObjAddr: 0x14778, symBinAddr: 0x100018274, symSize: 0x10 }
  - { offsetInCU: 0x2B82B, offset: 0x2B82B, size: 0x8, addend: 0x0, symName: __ZNSt3__115__debug_db_swapB7v160006INS_6vectorIfNS_9allocatorIfEEEEEEvPT_S6_, symObjAddr: 0x14788, symBinAddr: 0x100018284, symSize: 0x14 }
  - { offsetInCU: 0x2B887, offset: 0x2B887, size: 0x8, addend: 0x0, symName: __ZNSt3__19make_pairB7v160006INS_6vectorINS_12basic_stringIcNS_11char_traitsIcEENS_9allocatorIcEEEENS5_IS7_EEEENS_4pairINS1_IiNS5_IiEEEENS1_IfNS5_IfEEEEEEEENSA_INS_18__unwrap_ref_decayIT_E4typeENSG_IT0_E4typeEEEOSH_OSK_, symObjAddr: 0x165E8, symBinAddr: 0x10001A0E4, symSize: 0x40 }
  - { offsetInCU: 0x2B8F4, offset: 0x2B8F4, size: 0x8, addend: 0x0, symName: __ZNSt3__1neB7v160006ERKNS_20__map_const_iteratorINS_21__tree_const_iteratorINS_12__value_typeIiNS_4pairINS_12basic_stringIcNS_11char_traitsIcEENS_9allocatorIcEEEENS3_INS_6vectorIfNS7_IfEEEENSA_IiNS7_IiEEEEEEEEEEPNS_11__tree_nodeISH_PvEElEEEESP_, symObjAddr: 0x17E54, symBinAddr: 0x10001B950, symSize: 0x30 }
  - { offsetInCU: 0x2B931, offset: 0x2B931, size: 0x8, addend: 0x0, symName: __ZNSt3__1neB7v160006ERKNS_21__tree_const_iteratorINS_12__value_typeIiNS_4pairINS_12basic_stringIcNS_11char_traitsIcEENS_9allocatorIcEEEENS2_INS_6vectorIfNS6_IfEEEENS9_IiNS6_IiEEEEEEEEEEPNS_11__tree_nodeISG_PvEElEESN_, symObjAddr: 0x17F5C, symBinAddr: 0x10001BA58, symSize: 0x34 }
  - { offsetInCU: 0x2B96F, offset: 0x2B96F, size: 0x8, addend: 0x0, symName: __ZNSt3__1eqB7v160006ERKNS_21__tree_const_iteratorINS_12__value_typeIiNS_4pairINS_12basic_stringIcNS_11char_traitsIcEENS_9allocatorIcEEEENS2_INS_6vectorIfNS6_IfEEEENS9_IiNS6_IiEEEEEEEEEEPNS_11__tree_nodeISG_PvEElEESN_, symObjAddr: 0x17F90, symBinAddr: 0x10001BA8C, symSize: 0x30 }
  - { offsetInCU: 0x2B9AB, offset: 0x2B9AB, size: 0x8, addend: 0x0, symName: __ZNSt3__14nextB7v160006INS_21__tree_const_iteratorINS_12__value_typeIiNS_4pairINS_12basic_stringIcNS_11char_traitsIcEENS_9allocatorIcEEEENS3_INS_6vectorIfNS7_IfEEEENSA_IiNS7_IiEEEEEEEEEEPNS_11__tree_nodeISH_PvEElEEEENS_9enable_ifIXsr25__is_cpp17_input_iteratorIT_EE5valueESO_E4typeESO_NS_15iterator_traitsISO_E15difference_typeE, symObjAddr: 0x1864C, symBinAddr: 0x10001C148, symSize: 0x50 }
  - { offsetInCU: 0x2B9EE, offset: 0x2B9EE, size: 0x8, addend: 0x0, symName: __ZNSt3__116__tree_prev_iterB7v160006IPNS_16__tree_node_baseIPvEEPNS_15__tree_end_nodeIS4_EEEET_T0_, symObjAddr: 0x18728, symBinAddr: 0x10001C224, symSize: 0x88 }
  - { offsetInCU: 0x2BA3B, offset: 0x2BA3B, size: 0x8, addend: 0x0, symName: __ZNSt3__110__tree_maxB7v160006IPNS_16__tree_node_baseIPvEEEET_S5_, symObjAddr: 0x187B0, symBinAddr: 0x10001C2AC, symSize: 0x40 }
  - { offsetInCU: 0x2BA71, offset: 0x2BA71, size: 0x8, addend: 0x0, symName: __ZNSt3__121__convert_to_integralB7v160006El, symObjAddr: 0x18840, symBinAddr: 0x10001C33C, symSize: 0x14 }
  - { offsetInCU: 0x2BA9D, offset: 0x2BA9D, size: 0x8, addend: 0x0, symName: __ZNSt3__19__advanceB7v160006INS_21__tree_const_iteratorINS_12__value_typeIiNS_4pairINS_12basic_stringIcNS_11char_traitsIcEENS_9allocatorIcEEEENS3_INS_6vectorIfNS7_IfEEEENSA_IiNS7_IiEEEEEEEEEEPNS_11__tree_nodeISH_PvEElEEEEvRT_NS_15iterator_traitsISN_E15difference_typeENS_26bidirectional_iterator_tagE, symObjAddr: 0x18854, symBinAddr: 0x10001C350, symSize: 0xA4 }
  - { offsetInCU: 0x2BAE7, offset: 0x2BAE7, size: 0x8, addend: 0x0, symName: __ZNSt3__116__tree_next_iterB7v160006IPNS_15__tree_end_nodeIPNS_16__tree_node_baseIPvEEEES5_EET_T0_, symObjAddr: 0x18930, symBinAddr: 0x10001C42C, symSize: 0x80 }
  - { offsetInCU: 0x2BB26, offset: 0x2BB26, size: 0x8, addend: 0x0, symName: __ZNSt3__110__tree_minB7v160006IPNS_16__tree_node_baseIPvEEEET_S5_, symObjAddr: 0x189B0, symBinAddr: 0x10001C4AC, symSize: 0x40 }
  - { offsetInCU: 0x2BB8E, offset: 0x2BB8E, size: 0x8, addend: 0x0, symName: __ZNSt3__1neB7v160006ERKNS_20__map_const_iteratorINS_21__tree_const_iteratorINS_12__value_typeIiNS_4pairINS_6vectorINS_12basic_stringIcNS_11char_traitsIcEENS_9allocatorIcEEEENS8_ISA_EEEENS3_INS4_IiNS8_IiEEEENS4_IfNS8_IfEEEEEEEEEEPNS_11__tree_nodeISJ_PvEElEEEESR_, symObjAddr: 0x19350, symBinAddr: 0x10001CE4C, symSize: 0x30 }
  - { offsetInCU: 0x2BBCB, offset: 0x2BBCB, size: 0x8, addend: 0x0, symName: __ZNSt3__1neB7v160006ERKNS_21__tree_const_iteratorINS_12__value_typeIiNS_4pairINS_6vectorINS_12basic_stringIcNS_11char_traitsIcEENS_9allocatorIcEEEENS7_IS9_EEEENS2_INS3_IiNS7_IiEEEENS3_IfNS7_IfEEEEEEEEEEPNS_11__tree_nodeISI_PvEElEESP_, symObjAddr: 0x19458, symBinAddr: 0x10001CF54, symSize: 0x34 }
  - { offsetInCU: 0x2BC09, offset: 0x2BC09, size: 0x8, addend: 0x0, symName: __ZNSt3__1eqB7v160006ERKNS_21__tree_const_iteratorINS_12__value_typeIiNS_4pairINS_6vectorINS_12basic_stringIcNS_11char_traitsIcEENS_9allocatorIcEEEENS7_IS9_EEEENS2_INS3_IiNS7_IiEEEENS3_IfNS7_IfEEEEEEEEEEPNS_11__tree_nodeISI_PvEElEESP_, symObjAddr: 0x1948C, symBinAddr: 0x10001CF88, symSize: 0x30 }
  - { offsetInCU: 0x2BC45, offset: 0x2BC45, size: 0x8, addend: 0x0, symName: __ZNSt3__14nextB7v160006INS_21__tree_const_iteratorINS_12__value_typeIiNS_4pairINS_6vectorINS_12basic_stringIcNS_11char_traitsIcEENS_9allocatorIcEEEENS8_ISA_EEEENS3_INS4_IiNS8_IiEEEENS4_IfNS8_IfEEEEEEEEEEPNS_11__tree_nodeISJ_PvEElEEEENS_9enable_ifIXsr25__is_cpp17_input_iteratorIT_EE5valueESQ_E4typeESQ_NS_15iterator_traitsISQ_E15difference_typeE, symObjAddr: 0x19B48, symBinAddr: 0x10001D644, symSize: 0x50 }
  - { offsetInCU: 0x2BC88, offset: 0x2BC88, size: 0x8, addend: 0x0, symName: __ZNSt3__19__advanceB7v160006INS_21__tree_const_iteratorINS_12__value_typeIiNS_4pairINS_6vectorINS_12basic_stringIcNS_11char_traitsIcEENS_9allocatorIcEEEENS8_ISA_EEEENS3_INS4_IiNS8_IiEEEENS4_IfNS8_IfEEEEEEEEEEPNS_11__tree_nodeISJ_PvEElEEEEvRT_NS_15iterator_traitsISP_E15difference_typeENS_26bidirectional_iterator_tagE, symObjAddr: 0x19C74, symBinAddr: 0x10001D770, symSize: 0xA4 }
  - { offsetInCU: 0x2BCD2, offset: 0x2BCD2, size: 0x8, addend: 0x0, symName: __ZNSt3__122__make_exception_guardB7v160006INS_6vectorINS_12basic_stringIcNS_11char_traitsIcEENS_9allocatorIcEEEENS5_IS7_EEE16__destroy_vectorEEENS_28__exception_guard_exceptionsIT_EESC_, symObjAddr: 0x1A084, symBinAddr: 0x10001DB80, symSize: 0x40 }
  - { offsetInCU: 0x2BD07, offset: 0x2BD07, size: 0x8, addend: 0x0, symName: __ZNSt3__119__allocate_at_leastB7v160006INS_9allocatorINS_12basic_stringIcNS_11char_traitsIcEENS1_IcEEEEEEEENS_19__allocation_resultINS_16allocator_traitsIT_E7pointerEEERSA_m, symObjAddr: 0x1A3D4, symBinAddr: 0x10001DED0, symSize: 0x40 }
  - { offsetInCU: 0x2BD4A, offset: 0x2BD4A, size: 0x8, addend: 0x0, symName: __ZNSt3__13minB7v160006ImEERKT_S3_S3_, symObjAddr: 0x1A4DC, symBinAddr: 0x10001DFD8, symSize: 0x2C }
  - { offsetInCU: 0x2BF98, offset: 0x2BF98, size: 0x8, addend: 0x0, symName: __ZNSt3__13minB7v160006ImNS_6__lessImmEEEERKT_S5_S5_T0_, symObjAddr: 0x1A540, symBinAddr: 0x10001E03C, symSize: 0x54 }
  - { offsetInCU: 0x2C02E, offset: 0x2C02E, size: 0x8, addend: 0x0, symName: __ZNSt3__120__throw_length_errorB7v160006EPKc, symObjAddr: 0x1A5E8, symBinAddr: 0x10001E0E4, symSize: 0x64 }
  - { offsetInCU: 0x2C057, offset: 0x2C057, size: 0x8, addend: 0x0, symName: __ZNSt3__112__to_addressB7v160006INS_12basic_stringIcNS_11char_traitsIcEENS_9allocatorIcEEEEEEPT_S8_, symObjAddr: 0x1A7B0, symBinAddr: 0x10001E2AC, symSize: 0x14 }
  - { offsetInCU: 0x2C08C, offset: 0x2C08C, size: 0x8, addend: 0x0, symName: __ZNSt3__130__uninitialized_allocator_copyB7v160006INS_9allocatorINS_12basic_stringIcNS_11char_traitsIcEENS1_IcEEEEEEPS6_S8_S8_EET2_RT_T0_T1_S9_, symObjAddr: 0x1A860, symBinAddr: 0x10001E35C, symSize: 0xF4 }
  - { offsetInCU: 0x2C12A, offset: 0x2C12A, size: 0x8, addend: 0x0, symName: __ZNSt3__122__make_exception_guardB7v160006INS_29_AllocatorDestroyRangeReverseINS_9allocatorINS_12basic_stringIcNS_11char_traitsIcEENS2_IcEEEEEEPS7_EEEENS_28__exception_guard_exceptionsIT_EESC_, symObjAddr: 0x1A9CC, symBinAddr: 0x10001E4C8, symSize: 0x4C }
  - { offsetInCU: 0x2C161, offset: 0x2C161, size: 0x8, addend: 0x0, symName: __ZNSt3__119__allocator_destroyB7v160006INS_9allocatorINS_12basic_stringIcNS_11char_traitsIcEENS1_IcEEEEEENS_16reverse_iteratorIPS6_EESA_EEvRT_T0_T1_, symObjAddr: 0x1AC5C, symBinAddr: 0x10001E758, symSize: 0x70 }
  - { offsetInCU: 0x2C1C3, offset: 0x2C1C3, size: 0x8, addend: 0x0, symName: __ZNSt3__1neB7v160006IPNS_12basic_stringIcNS_11char_traitsIcEENS_9allocatorIcEEEES7_EEbRKNS_16reverse_iteratorIT_EERKNS8_IT0_EE, symObjAddr: 0x1AD00, symBinAddr: 0x10001E7FC, symSize: 0x48 }
  - { offsetInCU: 0x2C20F, offset: 0x2C20F, size: 0x8, addend: 0x0, symName: __ZNSt3__112__to_addressB7v160006INS_16reverse_iteratorIPNS_12basic_stringIcNS_11char_traitsIcEENS_9allocatorIcEEEEEEvEENS_5decayIDTclsr19__to_address_helperIT_EE6__callclsr3stdE7declvalIRKSB_EEEEE4typeESD_, symObjAddr: 0x1AD74, symBinAddr: 0x10001E870, symSize: 0x24 }
  - { offsetInCU: 0x2C270, offset: 0x2C270, size: 0x8, addend: 0x0, symName: __ZNSt3__118__debug_db_erase_cB7v160006INS_6vectorINS_12basic_stringIcNS_11char_traitsIcEENS_9allocatorIcEEEENS5_IS7_EEEEEEvPT_, symObjAddr: 0x1B084, symBinAddr: 0x10001EB80, symSize: 0x10 }
  - { offsetInCU: 0x2C2D3, offset: 0x2C2D3, size: 0x8, addend: 0x0, symName: __ZNSt3__1neB7v160006ERKNS_20__map_const_iteratorINS_21__tree_const_iteratorINS_12__value_typeIiiEEPNS_11__tree_nodeIS3_PvEElEEEESB_, symObjAddr: 0x1BEA4, symBinAddr: 0x10001F9A0, symSize: 0x30 }
  - { offsetInCU: 0x2C310, offset: 0x2C310, size: 0x8, addend: 0x0, symName: __ZNSt3__1neB7v160006ERKNS_21__tree_const_iteratorINS_12__value_typeIiiEEPNS_11__tree_nodeIS2_PvEElEES9_, symObjAddr: 0x1BFAC, symBinAddr: 0x10001FAA8, symSize: 0x34 }
  - { offsetInCU: 0x2C34E, offset: 0x2C34E, size: 0x8, addend: 0x0, symName: __ZNSt3__1eqB7v160006ERKNS_21__tree_const_iteratorINS_12__value_typeIiiEEPNS_11__tree_nodeIS2_PvEElEES9_, symObjAddr: 0x1BFE0, symBinAddr: 0x10001FADC, symSize: 0x30 }
  - { offsetInCU: 0x2C38A, offset: 0x2C38A, size: 0x8, addend: 0x0, symName: __ZNSt3__14nextB7v160006INS_21__tree_const_iteratorINS_12__value_typeIiiEEPNS_11__tree_nodeIS3_PvEElEEEENS_9enable_ifIXsr25__is_cpp17_input_iteratorIT_EE5valueESA_E4typeESA_NS_15iterator_traitsISA_E15difference_typeE, symObjAddr: 0x1C668, symBinAddr: 0x100020164, symSize: 0x50 }
  - { offsetInCU: 0x2C3CD, offset: 0x2C3CD, size: 0x8, addend: 0x0, symName: __ZNSt3__19__advanceB7v160006INS_21__tree_const_iteratorINS_12__value_typeIiiEEPNS_11__tree_nodeIS3_PvEElEEEEvRT_NS_15iterator_traitsIS9_E15difference_typeENS_26bidirectional_iterator_tagE, symObjAddr: 0x1C740, symBinAddr: 0x10002023C, symSize: 0xA4 }
  - { offsetInCU: 0x2C44A, offset: 0x2C44A, size: 0x8, addend: 0x0, symName: __ZNSt3__1rsB7v160006IcNS_11char_traitsIcEEEERNS_13basic_istreamIT_T0_EES7_RS4_, symObjAddr: 0x1CABC, symBinAddr: 0x1000205B8, symSize: 0x190 }
  - { offsetInCU: 0x2C4CC, offset: 0x2C4CC, size: 0x8, addend: 0x0, symName: __ZNSt3__1neB7v160006ERKNS_20__map_const_iteratorINS_21__tree_const_iteratorINS_12__value_typeIiNS_4pairINS_6vectorINS_12basic_stringIcNS_11char_traitsIcEENS_9allocatorIcEEEENS8_ISA_EEEENS3_INS4_IiNS8_IiEEEESE_EEEEEEPNS_11__tree_nodeISH_PvEElEEEESP_, symObjAddr: 0x1D660, symBinAddr: 0x10002115C, symSize: 0x30 }
  - { offsetInCU: 0x2C509, offset: 0x2C509, size: 0x8, addend: 0x0, symName: __ZNSt3__1neB7v160006ERKNS_21__tree_const_iteratorINS_12__value_typeIiNS_4pairINS_6vectorINS_12basic_stringIcNS_11char_traitsIcEENS_9allocatorIcEEEENS7_IS9_EEEENS2_INS3_IiNS7_IiEEEESD_EEEEEEPNS_11__tree_nodeISG_PvEElEESN_, symObjAddr: 0x1D768, symBinAddr: 0x100021264, symSize: 0x34 }
  - { offsetInCU: 0x2C547, offset: 0x2C547, size: 0x8, addend: 0x0, symName: __ZNSt3__1eqB7v160006ERKNS_21__tree_const_iteratorINS_12__value_typeIiNS_4pairINS_6vectorINS_12basic_stringIcNS_11char_traitsIcEENS_9allocatorIcEEEENS7_IS9_EEEENS2_INS3_IiNS7_IiEEEESD_EEEEEEPNS_11__tree_nodeISG_PvEElEESN_, symObjAddr: 0x1D79C, symBinAddr: 0x100021298, symSize: 0x30 }
  - { offsetInCU: 0x2C583, offset: 0x2C583, size: 0x8, addend: 0x0, symName: __ZNSt3__14nextB7v160006INS_21__tree_const_iteratorINS_12__value_typeIiNS_4pairINS_6vectorINS_12basic_stringIcNS_11char_traitsIcEENS_9allocatorIcEEEENS8_ISA_EEEENS3_INS4_IiNS8_IiEEEESE_EEEEEEPNS_11__tree_nodeISH_PvEElEEEENS_9enable_ifIXsr25__is_cpp17_input_iteratorIT_EE5valueESO_E4typeESO_NS_15iterator_traitsISO_E15difference_typeE, symObjAddr: 0x1E2A4, symBinAddr: 0x100021DA0, symSize: 0x50 }
  - { offsetInCU: 0x2C5C6, offset: 0x2C5C6, size: 0x8, addend: 0x0, symName: __ZNSt3__19__advanceB7v160006INS_21__tree_const_iteratorINS_12__value_typeIiNS_4pairINS_6vectorINS_12basic_stringIcNS_11char_traitsIcEENS_9allocatorIcEEEENS8_ISA_EEEENS3_INS4_IiNS8_IiEEEESE_EEEEEEPNS_11__tree_nodeISH_PvEElEEEEvRT_NS_15iterator_traitsISN_E15difference_typeENS_26bidirectional_iterator_tagE, symObjAddr: 0x1E4B8, symBinAddr: 0x100021FB4, symSize: 0xA4 }
  - { offsetInCU: 0x2C661, offset: 0x2C661, size: 0x8, addend: 0x0, symName: __ZNSt3__118__constexpr_strlenB7v160006EPKc, symObjAddr: 0x1F914, symBinAddr: 0x100023410, symSize: 0x24 }
  - { offsetInCU: 0x2C68D, offset: 0x2C68D, size: 0x8, addend: 0x0, symName: __ZNSt3__14moveB7v160006INS_11__wrap_iterIPN8nlohmann16json_abi_v3_11_210basic_jsonINS_3mapENS_6vectorENS_12basic_stringIcNS_11char_traitsIcEENS_9allocatorIcEEEEbxydSA_NS3_14adl_serializerENS6_IhNSA_IhEEEEEEEENS_20back_insert_iteratorINS6_ISG_NSA_ISG_EEEEEEEET0_T_SO_SN_, symObjAddr: 0x20298, symBinAddr: 0x100023D94, symSize: 0x60 }
  - { offsetInCU: 0x2C6E7, offset: 0x2C6E7, size: 0x8, addend: 0x0, symName: __ZNSt3__113back_inserterB7v160006INS_6vectorIN8nlohmann16json_abi_v3_11_210basic_jsonINS_3mapES1_NS_12basic_stringIcNS_11char_traitsIcEENS_9allocatorIcEEEEbxydS9_NS3_14adl_serializerENS1_IhNS9_IhEEEEEENS9_ISF_EEEEEENS_20back_insert_iteratorIT_EERSJ_, symObjAddr: 0x20358, symBinAddr: 0x100023E54, symSize: 0x2C }
  - { offsetInCU: 0x2C71C, offset: 0x2C71C, size: 0x8, addend: 0x0, symName: __ZNSt3__1neB7v160006ERKNS_14__map_iteratorINS_15__tree_iteratorINS_12__value_typeINS_12basic_stringIcNS_11char_traitsIcEENS_9allocatorIcEEEEN8nlohmann16json_abi_v3_11_210basic_jsonINS_3mapENS_6vectorES8_bxydS6_NSA_14adl_serializerENSD_IhNS6_IhEEEEEEEEPNS_11__tree_nodeISI_PvEElEEEESQ_, symObjAddr: 0x2041C, symBinAddr: 0x100023F18, symSize: 0x30 }
  - { offsetInCU: 0x2D10B, offset: 0x2D10B, size: 0x8, addend: 0x0, symName: __ZNSt3__119__debug_db_insert_cB7v160006INS_6vectorIN8nlohmann16json_abi_v3_11_210basic_jsonINS_3mapES1_NS_12basic_stringIcNS_11char_traitsIcEENS_9allocatorIcEEEEbxydS9_NS3_14adl_serializerENS1_IhNS9_IhEEEEEENS9_ISF_EEEEEEvPT_, symObjAddr: 0x208F8, symBinAddr: 0x1000243F4, symSize: 0x10 }
  - { offsetInCU: 0x2D13B, offset: 0x2D13B, size: 0x8, addend: 0x0, symName: __ZNSt3__119__allocate_at_leastB7v160006INS_9allocatorIN8nlohmann16json_abi_v3_11_210basic_jsonINS_3mapENS_6vectorENS_12basic_stringIcNS_11char_traitsIcEENS1_IcEEEEbxydS1_NS3_14adl_serializerENS6_IhNS1_IhEEEEEEEEEENS_19__allocation_resultINS_16allocator_traitsIT_E7pointerEEERSJ_m, symObjAddr: 0x20E7C, symBinAddr: 0x100024978, symSize: 0x40 }
  - { offsetInCU: 0x2D17E, offset: 0x2D17E, size: 0x8, addend: 0x0, symName: __ZNSt3__142__uninitialized_allocator_move_if_noexceptB7v160006INS_9allocatorIN8nlohmann16json_abi_v3_11_210basic_jsonINS_3mapENS_6vectorENS_12basic_stringIcNS_11char_traitsIcEENS1_IcEEEEbxydS1_NS3_14adl_serializerENS6_IhNS1_IhEEEEEEEENS_16reverse_iteratorIPSF_EESJ_SJ_EET2_RT_T0_T1_SK_, symObjAddr: 0x210FC, symBinAddr: 0x100024BF8, symSize: 0x12C }
  - { offsetInCU: 0x2D21F, offset: 0x2D21F, size: 0x8, addend: 0x0, symName: __ZNSt3__14swapB7v160006IPN8nlohmann16json_abi_v3_11_210basic_jsonINS_3mapENS_6vectorENS_12basic_stringIcNS_11char_traitsIcEENS_9allocatorIcEEEEbxydS9_NS2_14adl_serializerENS5_IhNS9_IhEEEEEEEENS_9enable_ifIXaasr21is_move_constructibleIT_EE5valuesr18is_move_assignableISI_EE5valueEvE4typeERSI_SL_, symObjAddr: 0x21274, symBinAddr: 0x100024D70, symSize: 0x3C }
  - { offsetInCU: 0x2D271, offset: 0x2D271, size: 0x8, addend: 0x0, symName: __ZNSt3__125__debug_db_invalidate_allB7v160006INS_6vectorIN8nlohmann16json_abi_v3_11_210basic_jsonINS_3mapES1_NS_12basic_stringIcNS_11char_traitsIcEENS_9allocatorIcEEEEbxydS9_NS3_14adl_serializerENS1_IhNS9_IhEEEEEENS9_ISF_EEEEEEvPT_, symObjAddr: 0x21384, symBinAddr: 0x100024E80, symSize: 0x10 }
  - { offsetInCU: 0x2D2A2, offset: 0x2D2A2, size: 0x8, addend: 0x0, symName: __ZNSt3__112__to_addressB7v160006IN8nlohmann16json_abi_v3_11_210basic_jsonINS_3mapENS_6vectorENS_12basic_stringIcNS_11char_traitsIcEENS_9allocatorIcEEEEbxydS9_NS2_14adl_serializerENS5_IhNS9_IhEEEEEEEEPT_SH_, symObjAddr: 0x213DC, symBinAddr: 0x100024ED8, symSize: 0x14 }
  - { offsetInCU: 0x2D2D7, offset: 0x2D2D7, size: 0x8, addend: 0x0, symName: __ZNSt3__122__make_exception_guardB7v160006INS_29_AllocatorDestroyRangeReverseINS_9allocatorIN8nlohmann16json_abi_v3_11_210basic_jsonINS_3mapENS_6vectorENS_12basic_stringIcNS_11char_traitsIcEENS2_IcEEEEbxydS2_NS4_14adl_serializerENS7_IhNS2_IhEEEEEEEENS_16reverse_iteratorIPSG_EEEEEENS_28__exception_guard_exceptionsIT_EESN_, symObjAddr: 0x213F0, symBinAddr: 0x100024EEC, symSize: 0x4C }
  - { offsetInCU: 0x2D30D, offset: 0x2D30D, size: 0x8, addend: 0x0, symName: __ZNSt3__1neB7v160006IPN8nlohmann16json_abi_v3_11_210basic_jsonINS_3mapENS_6vectorENS_12basic_stringIcNS_11char_traitsIcEENS_9allocatorIcEEEEbxydS9_NS2_14adl_serializerENS5_IhNS9_IhEEEEEESG_EEbRKNS_16reverse_iteratorIT_EERKNSH_IT0_EE, symObjAddr: 0x21480, symBinAddr: 0x100024F7C, symSize: 0x48 }
  - { offsetInCU: 0x2D359, offset: 0x2D359, size: 0x8, addend: 0x0, symName: __ZNSt3__112__to_addressB7v160006INS_16reverse_iteratorIPN8nlohmann16json_abi_v3_11_210basic_jsonINS_3mapENS_6vectorENS_12basic_stringIcNS_11char_traitsIcEENS_9allocatorIcEEEEbxydSA_NS3_14adl_serializerENS6_IhNSA_IhEEEEEEEEvEENS_5decayIDTclsr19__to_address_helperIT_EE6__callclsr3stdE7declvalIRKSK_EEEEE4typeESM_, symObjAddr: 0x214FC, symBinAddr: 0x100024FF8, symSize: 0x24 }
  - { offsetInCU: 0x2D3BA, offset: 0x2D3BA, size: 0x8, addend: 0x0, symName: __ZNSt3__119__allocator_destroyB7v160006INS_9allocatorIN8nlohmann16json_abi_v3_11_210basic_jsonINS_3mapENS_6vectorENS_12basic_stringIcNS_11char_traitsIcEENS1_IcEEEEbxydS1_NS3_14adl_serializerENS6_IhNS1_IhEEEEEEEENS_16reverse_iteratorINSH_IPSF_EEEESK_EEvRT_T0_T1_, symObjAddr: 0x217DC, symBinAddr: 0x1000252D8, symSize: 0x70 }
  - { offsetInCU: 0x2D41E, offset: 0x2D41E, size: 0x8, addend: 0x0, symName: __ZNSt3__1neB7v160006INS_16reverse_iteratorIPN8nlohmann16json_abi_v3_11_210basic_jsonINS_3mapENS_6vectorENS_12basic_stringIcNS_11char_traitsIcEENS_9allocatorIcEEEEbxydSA_NS3_14adl_serializerENS6_IhNSA_IhEEEEEEEESI_EEbRKNS1_IT_EERKNS1_IT0_EE, symObjAddr: 0x21888, symBinAddr: 0x100025384, symSize: 0x60 }
  - { offsetInCU: 0x2D46A, offset: 0x2D46A, size: 0x8, addend: 0x0, symName: __ZNSt3__112__to_addressB7v160006INS_16reverse_iteratorINS1_IPN8nlohmann16json_abi_v3_11_210basic_jsonINS_3mapENS_6vectorENS_12basic_stringIcNS_11char_traitsIcEENS_9allocatorIcEEEEbxydSA_NS3_14adl_serializerENS6_IhNSA_IhEEEEEEEEEEvEENS_5decayIDTclsr19__to_address_helperIT_EE6__callclsr3stdE7declvalIRKSL_EEEEE4typeESN_, symObjAddr: 0x21914, symBinAddr: 0x100025410, symSize: 0x24 }
  - { offsetInCU: 0x2D4CA, offset: 0x2D4CA, size: 0x8, addend: 0x0, symName: __ZNSt3__16__moveB7v160006INS_17_ClassicAlgPolicyENS_11__wrap_iterIPN8nlohmann16json_abi_v3_11_210basic_jsonINS_3mapENS_6vectorENS_12basic_stringIcNS_11char_traitsIcEENS_9allocatorIcEEEEbxydSB_NS4_14adl_serializerENS7_IhNSB_IhEEEEEEEESJ_NS_20back_insert_iteratorINS7_ISH_NSB_ISH_EEEEEEEENS_4pairIT0_T2_EESP_T1_SQ_, symObjAddr: 0x21D3C, symBinAddr: 0x100025838, symSize: 0x5C }
  - { offsetInCU: 0x2D536, offset: 0x2D536, size: 0x8, addend: 0x0, symName: __ZNSt3__123__dispatch_copy_or_moveB7v160006INS_17_ClassicAlgPolicyENS_11__move_loopIS1_EENS_14__move_trivialENS_11__wrap_iterIPN8nlohmann16json_abi_v3_11_210basic_jsonINS_3mapENS_6vectorENS_12basic_stringIcNS_11char_traitsIcEENS_9allocatorIcEEEEbxydSE_NS7_14adl_serializerENSA_IhNSE_IhEEEEEEEESM_NS_20back_insert_iteratorINSA_ISK_NSE_ISK_EEEEEEEENS_4pairIT2_T4_EESS_T3_ST_, symObjAddr: 0x21D98, symBinAddr: 0x100025894, symSize: 0x5C }
  - { offsetInCU: 0x2D5B4, offset: 0x2D5B4, size: 0x8, addend: 0x0, symName: __ZNSt3__121__unwrap_and_dispatchB7v160006INS_10__overloadINS_11__move_loopINS_17_ClassicAlgPolicyEEENS_14__move_trivialEEENS_11__wrap_iterIPN8nlohmann16json_abi_v3_11_210basic_jsonINS_3mapENS_6vectorENS_12basic_stringIcNS_11char_traitsIcEENS_9allocatorIcEEEEbxydSG_NS9_14adl_serializerENSC_IhNSG_IhEEEEEEEESO_NS_20back_insert_iteratorINSC_ISM_NSG_ISM_EEEEEELi0EEENS_4pairIT0_T2_EESU_T1_SV_, symObjAddr: 0x21DF4, symBinAddr: 0x1000258F0, symSize: 0xE8 }
  - { offsetInCU: 0x2D643, offset: 0x2D643, size: 0x8, addend: 0x0, symName: __ZNSt3__114__unwrap_rangeB7v160006INS_11__wrap_iterIPN8nlohmann16json_abi_v3_11_210basic_jsonINS_3mapENS_6vectorENS_12basic_stringIcNS_11char_traitsIcEENS_9allocatorIcEEEEbxydSA_NS3_14adl_serializerENS6_IhNSA_IhEEEEEEEESH_EENS_4pairIT0_SK_EET_SM_, symObjAddr: 0x21EDC, symBinAddr: 0x1000259D8, symSize: 0x70 }
  - { offsetInCU: 0x2D8F9, offset: 0x2D8F9, size: 0x8, addend: 0x0, symName: __ZNSt3__113__unwrap_iterB7v160006INS_20back_insert_iteratorINS_6vectorIN8nlohmann16json_abi_v3_11_210basic_jsonINS_3mapES2_NS_12basic_stringIcNS_11char_traitsIcEENS_9allocatorIcEEEEbxydSA_NS4_14adl_serializerENS2_IhNSA_IhEEEEEENSA_ISG_EEEEEENS_18__unwrap_iter_implISJ_Lb0EEELi0EEEDTclsrT0_8__unwrapclsr3stdE7declvalIT_EEEESN_, symObjAddr: 0x21FE4, symBinAddr: 0x100025AE0, symSize: 0x34 }
  - { offsetInCU: 0x2D93D, offset: 0x2D93D, size: 0x8, addend: 0x0, symName: __ZNSt3__19make_pairB7v160006INS_11__wrap_iterIPN8nlohmann16json_abi_v3_11_210basic_jsonINS_3mapENS_6vectorENS_12basic_stringIcNS_11char_traitsIcEENS_9allocatorIcEEEEbxydSA_NS3_14adl_serializerENS6_IhNSA_IhEEEEEEEENS_20back_insert_iteratorINS6_ISG_NSA_ISG_EEEEEEEENS_4pairINS_18__unwrap_ref_decayIT_E4typeENSO_IT0_E4typeEEEOSP_OSS_, symObjAddr: 0x22018, symBinAddr: 0x100025B14, symSize: 0x38 }
  - { offsetInCU: 0x2D98C, offset: 0x2D98C, size: 0x8, addend: 0x0, symName: __ZNSt3__114__rewrap_rangeB7v160006INS_11__wrap_iterIPN8nlohmann16json_abi_v3_11_210basic_jsonINS_3mapENS_6vectorENS_12basic_stringIcNS_11char_traitsIcEENS_9allocatorIcEEEEbxydSA_NS3_14adl_serializerENS6_IhNSA_IhEEEEEEEESH_EET_SJ_T0_, symObjAddr: 0x22050, symBinAddr: 0x100025B4C, symSize: 0x3C }
  - { offsetInCU: 0x2D9D8, offset: 0x2D9D8, size: 0x8, addend: 0x0, symName: __ZNSt3__113__rewrap_iterB7v160006INS_20back_insert_iteratorINS_6vectorIN8nlohmann16json_abi_v3_11_210basic_jsonINS_3mapES2_NS_12basic_stringIcNS_11char_traitsIcEENS_9allocatorIcEEEEbxydSA_NS4_14adl_serializerENS2_IhNSA_IhEEEEEENSA_ISG_EEEEEESJ_NS_18__unwrap_iter_implISJ_Lb0EEEEET_SM_T0_, symObjAddr: 0x2208C, symBinAddr: 0x100025B88, symSize: 0x54 }
  - { offsetInCU: 0x2DA2D, offset: 0x2DA2D, size: 0x8, addend: 0x0, symName: __ZNSt3__19make_pairB7v160006IPN8nlohmann16json_abi_v3_11_210basic_jsonINS_3mapENS_6vectorENS_12basic_stringIcNS_11char_traitsIcEENS_9allocatorIcEEEEbxydS9_NS2_14adl_serializerENS5_IhNS9_IhEEEEEESG_EENS_4pairINS_18__unwrap_ref_decayIT_E4typeENSI_IT0_E4typeEEEOSJ_OSM_, symObjAddr: 0x220E0, symBinAddr: 0x100025BDC, symSize: 0x38 }
  - { offsetInCU: 0x2DA7C, offset: 0x2DA7C, size: 0x8, addend: 0x0, symName: __ZNSt3__113__unwrap_iterB7v160006INS_11__wrap_iterIPN8nlohmann16json_abi_v3_11_210basic_jsonINS_3mapENS_6vectorENS_12basic_stringIcNS_11char_traitsIcEENS_9allocatorIcEEEEbxydSA_NS3_14adl_serializerENS6_IhNSA_IhEEEEEEEENS_18__unwrap_iter_implISI_Lb1EEELi0EEEDTclsrT0_8__unwrapclsr3stdE7declvalIT_EEEESM_, symObjAddr: 0x22118, symBinAddr: 0x100025C14, symSize: 0x2C }
  - { offsetInCU: 0x2DBE7, offset: 0x2DBE7, size: 0x8, addend: 0x0, symName: __ZNSt3__112__to_addressB7v160006INS_11__wrap_iterIPN8nlohmann16json_abi_v3_11_210basic_jsonINS_3mapENS_6vectorENS_12basic_stringIcNS_11char_traitsIcEENS_9allocatorIcEEEEbxydSA_NS3_14adl_serializerENS6_IhNSA_IhEEEEEEEEvEENS_5decayIDTclsr19__to_address_helperIT_EE6__callclsr3stdE7declvalIRKSK_EEEEE4typeESM_, symObjAddr: 0x221DC, symBinAddr: 0x100025CD8, symSize: 0x24 }
  - { offsetInCU: 0x2DDFD, offset: 0x2DDFD, size: 0x8, addend: 0x0, symName: __ZNSt3__19make_pairB7v160006IPN8nlohmann16json_abi_v3_11_210basic_jsonINS_3mapENS_6vectorENS_12basic_stringIcNS_11char_traitsIcEENS_9allocatorIcEEEEbxydS9_NS2_14adl_serializerENS5_IhNS9_IhEEEEEENS_20back_insert_iteratorINS5_ISF_NS9_ISF_EEEEEEEENS_4pairINS_18__unwrap_ref_decayIT_E4typeENSM_IT0_E4typeEEEOSN_OSQ_, symObjAddr: 0x222FC, symBinAddr: 0x100025DF8, symSize: 0x38 }
  - { offsetInCU: 0x2DF68, offset: 0x2DF68, size: 0x8, addend: 0x0, symName: __ZNSt3__113__rewrap_iterB7v160006INS_11__wrap_iterIPN8nlohmann16json_abi_v3_11_210basic_jsonINS_3mapENS_6vectorENS_12basic_stringIcNS_11char_traitsIcEENS_9allocatorIcEEEEbxydSA_NS3_14adl_serializerENS6_IhNSA_IhEEEEEEEESH_NS_18__unwrap_iter_implISI_Lb1EEEEET_SL_T0_, symObjAddr: 0x22434, symBinAddr: 0x100025F30, symSize: 0x4C }
  - { offsetInCU: 0x2DFBD, offset: 0x2DFBD, size: 0x8, addend: 0x0, symName: __ZNSt3__1neB7v160006ERKNS_15__tree_iteratorINS_12__value_typeINS_12basic_stringIcNS_11char_traitsIcEENS_9allocatorIcEEEEN8nlohmann16json_abi_v3_11_210basic_jsonINS_3mapENS_6vectorES7_bxydS5_NS9_14adl_serializerENSC_IhNS5_IhEEEEEEEEPNS_11__tree_nodeISH_PvEElEESO_, symObjAddr: 0x2281C, symBinAddr: 0x100026318, symSize: 0x34 }
  - { offsetInCU: 0x2DFFB, offset: 0x2DFFB, size: 0x8, addend: 0x0, symName: __ZNSt3__1eqB7v160006ERKNS_15__tree_iteratorINS_12__value_typeINS_12basic_stringIcNS_11char_traitsIcEENS_9allocatorIcEEEEN8nlohmann16json_abi_v3_11_210basic_jsonINS_3mapENS_6vectorES7_bxydS5_NS9_14adl_serializerENSC_IhNS5_IhEEEEEEEEPNS_11__tree_nodeISH_PvEElEESO_, symObjAddr: 0x22850, symBinAddr: 0x10002634C, symSize: 0x30 }
  - { offsetInCU: 0x2E06A, offset: 0x2E06A, size: 0x8, addend: 0x0, symName: __ZNSt3__13maxB7v160006ImEERKT_S3_S3_, symObjAddr: 0x22BD4, symBinAddr: 0x1000266D0, symSize: 0x2C }
  - { offsetInCU: 0x2E0AD, offset: 0x2E0AD, size: 0x8, addend: 0x0, symName: __ZNSt3__13maxB7v160006ImNS_6__lessImmEEEERKT_S5_S5_T0_, symObjAddr: 0x22C00, symBinAddr: 0x1000266FC, symSize: 0x54 }
  - { offsetInCU: 0x2E108, offset: 0x2E108, size: 0x8, addend: 0x0, symName: __ZNSt3__118__debug_db_erase_cB7v160006INS_6vectorIN8nlohmann16json_abi_v3_11_210basic_jsonINS_3mapES1_NS_12basic_stringIcNS_11char_traitsIcEENS_9allocatorIcEEEEbxydS9_NS3_14adl_serializerENS1_IhNS9_IhEEEEEENS9_ISF_EEEEEEvPT_, symObjAddr: 0x233A4, symBinAddr: 0x100026EA0, symSize: 0x10 }
  - { offsetInCU: 0x2E139, offset: 0x2E139, size: 0x8, addend: 0x0, symName: __ZNSt3__118__debug_db_erase_cB7v160006INS_6vectorIhNS_9allocatorIhEEEEEEvPT_, symObjAddr: 0x238B4, symBinAddr: 0x1000273B0, symSize: 0x10 }
  - { offsetInCU: 0x2E16A, offset: 0x2E16A, size: 0x8, addend: 0x0, symName: __ZNSt3__112__to_addressB7v160006IhEEPT_S2_, symObjAddr: 0x239E8, symBinAddr: 0x1000274E4, symSize: 0x14 }
  - { offsetInCU: 0x2E1D3, offset: 0x2E1D3, size: 0x8, addend: 0x0, symName: __ZNSt3__112__to_addressB7v160006IKcEEPT_S3_, symObjAddr: 0x24140, symBinAddr: 0x100027C3C, symSize: 0x14 }
  - { offsetInCU: 0x2E63A, offset: 0x2E63A, size: 0x8, addend: 0x0, symName: __ZNSt3__1neB7v160006INS_3mapINS_12basic_stringIcNS_11char_traitsIcEENS_9allocatorIcEEEEN8nlohmann16json_abi_v3_11_210basic_jsonIS1_NS_6vectorES7_bxydS5_NS9_14adl_serializerENSB_IhNS5_IhEEEEEENS_4lessIvEENS5_INS_4pairIKS7_SF_EEEEEEZNSF_6createISM_JEEEPT_DpOT0_EUlPSM_E_EEbRKNS_10unique_ptrISO_T0_EEDn, symObjAddr: 0x251DC, symBinAddr: 0x100028CD8, symSize: 0x2C }
  - { offsetInCU: 0x2EA85, offset: 0x2EA85, size: 0x8, addend: 0x0, symName: __ZNSt3__1neB7v160006INS_6vectorIN8nlohmann16json_abi_v3_11_210basic_jsonINS_3mapES1_NS_12basic_stringIcNS_11char_traitsIcEENS_9allocatorIcEEEEbxydS9_NS3_14adl_serializerENS1_IhNS9_IhEEEEEENS9_ISF_EEEEZNSF_6createISH_JEEEPT_DpOT0_EUlPSH_E_EEbRKNS_10unique_ptrISJ_T0_EEDn, symObjAddr: 0x259B8, symBinAddr: 0x1000294B4, symSize: 0x2C }
  - { offsetInCU: 0x2EE1C, offset: 0x2EE1C, size: 0x8, addend: 0x0, symName: __ZNSt3__1neB7v160006INS_12basic_stringIcNS_11char_traitsIcEENS_9allocatorIcEEEEZN8nlohmann16json_abi_v3_11_210basic_jsonINS_3mapENS_6vectorES6_bxydS4_NS8_14adl_serializerENSB_IhNS4_IhEEEEE6createIS6_JRA1_KcEEEPT_DpOT0_EUlPS6_E_EEbRKNS_10unique_ptrISK_T0_EEDn, symObjAddr: 0x25EB0, symBinAddr: 0x1000299AC, symSize: 0x2C }
  - { offsetInCU: 0x2F267, offset: 0x2F267, size: 0x8, addend: 0x0, symName: __ZNSt3__1neB7v160006IN8nlohmann16json_abi_v3_11_227byte_container_with_subtypeINS_6vectorIhNS_9allocatorIhEEEEEEZNS2_10basic_jsonINS_3mapES4_NS_12basic_stringIcNS_11char_traitsIcEENS5_IcEEEEbxydS5_NS2_14adl_serializerES7_E6createIS8_JEEEPT_DpOT0_EUlPS8_E_EEbRKNS_10unique_ptrISJ_T0_EEDn, symObjAddr: 0x262E8, symBinAddr: 0x100029DE4, symSize: 0x2C }
  - { offsetInCU: 0x2F2B4, offset: 0x2F2B4, size: 0x8, addend: 0x0, symName: __ZNSt3__119__debug_db_insert_cB7v160006INS_6vectorIhNS_9allocatorIhEEEEEEvPT_, symObjAddr: 0x2664C, symBinAddr: 0x10002A148, symSize: 0x10 }
  - { offsetInCU: 0x2F2E5, offset: 0x2F2E5, size: 0x8, addend: 0x0, symName: __ZNSt3__119__debug_db_insert_cB7v160006INS_6vectorIcNS_9allocatorIcEEEEEEvPT_, symObjAddr: 0x2793C, symBinAddr: 0x10002B438, symSize: 0x10 }
  - { offsetInCU: 0x2F89C, offset: 0x2F89C, size: 0x8, addend: 0x0, symName: __ZNSt3__112__to_addressB7v160006IcEEPT_S2_, symObjAddr: 0x29F9C, symBinAddr: 0x10002DA98, symSize: 0x14 }
  - { offsetInCU: 0x2F8D1, offset: 0x2F8D1, size: 0x8, addend: 0x0, symName: __ZNSt3__119__allocate_at_leastB7v160006INS_9allocatorIcEEEENS_19__allocation_resultINS_16allocator_traitsIT_E7pointerEEERS5_m, symObjAddr: 0x2A5A4, symBinAddr: 0x10002E0A0, symSize: 0x40 }
  - { offsetInCU: 0x2F914, offset: 0x2F914, size: 0x8, addend: 0x0, symName: __ZNSt3__142__uninitialized_allocator_move_if_noexceptB7v160006INS_9allocatorIcEENS_16reverse_iteratorIPcEES5_cvEET1_RT_T0_S9_S6_, symObjAddr: 0x2A810, symBinAddr: 0x10002E30C, symSize: 0x78 }
  - { offsetInCU: 0x2F993, offset: 0x2F993, size: 0x8, addend: 0x0, symName: __ZNSt3__14swapB7v160006IPcEENS_9enable_ifIXaasr21is_move_constructibleIT_EE5valuesr18is_move_assignableIS3_EE5valueEvE4typeERS3_S6_, symObjAddr: 0x2A8D4, symBinAddr: 0x10002E3D0, symSize: 0x3C }
  - { offsetInCU: 0x2F9E5, offset: 0x2F9E5, size: 0x8, addend: 0x0, symName: __ZNSt3__125__debug_db_invalidate_allB7v160006INS_6vectorIcNS_9allocatorIcEEEEEEvPT_, symObjAddr: 0x2A9BC, symBinAddr: 0x10002E4B8, symSize: 0x10 }
  - { offsetInCU: 0x2FA15, offset: 0x2FA15, size: 0x8, addend: 0x0, symName: __ZNSt3__14moveB7v160006INS_16reverse_iteratorIPcEES3_EET0_T_S5_S4_, symObjAddr: 0x2AA14, symBinAddr: 0x10002E510, symSize: 0x78 }
  - { offsetInCU: 0x2FA6F, offset: 0x2FA6F, size: 0x8, addend: 0x0, symName: __ZNSt3__16__moveB7v160006INS_17_ClassicAlgPolicyENS_16reverse_iteratorIPcEES4_S4_EENS_4pairIT0_T2_EES6_T1_S7_, symObjAddr: 0x2AA8C, symBinAddr: 0x10002E588, symSize: 0x64 }
  - { offsetInCU: 0x2FADB, offset: 0x2FADB, size: 0x8, addend: 0x0, symName: __ZNSt3__123__dispatch_copy_or_moveB7v160006INS_17_ClassicAlgPolicyENS_11__move_loopIS1_EENS_14__move_trivialENS_16reverse_iteratorIPcEES7_S7_EENS_4pairIT2_T4_EES9_T3_SA_, symObjAddr: 0x2AAF0, symBinAddr: 0x10002E5EC, symSize: 0x64 }
  - { offsetInCU: 0x2FB59, offset: 0x2FB59, size: 0x8, addend: 0x0, symName: __ZNSt3__121__unwrap_and_dispatchB7v160006INS_10__overloadINS_11__move_loopINS_17_ClassicAlgPolicyEEENS_14__move_trivialEEENS_16reverse_iteratorIPcEES9_S9_Li0EEENS_4pairIT0_T2_EESB_T1_SC_, symObjAddr: 0x2AB54, symBinAddr: 0x10002E650, symSize: 0x12C }
  - { offsetInCU: 0x2FBE9, offset: 0x2FBE9, size: 0x8, addend: 0x0, symName: __ZNSt3__114__unwrap_rangeB7v160006INS_16reverse_iteratorIPcEES3_EENS_4pairIT0_S5_EET_S7_, symObjAddr: 0x2AC80, symBinAddr: 0x10002E77C, symSize: 0x84 }
  - { offsetInCU: 0x2FD09, offset: 0x2FD09, size: 0x8, addend: 0x0, symName: __ZNSt3__113__unwrap_iterB7v160006INS_16reverse_iteratorIPcEENS_18__unwrap_iter_implIS3_Lb0EEELi0EEEDTclsrT0_8__unwrapclsr3stdE7declvalIT_EEEES7_, symObjAddr: 0x2ADA4, symBinAddr: 0x10002E8A0, symSize: 0x44 }
  - { offsetInCU: 0x2FD4D, offset: 0x2FD4D, size: 0x8, addend: 0x0, symName: __ZNSt3__19make_pairB7v160006INS_16reverse_iteratorIPcEES3_EENS_4pairINS_18__unwrap_ref_decayIT_E4typeENS5_IT0_E4typeEEEOS6_OS9_, symObjAddr: 0x2ADE8, symBinAddr: 0x10002E8E4, symSize: 0x38 }
  - { offsetInCU: 0x2FD9C, offset: 0x2FD9C, size: 0x8, addend: 0x0, symName: __ZNSt3__114__rewrap_rangeB7v160006INS_16reverse_iteratorIPcEES3_EET_S4_T0_, symObjAddr: 0x2AE20, symBinAddr: 0x10002E91C, symSize: 0x5C }
  - { offsetInCU: 0x2FDE8, offset: 0x2FDE8, size: 0x8, addend: 0x0, symName: __ZNSt3__113__rewrap_iterB7v160006INS_16reverse_iteratorIPcEES3_NS_18__unwrap_iter_implIS3_Lb0EEEEET_S6_T0_, symObjAddr: 0x2AE7C, symBinAddr: 0x10002E978, symSize: 0x74 }
  - { offsetInCU: 0x2FE3D, offset: 0x2FE3D, size: 0x8, addend: 0x0, symName: __ZNSt3__1neB7v160006IPcS1_EEbRKNS_16reverse_iteratorIT_EERKNS2_IT0_EE, symObjAddr: 0x2AEF0, symBinAddr: 0x10002E9EC, symSize: 0x48 }
  - { offsetInCU: 0x2FEF6, offset: 0x2FEF6, size: 0x8, addend: 0x0, symName: __ZNSt3__125__debug_db_invalidate_allB7v160006INS_12basic_stringIcNS_11char_traitsIcEENS_9allocatorIcEEEEEEvPT_, symObjAddr: 0x2BA98, symBinAddr: 0x10002F594, symSize: 0x10 }
  - { offsetInCU: 0x2FF27, offset: 0x2FF27, size: 0x8, addend: 0x0, symName: __ZNSt3__118__debug_db_erase_cB7v160006INS_6vectorIcNS_9allocatorIcEEEEEEvPT_, symObjAddr: 0x2BD7C, symBinAddr: 0x10002F878, symSize: 0x10 }
  - { offsetInCU: 0x2FF58, offset: 0x2FF58, size: 0x8, addend: 0x0, symName: __ZNSt3__119__debug_db_insert_cB7v160006INS_6vectorIPN8nlohmann16json_abi_v3_11_210basic_jsonINS_3mapES1_NS_12basic_stringIcNS_11char_traitsIcEENS_9allocatorIcEEEEbxydS9_NS3_14adl_serializerENS1_IhNS9_IhEEEEEENS9_ISG_EEEEEEvPT_, symObjAddr: 0x2F370, symBinAddr: 0x100032E6C, symSize: 0x10 }
  - { offsetInCU: 0x2FFA6, offset: 0x2FFA6, size: 0x8, addend: 0x0, symName: __ZNSt3__125__debug_db_invalidate_allB7v160006INS_6vectorIbNS_9allocatorIbEEEEEEvPT_, symObjAddr: 0x2FC68, symBinAddr: 0x100033764, symSize: 0x10 }
  - { offsetInCU: 0x301E2, offset: 0x301E2, size: 0x8, addend: 0x0, symName: __ZNSt3__119__allocate_at_leastB7v160006INS_9allocatorImEEEENS_19__allocation_resultINS_16allocator_traitsIT_E7pointerEEERS5_m, symObjAddr: 0x2FF0C, symBinAddr: 0x100033A08, symSize: 0x40 }
  - { offsetInCU: 0x30225, offset: 0x30225, size: 0x8, addend: 0x0, symName: __ZNSt3__18distanceB7v160006INS_14__bit_iteratorINS_6vectorIbNS_9allocatorIbEEEELb0ELm0EEEEENS_15iterator_traitsIT_E15difference_typeES8_S8_, symObjAddr: 0x30074, symBinAddr: 0x100033B70, symSize: 0x5C }
  - { offsetInCU: 0x3026A, offset: 0x3026A, size: 0x8, addend: 0x0, symName: __ZNSt3__14copyB7v160006INS_6vectorIbNS_9allocatorIbEEEELb0EEENS_14__bit_iteratorIT_Lb0EXLi0EEEENS5_IS6_XT0_EXLi0EEEES8_S7_, symObjAddr: 0x30104, symBinAddr: 0x100033C00, symSize: 0xE8 }
  - { offsetInCU: 0x302CC, offset: 0x302CC, size: 0x8, addend: 0x0, symName: __ZNSt3__110__distanceB7v160006INS_14__bit_iteratorINS_6vectorIbNS_9allocatorIbEEEELb0ELm0EEEEENS_15iterator_traitsIT_E15difference_typeES8_S8_NS_26random_access_iterator_tagE, symObjAddr: 0x30250, symBinAddr: 0x100033D4C, symSize: 0x38 }
  - { offsetInCU: 0x3031D, offset: 0x3031D, size: 0x8, addend: 0x0, symName: __ZNSt3__1miB7v160006ERKNS_14__bit_iteratorINS_6vectorIbNS_9allocatorIbEEEELb0ELm0EEES7_, symObjAddr: 0x30288, symBinAddr: 0x100033D84, symSize: 0x48 }
  - { offsetInCU: 0x30359, offset: 0x30359, size: 0x8, addend: 0x0, symName: __ZNSt3__13minB7v160006IlEERKT_S3_S3_, symObjAddr: 0x30AB8, symBinAddr: 0x1000345B4, symSize: 0x2C }
  - { offsetInCU: 0x3039D, offset: 0x3039D, size: 0x8, addend: 0x0, symName: __ZNSt3__112__to_addressB7v160006ImEEPT_S2_, symObjAddr: 0x30B28, symBinAddr: 0x100034624, symSize: 0x14 }
  - { offsetInCU: 0x303D2, offset: 0x303D2, size: 0x8, addend: 0x0, symName: __ZNSt3__13minB7v160006IlNS_6__lessIllEEEERKT_S5_S5_T0_, symObjAddr: 0x30B3C, symBinAddr: 0x100034638, symSize: 0x54 }
  - { offsetInCU: 0x30467, offset: 0x30467, size: 0x8, addend: 0x0, symName: __ZNSt3__14copyB7v160006IPmS1_EET0_T_S3_S2_, symObjAddr: 0x30BC4, symBinAddr: 0x1000346C0, symSize: 0x40 }
  - { offsetInCU: 0x304C1, offset: 0x304C1, size: 0x8, addend: 0x0, symName: __ZNSt3__16__copyB7v160006INS_17_ClassicAlgPolicyEPmS2_S2_EENS_4pairIT0_T2_EES4_T1_S5_, symObjAddr: 0x30C04, symBinAddr: 0x100034700, symSize: 0x44 }
  - { offsetInCU: 0x3052D, offset: 0x3052D, size: 0x8, addend: 0x0, symName: __ZNSt3__123__dispatch_copy_or_moveB7v160006INS_17_ClassicAlgPolicyENS_11__copy_loopIS1_EENS_14__copy_trivialEPmS5_S5_EENS_4pairIT2_T4_EES7_T3_S8_, symObjAddr: 0x30C48, symBinAddr: 0x100034744, symSize: 0x44 }
  - { offsetInCU: 0x305AB, offset: 0x305AB, size: 0x8, addend: 0x0, symName: __ZNSt3__121__unwrap_and_dispatchB7v160006INS_10__overloadINS_11__copy_loopINS_17_ClassicAlgPolicyEEENS_14__copy_trivialEEEPmS7_S7_Li0EEENS_4pairIT0_T2_EES9_T1_SA_, symObjAddr: 0x30C8C, symBinAddr: 0x100034788, symSize: 0xB4 }
  - { offsetInCU: 0x30639, offset: 0x30639, size: 0x8, addend: 0x0, symName: __ZNSt3__114__unwrap_rangeB7v160006IPmS1_EENS_4pairIT0_S3_EET_S5_, symObjAddr: 0x30D40, symBinAddr: 0x10003483C, symSize: 0x60 }
  - { offsetInCU: 0x30882, offset: 0x30882, size: 0x8, addend: 0x0, symName: __ZNSt3__113__unwrap_iterB7v160006IPmNS_18__unwrap_iter_implIS1_Lb1EEELi0EEEDTclsrT0_8__unwrapclsr3stdE7declvalIT_EEEES5_, symObjAddr: 0x30DE8, symBinAddr: 0x1000348E4, symSize: 0x24 }
  - { offsetInCU: 0x308C6, offset: 0x308C6, size: 0x8, addend: 0x0, symName: __ZNSt3__19make_pairB7v160006IPmS1_EENS_4pairINS_18__unwrap_ref_decayIT_E4typeENS3_IT0_E4typeEEEOS4_OS7_, symObjAddr: 0x30E0C, symBinAddr: 0x100034908, symSize: 0x38 }
  - { offsetInCU: 0x30915, offset: 0x30915, size: 0x8, addend: 0x0, symName: __ZNSt3__114__rewrap_rangeB7v160006IPmS1_EET_S2_T0_, symObjAddr: 0x30E44, symBinAddr: 0x100034940, symSize: 0x2C }
  - { offsetInCU: 0x30961, offset: 0x30961, size: 0x8, addend: 0x0, symName: __ZNSt3__113__rewrap_iterB7v160006IPmS1_NS_18__unwrap_iter_implIS1_Lb1EEEEET_S4_T0_, symObjAddr: 0x30E70, symBinAddr: 0x10003496C, symSize: 0x3C }
  - { offsetInCU: 0x309B6, offset: 0x309B6, size: 0x8, addend: 0x0, symName: __ZNSt3__119__copy_trivial_implB7v160006ImmEENS_4pairIPT_PT0_EES3_S3_S5_, symObjAddr: 0x30EAC, symBinAddr: 0x1000349A8, symSize: 0x84 }
  - { offsetInCU: 0x30A1E, offset: 0x30A1E, size: 0x8, addend: 0x0, symName: __ZNSt3__19make_pairB7v160006IRPmS1_EENS_4pairINS_18__unwrap_ref_decayIT_E4typeENS4_IT0_E4typeEEEOS5_OS8_, symObjAddr: 0x30F30, symBinAddr: 0x100034A2C, symSize: 0x38 }
  - { offsetInCU: 0x30AC1, offset: 0x30AC1, size: 0x8, addend: 0x0, symName: __ZNSt3__14swapB7v160006IPmEENS_9enable_ifIXaasr21is_move_constructibleIT_EE5valuesr18is_move_assignableIS3_EE5valueEvE4typeERS3_S6_, symObjAddr: 0x31124, symBinAddr: 0x100034C20, symSize: 0x3C }
  - { offsetInCU: 0x30B13, offset: 0x30B13, size: 0x8, addend: 0x0, symName: __ZNSt3__14swapB7v160006ImEENS_9enable_ifIXaasr21is_move_constructibleIT_EE5valuesr18is_move_assignableIS2_EE5valueEvE4typeERS2_S5_, symObjAddr: 0x31160, symBinAddr: 0x100034C5C, symSize: 0x3C }
  - { offsetInCU: 0x30B65, offset: 0x30B65, size: 0x8, addend: 0x0, symName: __ZNSt3__116__swap_allocatorB7v160006INS_9allocatorImEEEEvRT_S4_NS_17integral_constantIbLb0EEE, symObjAddr: 0x3119C, symBinAddr: 0x100034C98, symSize: 0x14 }
  - { offsetInCU: 0x30BA9, offset: 0x30BA9, size: 0x8, addend: 0x0, symName: __ZNSt3__125__debug_db_invalidate_allB7v160006INS_6vectorIbNS_9allocatorIbEEE16__destroy_vectorEEEvPT_, symObjAddr: 0x313E4, symBinAddr: 0x100034EE0, symSize: 0x10 }
  - { offsetInCU: 0x30BDA, offset: 0x30BDA, size: 0x8, addend: 0x0, symName: __ZNSt3__118__debug_db_erase_cB7v160006INS_6vectorIPN8nlohmann16json_abi_v3_11_210basic_jsonINS_3mapES1_NS_12basic_stringIcNS_11char_traitsIcEENS_9allocatorIcEEEEbxydS9_NS3_14adl_serializerENS1_IhNS9_IhEEEEEENS9_ISG_EEEEEEvPT_, symObjAddr: 0x31620, symBinAddr: 0x10003511C, symSize: 0x10 }
  - { offsetInCU: 0x30C0B, offset: 0x30C0B, size: 0x8, addend: 0x0, symName: __ZNSt3__112__to_addressB7v160006IPN8nlohmann16json_abi_v3_11_210basic_jsonINS_3mapENS_6vectorENS_12basic_stringIcNS_11char_traitsIcEENS_9allocatorIcEEEEbxydS9_NS2_14adl_serializerENS5_IhNS9_IhEEEEEEEEPT_SI_, symObjAddr: 0x31764, symBinAddr: 0x100035260, symSize: 0x14 }
  - { offsetInCU: 0x30D73, offset: 0x30D73, size: 0x8, addend: 0x0, symName: __ZNSt3__125__throw_bad_function_callB7v160006Ev, symObjAddr: 0x3317C, symBinAddr: 0x100036C78, symSize: 0x38 }
  - { offsetInCU: 0x30DC3, offset: 0x30DC3, size: 0x8, addend: 0x0, symName: __ZNSt3__119__allocate_at_leastB7v160006INS_9allocatorIPN8nlohmann16json_abi_v3_11_210basic_jsonINS_3mapENS_6vectorENS_12basic_stringIcNS_11char_traitsIcEENS1_IcEEEEbxydS1_NS3_14adl_serializerENS6_IhNS1_IhEEEEEEEEEENS_19__allocation_resultINS_16allocator_traitsIT_E7pointerEEERSK_m, symObjAddr: 0x33CBC, symBinAddr: 0x1000377B8, symSize: 0x40 }
  - { offsetInCU: 0x30E06, offset: 0x30E06, size: 0x8, addend: 0x0, symName: __ZNSt3__142__uninitialized_allocator_move_if_noexceptB7v160006INS_9allocatorIPN8nlohmann16json_abi_v3_11_210basic_jsonINS_3mapENS_6vectorENS_12basic_stringIcNS_11char_traitsIcEENS1_IcEEEEbxydS1_NS3_14adl_serializerENS6_IhNS1_IhEEEEEEEENS_16reverse_iteratorIPSG_EESK_SG_vEET1_RT_T0_SO_SL_, symObjAddr: 0x33E70, symBinAddr: 0x10003796C, symSize: 0x78 }
  - { offsetInCU: 0x30E85, offset: 0x30E85, size: 0x8, addend: 0x0, symName: __ZNSt3__14swapB7v160006IPPN8nlohmann16json_abi_v3_11_210basic_jsonINS_3mapENS_6vectorENS_12basic_stringIcNS_11char_traitsIcEENS_9allocatorIcEEEEbxydS9_NS2_14adl_serializerENS5_IhNS9_IhEEEEEEEENS_9enable_ifIXaasr21is_move_constructibleIT_EE5valuesr18is_move_assignableISJ_EE5valueEvE4typeERSJ_SM_, symObjAddr: 0x33F34, symBinAddr: 0x100037A30, symSize: 0x3C }
  - { offsetInCU: 0x30ED7, offset: 0x30ED7, size: 0x8, addend: 0x0, symName: __ZNSt3__125__debug_db_invalidate_allB7v160006INS_6vectorIPN8nlohmann16json_abi_v3_11_210basic_jsonINS_3mapES1_NS_12basic_stringIcNS_11char_traitsIcEENS_9allocatorIcEEEEbxydS9_NS3_14adl_serializerENS1_IhNS9_IhEEEEEENS9_ISG_EEEEEEvPT_, symObjAddr: 0x3401C, symBinAddr: 0x100037B18, symSize: 0x10 }
  - { offsetInCU: 0x30F07, offset: 0x30F07, size: 0x8, addend: 0x0, symName: __ZNSt3__14moveB7v160006INS_16reverse_iteratorIPPN8nlohmann16json_abi_v3_11_210basic_jsonINS_3mapENS_6vectorENS_12basic_stringIcNS_11char_traitsIcEENS_9allocatorIcEEEEbxydSA_NS3_14adl_serializerENS6_IhNSA_IhEEEEEEEESJ_EET0_T_SL_SK_, symObjAddr: 0x3402C, symBinAddr: 0x100037B28, symSize: 0x78 }
  - { offsetInCU: 0x30F61, offset: 0x30F61, size: 0x8, addend: 0x0, symName: __ZNSt3__16__moveB7v160006INS_17_ClassicAlgPolicyENS_16reverse_iteratorIPPN8nlohmann16json_abi_v3_11_210basic_jsonINS_3mapENS_6vectorENS_12basic_stringIcNS_11char_traitsIcEENS_9allocatorIcEEEEbxydSB_NS4_14adl_serializerENS7_IhNSB_IhEEEEEEEESK_SK_EENS_4pairIT0_T2_EESM_T1_SN_, symObjAddr: 0x340A4, symBinAddr: 0x100037BA0, symSize: 0x64 }
  - { offsetInCU: 0x30FCD, offset: 0x30FCD, size: 0x8, addend: 0x0, symName: __ZNSt3__123__dispatch_copy_or_moveB7v160006INS_17_ClassicAlgPolicyENS_11__move_loopIS1_EENS_14__move_trivialENS_16reverse_iteratorIPPN8nlohmann16json_abi_v3_11_210basic_jsonINS_3mapENS_6vectorENS_12basic_stringIcNS_11char_traitsIcEENS_9allocatorIcEEEEbxydSE_NS7_14adl_serializerENSA_IhNSE_IhEEEEEEEESN_SN_EENS_4pairIT2_T4_EESP_T3_SQ_, symObjAddr: 0x34108, symBinAddr: 0x100037C04, symSize: 0x64 }
  - { offsetInCU: 0x3104B, offset: 0x3104B, size: 0x8, addend: 0x0, symName: __ZNSt3__121__unwrap_and_dispatchB7v160006INS_10__overloadINS_11__move_loopINS_17_ClassicAlgPolicyEEENS_14__move_trivialEEENS_16reverse_iteratorIPPN8nlohmann16json_abi_v3_11_210basic_jsonINS_3mapENS_6vectorENS_12basic_stringIcNS_11char_traitsIcEENS_9allocatorIcEEEEbxydSG_NS9_14adl_serializerENSC_IhNSG_IhEEEEEEEESP_SP_Li0EEENS_4pairIT0_T2_EESR_T1_SS_, symObjAddr: 0x3416C, symBinAddr: 0x100037C68, symSize: 0x12C }
  - { offsetInCU: 0x310DB, offset: 0x310DB, size: 0x8, addend: 0x0, symName: __ZNSt3__114__unwrap_rangeB7v160006INS_16reverse_iteratorIPPN8nlohmann16json_abi_v3_11_210basic_jsonINS_3mapENS_6vectorENS_12basic_stringIcNS_11char_traitsIcEENS_9allocatorIcEEEEbxydSA_NS3_14adl_serializerENS6_IhNSA_IhEEEEEEEESJ_EENS_4pairIT0_SL_EET_SN_, symObjAddr: 0x34298, symBinAddr: 0x100037D94, symSize: 0x84 }
  - { offsetInCU: 0x311FB, offset: 0x311FB, size: 0x8, addend: 0x0, symName: __ZNSt3__113__unwrap_iterB7v160006INS_16reverse_iteratorIPPN8nlohmann16json_abi_v3_11_210basic_jsonINS_3mapENS_6vectorENS_12basic_stringIcNS_11char_traitsIcEENS_9allocatorIcEEEEbxydSA_NS3_14adl_serializerENS6_IhNSA_IhEEEEEEEENS_18__unwrap_iter_implISJ_Lb0EEELi0EEEDTclsrT0_8__unwrapclsr3stdE7declvalIT_EEEESN_, symObjAddr: 0x343BC, symBinAddr: 0x100037EB8, symSize: 0x44 }
  - { offsetInCU: 0x3123F, offset: 0x3123F, size: 0x8, addend: 0x0, symName: __ZNSt3__19make_pairB7v160006INS_16reverse_iteratorIPPN8nlohmann16json_abi_v3_11_210basic_jsonINS_3mapENS_6vectorENS_12basic_stringIcNS_11char_traitsIcEENS_9allocatorIcEEEEbxydSA_NS3_14adl_serializerENS6_IhNSA_IhEEEEEEEESJ_EENS_4pairINS_18__unwrap_ref_decayIT_E4typeENSL_IT0_E4typeEEEOSM_OSP_, symObjAddr: 0x34400, symBinAddr: 0x100037EFC, symSize: 0x38 }
  - { offsetInCU: 0x3128E, offset: 0x3128E, size: 0x8, addend: 0x0, symName: __ZNSt3__114__rewrap_rangeB7v160006INS_16reverse_iteratorIPPN8nlohmann16json_abi_v3_11_210basic_jsonINS_3mapENS_6vectorENS_12basic_stringIcNS_11char_traitsIcEENS_9allocatorIcEEEEbxydSA_NS3_14adl_serializerENS6_IhNSA_IhEEEEEEEESJ_EET_SK_T0_, symObjAddr: 0x34438, symBinAddr: 0x100037F34, symSize: 0x5C }
  - { offsetInCU: 0x312DA, offset: 0x312DA, size: 0x8, addend: 0x0, symName: __ZNSt3__113__rewrap_iterB7v160006INS_16reverse_iteratorIPPN8nlohmann16json_abi_v3_11_210basic_jsonINS_3mapENS_6vectorENS_12basic_stringIcNS_11char_traitsIcEENS_9allocatorIcEEEEbxydSA_NS3_14adl_serializerENS6_IhNSA_IhEEEEEEEESJ_NS_18__unwrap_iter_implISJ_Lb0EEEEET_SM_T0_, symObjAddr: 0x34494, symBinAddr: 0x100037F90, symSize: 0x74 }
  - { offsetInCU: 0x3132F, offset: 0x3132F, size: 0x8, addend: 0x0, symName: __ZNSt3__1neB7v160006IPPN8nlohmann16json_abi_v3_11_210basic_jsonINS_3mapENS_6vectorENS_12basic_stringIcNS_11char_traitsIcEENS_9allocatorIcEEEEbxydS9_NS2_14adl_serializerENS5_IhNS9_IhEEEEEESH_EEbRKNS_16reverse_iteratorIT_EERKNSI_IT0_EE, symObjAddr: 0x34508, symBinAddr: 0x100038004, symSize: 0x48 }
  - { offsetInCU: 0x313E7, offset: 0x313E7, size: 0x8, addend: 0x0, symName: __ZNSt3__1neB7v160006IPN8nlohmann16json_abi_v3_11_210basic_jsonINS_3mapENS_6vectorENS_12basic_stringIcNS_11char_traitsIcEENS_9allocatorIcEEEEbxydS9_NS2_14adl_serializerENS5_IhNS9_IhEEEEEEEEbRKNS_11__wrap_iterIT_EESL_, symObjAddr: 0x3556C, symBinAddr: 0x100039068, symSize: 0x34 }
  - { offsetInCU: 0x3145D, offset: 0x3145D, size: 0x8, addend: 0x0, symName: __ZNSt3__1eqB7v160006IPN8nlohmann16json_abi_v3_11_210basic_jsonINS_3mapENS_6vectorENS_12basic_stringIcNS_11char_traitsIcEENS_9allocatorIcEEEEbxydS9_NS2_14adl_serializerENS5_IhNS9_IhEEEEEEEEbRKNS_11__wrap_iterIT_EESL_, symObjAddr: 0x3574C, symBinAddr: 0x100039248, symSize: 0x48 }
  - { offsetInCU: 0x314A1, offset: 0x314A1, size: 0x8, addend: 0x0, symName: __ZNSt3__113__tree_removeB7v160006IPNS_16__tree_node_baseIPvEEEEvT_S5_, symObjAddr: 0x35F18, symBinAddr: 0x100039A14, symSize: 0x6E0 }
  - { offsetInCU: 0x3151E, offset: 0x3151E, size: 0x8, addend: 0x0, symName: __ZNSt3__111__tree_nextB7v160006IPNS_16__tree_node_baseIPvEEEET_S5_, symObjAddr: 0x36618, symBinAddr: 0x10003A114, symSize: 0x80 }
  - { offsetInCU: 0x31553, offset: 0x31553, size: 0x8, addend: 0x0, symName: __ZNSt3__1miB7v160006IPKN8nlohmann16json_abi_v3_11_210basic_jsonINS_3mapENS_6vectorENS_12basic_stringIcNS_11char_traitsIcEENS_9allocatorIcEEEEbxydS9_NS2_14adl_serializerENS5_IhNS9_IhEEEEEESH_EEDTmicldtfp_4baseEcldtfp0_4baseEERKNS_11__wrap_iterIT_EERKNSJ_IT0_EE, symObjAddr: 0x366B8, symBinAddr: 0x10003A1B4, symSize: 0x48 }
  - { offsetInCU: 0x3159F, offset: 0x3159F, size: 0x8, addend: 0x0, symName: __ZNSt3__14moveB7v160006IPN8nlohmann16json_abi_v3_11_210basic_jsonINS_3mapENS_6vectorENS_12basic_stringIcNS_11char_traitsIcEENS_9allocatorIcEEEEbxydS9_NS2_14adl_serializerENS5_IhNS9_IhEEEEEESG_EET0_T_SI_SH_, symObjAddr: 0x3672C, symBinAddr: 0x10003A228, symSize: 0x40 }
  - { offsetInCU: 0x315F9, offset: 0x315F9, size: 0x8, addend: 0x0, symName: __ZNSt3__16__moveB7v160006INS_17_ClassicAlgPolicyEPN8nlohmann16json_abi_v3_11_210basic_jsonINS_3mapENS_6vectorENS_12basic_stringIcNS_11char_traitsIcEENS_9allocatorIcEEEEbxydSA_NS3_14adl_serializerENS6_IhNSA_IhEEEEEESH_SH_EENS_4pairIT0_T2_EESJ_T1_SK_, symObjAddr: 0x36848, symBinAddr: 0x10003A344, symSize: 0x44 }
  - { offsetInCU: 0x31665, offset: 0x31665, size: 0x8, addend: 0x0, symName: __ZNSt3__123__dispatch_copy_or_moveB7v160006INS_17_ClassicAlgPolicyENS_11__move_loopIS1_EENS_14__move_trivialEPN8nlohmann16json_abi_v3_11_210basic_jsonINS_3mapENS_6vectorENS_12basic_stringIcNS_11char_traitsIcEENS_9allocatorIcEEEEbxydSD_NS6_14adl_serializerENS9_IhNSD_IhEEEEEESK_SK_EENS_4pairIT2_T4_EESM_T3_SN_, symObjAddr: 0x3688C, symBinAddr: 0x10003A388, symSize: 0x44 }
  - { offsetInCU: 0x316E3, offset: 0x316E3, size: 0x8, addend: 0x0, symName: __ZNSt3__121__unwrap_and_dispatchB7v160006INS_10__overloadINS_11__move_loopINS_17_ClassicAlgPolicyEEENS_14__move_trivialEEEPN8nlohmann16json_abi_v3_11_210basic_jsonINS_3mapENS_6vectorENS_12basic_stringIcNS_11char_traitsIcEENS_9allocatorIcEEEEbxydSF_NS8_14adl_serializerENSB_IhNSF_IhEEEEEESM_SM_Li0EEENS_4pairIT0_T2_EESO_T1_SP_, symObjAddr: 0x368D0, symBinAddr: 0x10003A3CC, symSize: 0xB4 }
  - { offsetInCU: 0x31771, offset: 0x31771, size: 0x8, addend: 0x0, symName: __ZNSt3__114__unwrap_rangeB7v160006IPN8nlohmann16json_abi_v3_11_210basic_jsonINS_3mapENS_6vectorENS_12basic_stringIcNS_11char_traitsIcEENS_9allocatorIcEEEEbxydS9_NS2_14adl_serializerENS5_IhNS9_IhEEEEEESG_EENS_4pairIT0_SI_EET_SK_, symObjAddr: 0x36984, symBinAddr: 0x10003A480, symSize: 0x60 }
  - { offsetInCU: 0x317BD, offset: 0x317BD, size: 0x8, addend: 0x0, symName: __ZNSt3__113__unwrap_iterB7v160006IPN8nlohmann16json_abi_v3_11_210basic_jsonINS_3mapENS_6vectorENS_12basic_stringIcNS_11char_traitsIcEENS_9allocatorIcEEEEbxydS9_NS2_14adl_serializerENS5_IhNS9_IhEEEEEENS_18__unwrap_iter_implISG_Lb1EEELi0EEEDTclsrT0_8__unwrapclsr3stdE7declvalIT_EEEESK_, symObjAddr: 0x36A8C, symBinAddr: 0x10003A588, symSize: 0x24 }
  - { offsetInCU: 0x31801, offset: 0x31801, size: 0x8, addend: 0x0, symName: __ZNSt3__114__rewrap_rangeB7v160006IPN8nlohmann16json_abi_v3_11_210basic_jsonINS_3mapENS_6vectorENS_12basic_stringIcNS_11char_traitsIcEENS_9allocatorIcEEEEbxydS9_NS2_14adl_serializerENS5_IhNS9_IhEEEEEESG_EET_SH_T0_, symObjAddr: 0x36AB0, symBinAddr: 0x10003A5AC, symSize: 0x2C }
  - { offsetInCU: 0x3184D, offset: 0x3184D, size: 0x8, addend: 0x0, symName: __ZNSt3__113__rewrap_iterB7v160006IPN8nlohmann16json_abi_v3_11_210basic_jsonINS_3mapENS_6vectorENS_12basic_stringIcNS_11char_traitsIcEENS_9allocatorIcEEEEbxydS9_NS2_14adl_serializerENS5_IhNS9_IhEEEEEESG_NS_18__unwrap_iter_implISG_Lb1EEEEET_SJ_T0_, symObjAddr: 0x36ADC, symBinAddr: 0x10003A5D8, symSize: 0x3C }
  - { offsetInCU: 0x318F6, offset: 0x318F6, size: 0x8, addend: 0x0, symName: __ZNSt3__121__convert_to_integralB7v160006Ei, symObjAddr: 0x36E78, symBinAddr: 0x10003A974, symSize: 0x14 }
  - { offsetInCU: 0x31922, offset: 0x31922, size: 0x8, addend: 0x0, symName: __ZNSt3__19__advanceB7v160006INS_14__map_iteratorINS_15__tree_iteratorINS_12__value_typeINS_12basic_stringIcNS_11char_traitsIcEENS_9allocatorIcEEEEN8nlohmann16json_abi_v3_11_210basic_jsonINS_3mapENS_6vectorES9_bxydS7_NSB_14adl_serializerENSE_IhNS7_IhEEEEEEEEPNS_11__tree_nodeISJ_PvEElEEEEEEvRT_NS_15iterator_traitsISQ_E15difference_typeENS_26bidirectional_iterator_tagE, symObjAddr: 0x36E8C, symBinAddr: 0x10003A988, symSize: 0xA4 }
  - { offsetInCU: 0x3196C, offset: 0x3196C, size: 0x8, addend: 0x0, symName: __ZNSt3__19__advanceB7v160006INS_11__wrap_iterIPN8nlohmann16json_abi_v3_11_210basic_jsonINS_3mapENS_6vectorENS_12basic_stringIcNS_11char_traitsIcEENS_9allocatorIcEEEEbxydSA_NS3_14adl_serializerENS6_IhNSA_IhEEEEEEEEEEvRT_NS_15iterator_traitsISJ_E15difference_typeENS_26random_access_iterator_tagE, symObjAddr: 0x36F94, symBinAddr: 0x10003AA90, symSize: 0x2C }
  - { offsetInCU: 0x31CF6, offset: 0x31CF6, size: 0x8, addend: 0x0, symName: __ZNSt3__1neB7v160006INS_12basic_stringIcNS_11char_traitsIcEENS_9allocatorIcEEEEZN8nlohmann16json_abi_v3_11_210basic_jsonINS_3mapENS_6vectorES6_bxydS4_NS8_14adl_serializerENSB_IhNS4_IhEEEEE6createIS6_JRKS6_EEEPT_DpOT0_EUlPS6_E_EEbRKNS_10unique_ptrISJ_T0_EEDn, symObjAddr: 0x373BC, symBinAddr: 0x10003AEB8, symSize: 0x2C }
  - { offsetInCU: 0x31D42, offset: 0x31D42, size: 0x8, addend: 0x0, symName: __ZNSt3__116forward_as_tupleB7v160006IJRKNS_12basic_stringIcNS_11char_traitsIcEENS_9allocatorIcEEEEEEENS_5tupleIJDpOT_EEESC_, symObjAddr: 0x37814, symBinAddr: 0x10003B310, symSize: 0x2C }
  - { offsetInCU: 0x31D7B, offset: 0x31D7B, size: 0x8, addend: 0x0, symName: __ZNSt3__1ltB7v160006IcNS_11char_traitsIcEENS_9allocatorIcEEEEbRKNS_12basic_stringIT_T0_T1_EESB_, symObjAddr: 0x37DE0, symBinAddr: 0x10003B8DC, symSize: 0x38 }
  - { offsetInCU: 0x31DF7, offset: 0x31DF7, size: 0x8, addend: 0x0, symName: __ZNSt3__118__constexpr_memcmpB7v160006IcEEiPKT_S3_m, symObjAddr: 0x3807C, symBinAddr: 0x10003BB78, symSize: 0x34 }
  - { offsetInCU: 0x31E66, offset: 0x31E66, size: 0x8, addend: 0x0, symName: __ZNSt3__13getB7v160006ILm0EJRKNS_12basic_stringIcNS_11char_traitsIcEENS_9allocatorIcEEEEEEERNS_13tuple_elementIXT_ENS_5tupleIJDpT0_EEEE4typeERSD_, symObjAddr: 0x38534, symBinAddr: 0x10003C030, symSize: 0x24 }
  - { offsetInCU: 0x31EBE, offset: 0x31EBE, size: 0x8, addend: 0x0, symName: __ZNSt3__1neB7v160006IPKcEEbRKNS_11__wrap_iterIT_EES7_, symObjAddr: 0x3B21C, symBinAddr: 0x10003ED18, symSize: 0x34 }
  - { offsetInCU: 0x321C4, offset: 0x321C4, size: 0x8, addend: 0x0, symName: __ZNSt3__1eqB7v160006IPKcEEbRKNS_11__wrap_iterIT_EES7_, symObjAddr: 0x3B370, symBinAddr: 0x10003EE6C, symSize: 0x48 }
  - { offsetInCU: 0x32208, offset: 0x32208, size: 0x8, addend: 0x0, symName: __ZNSt3__118__debug_db_erase_cB7v160006INS_6vectorIiNS_9allocatorIiEEEEEEvPT_, symObjAddr: 0x3ED38, symBinAddr: 0x100042834, symSize: 0x10 }
  - { offsetInCU: 0x32239, offset: 0x32239, size: 0x8, addend: 0x0, symName: __ZNSt3__112__to_addressB7v160006IiEEPT_S2_, symObjAddr: 0x3EE2C, symBinAddr: 0x100042928, symSize: 0x14 }
  - { offsetInCU: 0x3226E, offset: 0x3226E, size: 0x8, addend: 0x0, symName: __ZNSt3__116__pad_and_outputB7v160006IcNS_11char_traitsIcEEEENS_19ostreambuf_iteratorIT_T0_EES6_PKS4_S8_S8_RNS_8ios_baseES4_, symObjAddr: 0x3F1B4, symBinAddr: 0x100042CB0, symSize: 0x240 }
  - { offsetInCU: 0x3233D, offset: 0x3233D, size: 0x8, addend: 0x0, symName: __ZNSt3__19use_facetB7v160006INS_5ctypeIcEEEERKT_RKNS_6localeE, symObjAddr: 0x3F6B0, symBinAddr: 0x1000431AC, symSize: 0x2C }
  - { offsetInCU: 0x3271D, offset: 0x3271D, size: 0x8, addend: 0x0, symName: __ZNSt3__17getlineB7v160006IcNS_11char_traitsIcEENS_9allocatorIcEEEERNS_13basic_istreamIT_T0_EES9_RNS_12basic_stringIS6_S7_T1_EES6_, symObjAddr: 0x3F714, symBinAddr: 0x100043210, symSize: 0x234 }
  - { offsetInCU: 0x327DB, offset: 0x327DB, size: 0x8, addend: 0x0, symName: __ZNSt3__119__allocate_at_leastB7v160006INS_9allocatorIiEEEENS_19__allocation_resultINS_16allocator_traitsIT_E7pointerEEERS5_m, symObjAddr: 0x40264, symBinAddr: 0x100043D60, symSize: 0x40 }
  - { offsetInCU: 0x3281E, offset: 0x3281E, size: 0x8, addend: 0x0, symName: __ZNSt3__142__uninitialized_allocator_move_if_noexceptB7v160006INS_9allocatorIiEENS_16reverse_iteratorIPiEES5_ivEET1_RT_T0_S9_S6_, symObjAddr: 0x40418, symBinAddr: 0x100043F14, symSize: 0x78 }
  - { offsetInCU: 0x3289D, offset: 0x3289D, size: 0x8, addend: 0x0, symName: __ZNSt3__14swapB7v160006IPiEENS_9enable_ifIXaasr21is_move_constructibleIT_EE5valuesr18is_move_assignableIS3_EE5valueEvE4typeERS3_S6_, symObjAddr: 0x404DC, symBinAddr: 0x100043FD8, symSize: 0x3C }
  - { offsetInCU: 0x328EF, offset: 0x328EF, size: 0x8, addend: 0x0, symName: __ZNSt3__125__debug_db_invalidate_allB7v160006INS_6vectorIiNS_9allocatorIiEEEEEEvPT_, symObjAddr: 0x405C4, symBinAddr: 0x1000440C0, symSize: 0x10 }
  - { offsetInCU: 0x3291F, offset: 0x3291F, size: 0x8, addend: 0x0, symName: __ZNSt3__14moveB7v160006INS_16reverse_iteratorIPiEES3_EET0_T_S5_S4_, symObjAddr: 0x405D4, symBinAddr: 0x1000440D0, symSize: 0x78 }
  - { offsetInCU: 0x32979, offset: 0x32979, size: 0x8, addend: 0x0, symName: __ZNSt3__16__moveB7v160006INS_17_ClassicAlgPolicyENS_16reverse_iteratorIPiEES4_S4_EENS_4pairIT0_T2_EES6_T1_S7_, symObjAddr: 0x4064C, symBinAddr: 0x100044148, symSize: 0x64 }
  - { offsetInCU: 0x329E5, offset: 0x329E5, size: 0x8, addend: 0x0, symName: __ZNSt3__123__dispatch_copy_or_moveB7v160006INS_17_ClassicAlgPolicyENS_11__move_loopIS1_EENS_14__move_trivialENS_16reverse_iteratorIPiEES7_S7_EENS_4pairIT2_T4_EES9_T3_SA_, symObjAddr: 0x406B0, symBinAddr: 0x1000441AC, symSize: 0x64 }
  - { offsetInCU: 0x32A63, offset: 0x32A63, size: 0x8, addend: 0x0, symName: __ZNSt3__121__unwrap_and_dispatchB7v160006INS_10__overloadINS_11__move_loopINS_17_ClassicAlgPolicyEEENS_14__move_trivialEEENS_16reverse_iteratorIPiEES9_S9_Li0EEENS_4pairIT0_T2_EESB_T1_SC_, symObjAddr: 0x40714, symBinAddr: 0x100044210, symSize: 0x12C }
  - { offsetInCU: 0x32AF3, offset: 0x32AF3, size: 0x8, addend: 0x0, symName: __ZNSt3__114__unwrap_rangeB7v160006INS_16reverse_iteratorIPiEES3_EENS_4pairIT0_S5_EET_S7_, symObjAddr: 0x40840, symBinAddr: 0x10004433C, symSize: 0x84 }
  - { offsetInCU: 0x32C13, offset: 0x32C13, size: 0x8, addend: 0x0, symName: __ZNSt3__113__unwrap_iterB7v160006INS_16reverse_iteratorIPiEENS_18__unwrap_iter_implIS3_Lb0EEELi0EEEDTclsrT0_8__unwrapclsr3stdE7declvalIT_EEEES7_, symObjAddr: 0x40964, symBinAddr: 0x100044460, symSize: 0x44 }
  - { offsetInCU: 0x32C57, offset: 0x32C57, size: 0x8, addend: 0x0, symName: __ZNSt3__19make_pairB7v160006INS_16reverse_iteratorIPiEES3_EENS_4pairINS_18__unwrap_ref_decayIT_E4typeENS5_IT0_E4typeEEEOS6_OS9_, symObjAddr: 0x409A8, symBinAddr: 0x1000444A4, symSize: 0x38 }
  - { offsetInCU: 0x32CA6, offset: 0x32CA6, size: 0x8, addend: 0x0, symName: __ZNSt3__114__rewrap_rangeB7v160006INS_16reverse_iteratorIPiEES3_EET_S4_T0_, symObjAddr: 0x409E0, symBinAddr: 0x1000444DC, symSize: 0x5C }
  - { offsetInCU: 0x32CF2, offset: 0x32CF2, size: 0x8, addend: 0x0, symName: __ZNSt3__113__rewrap_iterB7v160006INS_16reverse_iteratorIPiEES3_NS_18__unwrap_iter_implIS3_Lb0EEEEET_S6_T0_, symObjAddr: 0x40A3C, symBinAddr: 0x100044538, symSize: 0x74 }
  - { offsetInCU: 0x32D47, offset: 0x32D47, size: 0x8, addend: 0x0, symName: __ZNSt3__1neB7v160006IPiS1_EEbRKNS_16reverse_iteratorIT_EERKNS2_IT0_EE, symObjAddr: 0x40AB0, symBinAddr: 0x1000445AC, symSize: 0x48 }
  - { offsetInCU: 0x32E23, offset: 0x32E23, size: 0x8, addend: 0x0, symName: __ZNSt3__130__uninitialized_allocator_copyB7v160006INS_9allocatorINS_12basic_stringIcNS_11char_traitsIcEENS1_IcEEEEEEPKS6_S9_PS6_EET2_RT_T0_T1_SB_, symObjAddr: 0x41654, symBinAddr: 0x100045150, symSize: 0xF4 }
  - { offsetInCU: 0x32EC1, offset: 0x32EC1, size: 0x8, addend: 0x0, symName: __ZNSt3__122__make_exception_guardB7v160006INS_6vectorIiNS_9allocatorIiEEE16__destroy_vectorEEENS_28__exception_guard_exceptionsIT_EES7_, symObjAddr: 0x41870, symBinAddr: 0x10004536C, symSize: 0x40 }
  - { offsetInCU: 0x32EF6, offset: 0x32EF6, size: 0x8, addend: 0x0, symName: __ZNSt3__130__uninitialized_allocator_copyB7v160006INS_9allocatorIiEEiiLPv0EEEPT0_RT_PKS4_S9_S5_, symObjAddr: 0x41A88, symBinAddr: 0x100045584, symSize: 0x38 }
  - { offsetInCU: 0x32F6F, offset: 0x32F6F, size: 0x8, addend: 0x0, symName: __ZNSt3__14copyB7v160006IPKiPiEET0_T_S5_S4_, symObjAddr: 0x41AC0, symBinAddr: 0x1000455BC, symSize: 0x40 }
  - { offsetInCU: 0x32FC9, offset: 0x32FC9, size: 0x8, addend: 0x0, symName: __ZNSt3__16__copyB7v160006INS_17_ClassicAlgPolicyEPKiS3_PiEENS_4pairIT0_T2_EES6_T1_S7_, symObjAddr: 0x41B00, symBinAddr: 0x1000455FC, symSize: 0x44 }
  - { offsetInCU: 0x33035, offset: 0x33035, size: 0x8, addend: 0x0, symName: __ZNSt3__123__dispatch_copy_or_moveB7v160006INS_17_ClassicAlgPolicyENS_11__copy_loopIS1_EENS_14__copy_trivialEPKiS6_PiEENS_4pairIT2_T4_EES9_T3_SA_, symObjAddr: 0x41B44, symBinAddr: 0x100045640, symSize: 0x44 }
  - { offsetInCU: 0x330B3, offset: 0x330B3, size: 0x8, addend: 0x0, symName: __ZNSt3__121__unwrap_and_dispatchB7v160006INS_10__overloadINS_11__copy_loopINS_17_ClassicAlgPolicyEEENS_14__copy_trivialEEEPKiS8_PiLi0EEENS_4pairIT0_T2_EESB_T1_SC_, symObjAddr: 0x41B88, symBinAddr: 0x100045684, symSize: 0xB4 }
  - { offsetInCU: 0x33141, offset: 0x33141, size: 0x8, addend: 0x0, symName: __ZNSt3__114__unwrap_rangeB7v160006IPKiS2_EENS_4pairIT0_S4_EET_S6_, symObjAddr: 0x41C3C, symBinAddr: 0x100045738, symSize: 0x60 }
  - { offsetInCU: 0x33290, offset: 0x33290, size: 0x8, addend: 0x0, symName: __ZNSt3__113__unwrap_iterB7v160006IPiNS_18__unwrap_iter_implIS1_Lb1EEELi0EEEDTclsrT0_8__unwrapclsr3stdE7declvalIT_EEEES5_, symObjAddr: 0x41CE4, symBinAddr: 0x1000457E0, symSize: 0x24 }
  - { offsetInCU: 0x332D4, offset: 0x332D4, size: 0x8, addend: 0x0, symName: __ZNSt3__19make_pairB7v160006IPKiPiEENS_4pairINS_18__unwrap_ref_decayIT_E4typeENS5_IT0_E4typeEEEOS6_OS9_, symObjAddr: 0x41D08, symBinAddr: 0x100045804, symSize: 0x38 }
  - { offsetInCU: 0x33323, offset: 0x33323, size: 0x8, addend: 0x0, symName: __ZNSt3__114__rewrap_rangeB7v160006IPKiS2_EET_S3_T0_, symObjAddr: 0x41D40, symBinAddr: 0x10004583C, symSize: 0x2C }
  - { offsetInCU: 0x3336F, offset: 0x3336F, size: 0x8, addend: 0x0, symName: __ZNSt3__113__rewrap_iterB7v160006IPiS1_NS_18__unwrap_iter_implIS1_Lb1EEEEET_S4_T0_, symObjAddr: 0x41D6C, symBinAddr: 0x100045868, symSize: 0x3C }
  - { offsetInCU: 0x333C4, offset: 0x333C4, size: 0x8, addend: 0x0, symName: __ZNSt3__19make_pairB7v160006IPKiS2_EENS_4pairINS_18__unwrap_ref_decayIT_E4typeENS4_IT0_E4typeEEEOS5_OS8_, symObjAddr: 0x41DA8, symBinAddr: 0x1000458A4, symSize: 0x38 }
  - { offsetInCU: 0x33413, offset: 0x33413, size: 0x8, addend: 0x0, symName: __ZNSt3__113__unwrap_iterB7v160006IPKiNS_18__unwrap_iter_implIS2_Lb1EEELi0EEEDTclsrT0_8__unwrapclsr3stdE7declvalIT_EEEES6_, symObjAddr: 0x41DE0, symBinAddr: 0x1000458DC, symSize: 0x24 }
  - { offsetInCU: 0x3357F, offset: 0x3357F, size: 0x8, addend: 0x0, symName: __ZNSt3__112__to_addressB7v160006IKiEEPT_S3_, symObjAddr: 0x41E98, symBinAddr: 0x100045994, symSize: 0x14 }
  - { offsetInCU: 0x335B4, offset: 0x335B4, size: 0x8, addend: 0x0, symName: __ZNSt3__119__copy_trivial_implB7v160006IKiiEENS_4pairIPT_PT0_EES4_S4_S6_, symObjAddr: 0x41EAC, symBinAddr: 0x1000459A8, symSize: 0x84 }
  - { offsetInCU: 0x3361C, offset: 0x3361C, size: 0x8, addend: 0x0, symName: __ZNSt3__19make_pairB7v160006IRPKiPiEENS_4pairINS_18__unwrap_ref_decayIT_E4typeENS6_IT0_E4typeEEEOS7_OSA_, symObjAddr: 0x41F30, symBinAddr: 0x100045A2C, symSize: 0x38 }
  - { offsetInCU: 0x336BE, offset: 0x336BE, size: 0x8, addend: 0x0, symName: __ZNSt3__113__rewrap_iterB7v160006IPKiS2_NS_18__unwrap_iter_implIS2_Lb1EEEEET_S5_T0_, symObjAddr: 0x4206C, symBinAddr: 0x100045B68, symSize: 0x3C }
  - { offsetInCU: 0x33713, offset: 0x33713, size: 0x8, addend: 0x0, symName: __ZNSt3__130__uninitialized_allocator_copyB7v160006INS_9allocatorIiEEPiS3_S3_EET2_RT_T0_T1_S4_, symObjAddr: 0x42344, symBinAddr: 0x100045E40, symSize: 0xF4 }
  - { offsetInCU: 0x337B1, offset: 0x337B1, size: 0x8, addend: 0x0, symName: __ZNSt3__122__make_exception_guardB7v160006INS_29_AllocatorDestroyRangeReverseINS_9allocatorIiEEPiEEEENS_28__exception_guard_exceptionsIT_EES7_, symObjAddr: 0x42438, symBinAddr: 0x100045F34, symSize: 0x4C }
  - { offsetInCU: 0x337E8, offset: 0x337E8, size: 0x8, addend: 0x0, symName: __ZNSt3__119__allocator_destroyB7v160006INS_9allocatorIiEENS_16reverse_iteratorIPiEES5_EEvRT_T0_T1_, symObjAddr: 0x426C0, symBinAddr: 0x1000461BC, symSize: 0x70 }
  - { offsetInCU: 0x3384A, offset: 0x3384A, size: 0x8, addend: 0x0, symName: __ZNSt3__112__to_addressB7v160006INS_16reverse_iteratorIPiEEvEENS_5decayIDTclsr19__to_address_helperIT_EE6__callclsr3stdE7declvalIRKS5_EEEEE4typeES7_, symObjAddr: 0x42730, symBinAddr: 0x10004622C, symSize: 0x24 }
  - { offsetInCU: 0x338AA, offset: 0x338AA, size: 0x8, addend: 0x0, symName: __ZNSt3__15beginB7v160006INS_6vectorINS_12basic_stringIcNS_11char_traitsIcEENS_9allocatorIcEEEENS5_IS7_EEEEEEDTcldtfp_5beginEERKT_, symObjAddr: 0x42DEC, symBinAddr: 0x1000468E8, symSize: 0x2C }
  - { offsetInCU: 0x338DF, offset: 0x338DF, size: 0x8, addend: 0x0, symName: __ZNSt3__13endB7v160006INS_6vectorINS_12basic_stringIcNS_11char_traitsIcEENS_9allocatorIcEEEENS5_IS7_EEEEEEDTcldtfp_3endEERKT_, symObjAddr: 0x42E18, symBinAddr: 0x100046914, symSize: 0x2C }
  - { offsetInCU: 0x33C54, offset: 0x33C54, size: 0x8, addend: 0x0, symName: __ZNSt3__1neB7v160006INS_6vectorIN8nlohmann16json_abi_v3_11_210basic_jsonINS_3mapES1_NS_12basic_stringIcNS_11char_traitsIcEENS_9allocatorIcEEEEbxydS9_NS3_14adl_serializerENS1_IhNS9_IhEEEEEENS9_ISF_EEEEZNSF_6createISH_JNS_11__wrap_iterIPKSB_EESM_EEEPT_DpOT0_EUlPSH_E_EEbRKNS_10unique_ptrISN_T0_EEDn, symObjAddr: 0x42EE4, symBinAddr: 0x1000469E0, symSize: 0x2C }
  - { offsetInCU: 0x33CA0, offset: 0x33CA0, size: 0x8, addend: 0x0, symName: __ZNSt3__122__make_exception_guardB7v160006INS_6vectorIN8nlohmann16json_abi_v3_11_210basic_jsonINS_3mapES1_NS_12basic_stringIcNS_11char_traitsIcEENS_9allocatorIcEEEEbxydS9_NS3_14adl_serializerENS1_IhNS9_IhEEEEEENS9_ISF_EEE16__destroy_vectorEEENS_28__exception_guard_exceptionsIT_EESK_, symObjAddr: 0x43220, symBinAddr: 0x100046D1C, symSize: 0x40 }
  - { offsetInCU: 0x33CD5, offset: 0x33CD5, size: 0x8, addend: 0x0, symName: __ZNSt3__18distanceB7v160006INS_11__wrap_iterIPKNS_12basic_stringIcNS_11char_traitsIcEENS_9allocatorIcEEEEEEEENS_15iterator_traitsIT_E15difference_typeESC_SC_, symObjAddr: 0x43260, symBinAddr: 0x100046D5C, symSize: 0x3C }
  - { offsetInCU: 0x33D18, offset: 0x33D18, size: 0x8, addend: 0x0, symName: __ZNSt3__110__distanceB7v160006INS_11__wrap_iterIPKNS_12basic_stringIcNS_11char_traitsIcEENS_9allocatorIcEEEEEEEENS_15iterator_traitsIT_E15difference_typeESC_SC_NS_26random_access_iterator_tagE, symObjAddr: 0x43484, symBinAddr: 0x100046F80, symSize: 0x30 }
  - { offsetInCU: 0x33D66, offset: 0x33D66, size: 0x8, addend: 0x0, symName: __ZNSt3__1miB7v160006IPKNS_12basic_stringIcNS_11char_traitsIcEENS_9allocatorIcEEEES8_EEDTmicldtfp_4baseEcldtfp0_4baseEERKNS_11__wrap_iterIT_EERKNSA_IT0_EE, symObjAddr: 0x434B4, symBinAddr: 0x100046FB0, symSize: 0x48 }
  - { offsetInCU: 0x33DB2, offset: 0x33DB2, size: 0x8, addend: 0x0, symName: __ZNSt3__130__uninitialized_allocator_copyB7v160006INS_9allocatorIN8nlohmann16json_abi_v3_11_210basic_jsonINS_3mapENS_6vectorENS_12basic_stringIcNS_11char_traitsIcEENS1_IcEEEEbxydS1_NS3_14adl_serializerENS6_IhNS1_IhEEEEEEEENS_11__wrap_iterIPKSB_EESK_PSF_EET2_RT_T0_T1_SM_, symObjAddr: 0x43514, symBinAddr: 0x100047010, symSize: 0xF8 }
  - { offsetInCU: 0x33E50, offset: 0x33E50, size: 0x8, addend: 0x0, symName: __ZNSt3__122__make_exception_guardB7v160006INS_29_AllocatorDestroyRangeReverseINS_9allocatorIN8nlohmann16json_abi_v3_11_210basic_jsonINS_3mapENS_6vectorENS_12basic_stringIcNS_11char_traitsIcEENS2_IcEEEEbxydS2_NS4_14adl_serializerENS7_IhNS2_IhEEEEEEEEPSG_EEEENS_28__exception_guard_exceptionsIT_EESL_, symObjAddr: 0x4360C, symBinAddr: 0x100047108, symSize: 0x4C }
  - { offsetInCU: 0x33E86, offset: 0x33E86, size: 0x8, addend: 0x0, symName: __ZNSt3__1neB7v160006IPKNS_12basic_stringIcNS_11char_traitsIcEENS_9allocatorIcEEEEEEbRKNS_11__wrap_iterIT_EESD_, symObjAddr: 0x4369C, symBinAddr: 0x100047198, symSize: 0x34 }
  - { offsetInCU: 0x33EC9, offset: 0x33EC9, size: 0x8, addend: 0x0, symName: __ZNSt3__1eqB7v160006IPKNS_12basic_stringIcNS_11char_traitsIcEENS_9allocatorIcEEEEEEbRKNS_11__wrap_iterIT_EESD_, symObjAddr: 0x43820, symBinAddr: 0x10004731C, symSize: 0x48 }
  - { offsetInCU: 0x33F0D, offset: 0x33F0D, size: 0x8, addend: 0x0, symName: __ZNSt3__119__allocator_destroyB7v160006INS_9allocatorIN8nlohmann16json_abi_v3_11_210basic_jsonINS_3mapENS_6vectorENS_12basic_stringIcNS_11char_traitsIcEENS1_IcEEEEbxydS1_NS3_14adl_serializerENS6_IhNS1_IhEEEEEEEENS_16reverse_iteratorIPSF_EESJ_EEvRT_T0_T1_, symObjAddr: 0x43A3C, symBinAddr: 0x100047538, symSize: 0x70 }
  - { offsetInCU: 0x33F6F, offset: 0x33F6F, size: 0x8, addend: 0x0, symName: __ZNSt3__15beginB7v160006INS_6vectorIiNS_9allocatorIiEEEEEEDTcldtfp_5beginEERKT_, symObjAddr: 0x4437C, symBinAddr: 0x100047E78, symSize: 0x2C }
  - { offsetInCU: 0x33FA4, offset: 0x33FA4, size: 0x8, addend: 0x0, symName: __ZNSt3__13endB7v160006INS_6vectorIiNS_9allocatorIiEEEEEEDTcldtfp_3endEERKT_, symObjAddr: 0x443A8, symBinAddr: 0x100047EA4, symSize: 0x2C }
  - { offsetInCU: 0x34319, offset: 0x34319, size: 0x8, addend: 0x0, symName: __ZNSt3__1neB7v160006INS_6vectorIN8nlohmann16json_abi_v3_11_210basic_jsonINS_3mapES1_NS_12basic_stringIcNS_11char_traitsIcEENS_9allocatorIcEEEEbxydS9_NS3_14adl_serializerENS1_IhNS9_IhEEEEEENS9_ISF_EEEEZNSF_6createISH_JNS_11__wrap_iterIPKiEESM_EEEPT_DpOT0_EUlPSH_E_EEbRKNS_10unique_ptrISN_T0_EEDn, symObjAddr: 0x44474, symBinAddr: 0x100047F70, symSize: 0x2C }
  - { offsetInCU: 0x34365, offset: 0x34365, size: 0x8, addend: 0x0, symName: __ZNSt3__18distanceB7v160006INS_11__wrap_iterIPKiEEEENS_15iterator_traitsIT_E15difference_typeES6_S6_, symObjAddr: 0x447B0, symBinAddr: 0x1000482AC, symSize: 0x3C }
  - { offsetInCU: 0x343A8, offset: 0x343A8, size: 0x8, addend: 0x0, symName: __ZNSt3__110__distanceB7v160006INS_11__wrap_iterIPKiEEEENS_15iterator_traitsIT_E15difference_typeES6_S6_NS_26random_access_iterator_tagE, symObjAddr: 0x44888, symBinAddr: 0x100048384, symSize: 0x30 }
  - { offsetInCU: 0x343F6, offset: 0x343F6, size: 0x8, addend: 0x0, symName: __ZNSt3__1miB7v160006IPKiS2_EEDTmicldtfp_4baseEcldtfp0_4baseEERKNS_11__wrap_iterIT_EERKNS4_IT0_EE, symObjAddr: 0x448B8, symBinAddr: 0x1000483B4, symSize: 0x48 }
  - { offsetInCU: 0x34442, offset: 0x34442, size: 0x8, addend: 0x0, symName: __ZNSt3__130__uninitialized_allocator_copyB7v160006INS_9allocatorIN8nlohmann16json_abi_v3_11_210basic_jsonINS_3mapENS_6vectorENS_12basic_stringIcNS_11char_traitsIcEENS1_IcEEEEbxydS1_NS3_14adl_serializerENS6_IhNS1_IhEEEEEEEENS_11__wrap_iterIPKiEESK_PSF_EET2_RT_T0_T1_SM_, symObjAddr: 0x44918, symBinAddr: 0x100048414, symSize: 0xF8 }
  - { offsetInCU: 0x344E0, offset: 0x344E0, size: 0x8, addend: 0x0, symName: __ZNSt3__1neB7v160006IPKiEEbRKNS_11__wrap_iterIT_EES7_, symObjAddr: 0x44A10, symBinAddr: 0x10004850C, symSize: 0x34 }
  - { offsetInCU: 0x34523, offset: 0x34523, size: 0x8, addend: 0x0, symName: __ZNSt3__1eqB7v160006IPKiEEbRKNS_11__wrap_iterIT_EES7_, symObjAddr: 0x44AB0, symBinAddr: 0x1000485AC, symSize: 0x48 }
  - { offsetInCU: 0x34566, offset: 0x34566, size: 0x8, addend: 0x0, symName: __ZNSt3__16all_ofB7v160006IPKN8nlohmann16json_abi_v3_11_26detail8json_refINS2_10basic_jsonINS_3mapENS_6vectorENS_12basic_stringIcNS_11char_traitsIcEENS_9allocatorIcEEEEbxydSB_NS2_14adl_serializerENS7_IhNSB_IhEEEEEEEEZNSH_C1ESt16initializer_listISI_EbNS3_7value_tEEUlRSJ_E_EEbT_SQ_T0_, symObjAddr: 0x45234, symBinAddr: 0x100048D30, symSize: 0x94 }
  - { offsetInCU: 0x34900, offset: 0x34900, size: 0x8, addend: 0x0, symName: __ZNSt3__1neB7v160006INS_6vectorIN8nlohmann16json_abi_v3_11_210basic_jsonINS_3mapES1_NS_12basic_stringIcNS_11char_traitsIcEENS_9allocatorIcEEEEbxydS9_NS3_14adl_serializerENS1_IhNS9_IhEEEEEENS9_ISF_EEEEZNSF_6createISH_JPKNS3_6detail8json_refISF_EESN_EEEPT_DpOT0_EUlPSH_E_EEbRKNS_10unique_ptrISO_T0_EEDn, symObjAddr: 0x45E38, symBinAddr: 0x100049934, symSize: 0x2C }
  - { offsetInCU: 0x3494C, offset: 0x3494C, size: 0x8, addend: 0x0, symName: __ZNSt3__18distanceB7v160006IPKN8nlohmann16json_abi_v3_11_26detail8json_refINS2_10basic_jsonINS_3mapENS_6vectorENS_12basic_stringIcNS_11char_traitsIcEENS_9allocatorIcEEEEbxydSB_NS2_14adl_serializerENS7_IhNSB_IhEEEEEEEEEENS_15iterator_traitsIT_E15difference_typeESM_SM_, symObjAddr: 0x46144, symBinAddr: 0x100049C40, symSize: 0x2C }
  - { offsetInCU: 0x34990, offset: 0x34990, size: 0x8, addend: 0x0, symName: __ZNSt3__110__distanceB7v160006IPKN8nlohmann16json_abi_v3_11_26detail8json_refINS2_10basic_jsonINS_3mapENS_6vectorENS_12basic_stringIcNS_11char_traitsIcEENS_9allocatorIcEEEEbxydSB_NS2_14adl_serializerENS7_IhNSB_IhEEEEEEEEEENS_15iterator_traitsIT_E15difference_typeESM_SM_NS_26random_access_iterator_tagE, symObjAddr: 0x461FC, symBinAddr: 0x100049CF8, symSize: 0x28 }
  - { offsetInCU: 0x349DE, offset: 0x349DE, size: 0x8, addend: 0x0, symName: __ZNSt3__130__uninitialized_allocator_copyB7v160006INS_9allocatorIN8nlohmann16json_abi_v3_11_210basic_jsonINS_3mapENS_6vectorENS_12basic_stringIcNS_11char_traitsIcEENS1_IcEEEEbxydS1_NS3_14adl_serializerENS6_IhNS1_IhEEEEEEEEPKNS3_6detail8json_refISF_EESL_PSF_EET2_RT_T0_T1_SN_, symObjAddr: 0x46224, symBinAddr: 0x100049D20, symSize: 0xF4 }
  - { offsetInCU: 0x34A7D, offset: 0x34A7D, size: 0x8, addend: 0x0, symName: __ZNSt3__14swapB7v160006IN8nlohmann16json_abi_v3_11_26detail7value_tEEENS_9enable_ifIXaasr21is_move_constructibleIT_EE5valuesr18is_move_assignableIS6_EE5valueEvE4typeERS6_S9_, symObjAddr: 0x46568, symBinAddr: 0x10004A064, symSize: 0x3C }
  - { offsetInCU: 0x34ACF, offset: 0x34ACF, size: 0x8, addend: 0x0, symName: __ZNSt3__14swapB7v160006IN8nlohmann16json_abi_v3_11_210basic_jsonINS_3mapENS_6vectorENS_12basic_stringIcNS_11char_traitsIcEENS_9allocatorIcEEEEbxydS9_NS2_14adl_serializerENS5_IhNS9_IhEEEEE10json_valueEEENS_9enable_ifIXaasr21is_move_constructibleIT_EE5valuesr18is_move_assignableISI_EE5valueEvE4typeERSI_SL_, symObjAddr: 0x465A4, symBinAddr: 0x10004A0A0, symSize: 0x3C }
  - { offsetInCU: 0x34B20, offset: 0x34B20, size: 0x8, addend: 0x0, symName: __ZNSt3__111make_sharedB7v160006IN8nlohmann16json_abi_v3_11_26detail21output_stream_adapterIcEEJRNS_13basic_ostreamIcNS_11char_traitsIcEEEEEvEENS_10shared_ptrIT_EEDpOT0_, symObjAddr: 0x47854, symBinAddr: 0x10004B350, symSize: 0x40 }
  - { offsetInCU: 0x34D4D, offset: 0x34D4D, size: 0x8, addend: 0x0, symName: __ZNSt3__115allocate_sharedB7v160006IN8nlohmann16json_abi_v3_11_26detail21output_stream_adapterIcEENS_9allocatorIS5_EEJRNS_13basic_ostreamIcNS_11char_traitsIcEEEEEvEENS_10shared_ptrIT_EERKT0_DpOT1_, symObjAddr: 0x478F4, symBinAddr: 0x10004B3F0, symSize: 0x98 }
  - { offsetInCU: 0x3508F, offset: 0x3508F, size: 0x8, addend: 0x0, symName: __ZNSt3__134__libcpp_atomic_refcount_decrementB7v160006IlEET_RS1_, symObjAddr: 0x48540, symBinAddr: 0x10004C03C, symSize: 0x30 }
  - { offsetInCU: 0x350C5, offset: 0x350C5, size: 0x8, addend: 0x0, symName: __ZNSt3__134__libcpp_atomic_refcount_incrementB7v160006IlEET_RS1_, symObjAddr: 0x48660, symBinAddr: 0x10004C15C, symSize: 0x30 }
  - { offsetInCU: 0x350FA, offset: 0x350FA, size: 0x8, addend: 0x0, symName: __ZNSt3__1neB7v160006ERKNS_20__map_const_iteratorINS_21__tree_const_iteratorINS_12__value_typeINS_12basic_stringIcNS_11char_traitsIcEENS_9allocatorIcEEEEN8nlohmann16json_abi_v3_11_210basic_jsonINS_3mapENS_6vectorES8_bxydS6_NSA_14adl_serializerENSD_IhNS6_IhEEEEEEEEPNS_11__tree_nodeISI_PvEElEEEESQ_, symObjAddr: 0x49624, symBinAddr: 0x10004D120, symSize: 0x30 }
  - { offsetInCU: 0x35137, offset: 0x35137, size: 0x8, addend: 0x0, symName: __ZNSt3__1eqB7v160006ERKNS_20__map_const_iteratorINS_21__tree_const_iteratorINS_12__value_typeINS_12basic_stringIcNS_11char_traitsIcEENS_9allocatorIcEEEEN8nlohmann16json_abi_v3_11_210basic_jsonINS_3mapENS_6vectorES8_bxydS6_NSA_14adl_serializerENSD_IhNS6_IhEEEEEEEEPNS_11__tree_nodeISI_PvEElEEEESQ_, symObjAddr: 0x49680, symBinAddr: 0x10004D17C, symSize: 0x30 }
  - { offsetInCU: 0x35174, offset: 0x35174, size: 0x8, addend: 0x0, symName: __ZNSt3__14nextB7v160006INS_20__map_const_iteratorINS_21__tree_const_iteratorINS_12__value_typeINS_12basic_stringIcNS_11char_traitsIcEENS_9allocatorIcEEEEN8nlohmann16json_abi_v3_11_210basic_jsonINS_3mapENS_6vectorES9_bxydS7_NSB_14adl_serializerENSE_IhNS7_IhEEEEEEEEPNS_11__tree_nodeISJ_PvEElEEEEEENS_9enable_ifIXsr25__is_cpp17_input_iteratorIT_EE5valueESR_E4typeESR_NS_15iterator_traitsISR_E15difference_typeE, symObjAddr: 0x496B0, symBinAddr: 0x10004D1AC, symSize: 0x50 }
  - { offsetInCU: 0x351B7, offset: 0x351B7, size: 0x8, addend: 0x0, symName: __ZNSt3__1neB7v160006IPKN8nlohmann16json_abi_v3_11_210basic_jsonINS_3mapENS_6vectorENS_12basic_stringIcNS_11char_traitsIcEENS_9allocatorIcEEEEbxydS9_NS2_14adl_serializerENS5_IhNS9_IhEEEEEEEEbRKNS_11__wrap_iterIT_EESM_, symObjAddr: 0x49700, symBinAddr: 0x10004D1FC, symSize: 0x34 }
  - { offsetInCU: 0x351FA, offset: 0x351FA, size: 0x8, addend: 0x0, symName: __ZNSt3__1neB7v160006IPKhEEbRKNS_11__wrap_iterIT_EES7_, symObjAddr: 0x49828, symBinAddr: 0x10004D324, symSize: 0x34 }
  - { offsetInCU: 0x352A3, offset: 0x352A3, size: 0x8, addend: 0x0, symName: __ZNSt3__1neB7v160006ERKNS_21__tree_const_iteratorINS_12__value_typeINS_12basic_stringIcNS_11char_traitsIcEENS_9allocatorIcEEEEN8nlohmann16json_abi_v3_11_210basic_jsonINS_3mapENS_6vectorES7_bxydS5_NS9_14adl_serializerENSC_IhNS5_IhEEEEEEEEPNS_11__tree_nodeISH_PvEElEESO_, symObjAddr: 0x4AB30, symBinAddr: 0x10004E62C, symSize: 0x34 }
  - { offsetInCU: 0x352E1, offset: 0x352E1, size: 0x8, addend: 0x0, symName: __ZNSt3__1eqB7v160006ERKNS_21__tree_const_iteratorINS_12__value_typeINS_12basic_stringIcNS_11char_traitsIcEENS_9allocatorIcEEEEN8nlohmann16json_abi_v3_11_210basic_jsonINS_3mapENS_6vectorES7_bxydS5_NS9_14adl_serializerENSC_IhNS5_IhEEEEEEEEPNS_11__tree_nodeISH_PvEElEESO_, symObjAddr: 0x4AB64, symBinAddr: 0x10004E660, symSize: 0x30 }
  - { offsetInCU: 0x3531D, offset: 0x3531D, size: 0x8, addend: 0x0, symName: __ZNSt3__19__advanceB7v160006INS_20__map_const_iteratorINS_21__tree_const_iteratorINS_12__value_typeINS_12basic_stringIcNS_11char_traitsIcEENS_9allocatorIcEEEEN8nlohmann16json_abi_v3_11_210basic_jsonINS_3mapENS_6vectorES9_bxydS7_NSB_14adl_serializerENSE_IhNS7_IhEEEEEEEEPNS_11__tree_nodeISJ_PvEElEEEEEEvRT_NS_15iterator_traitsISQ_E15difference_typeENS_26bidirectional_iterator_tagE, symObjAddr: 0x4AC50, symBinAddr: 0x10004E74C, symSize: 0xA4 }
  - { offsetInCU: 0x35367, offset: 0x35367, size: 0x8, addend: 0x0, symName: __ZNSt3__1eqB7v160006IPKN8nlohmann16json_abi_v3_11_210basic_jsonINS_3mapENS_6vectorENS_12basic_stringIcNS_11char_traitsIcEENS_9allocatorIcEEEEbxydS9_NS2_14adl_serializerENS5_IhNS9_IhEEEEEEEEbRKNS_11__wrap_iterIT_EESM_, symObjAddr: 0x4AD58, symBinAddr: 0x10004E854, symSize: 0x48 }
  - { offsetInCU: 0x353AA, offset: 0x353AA, size: 0x8, addend: 0x0, symName: __ZNSt3__1eqB7v160006IPKhEEbRKNS_11__wrap_iterIT_EES7_, symObjAddr: 0x4AEF8, symBinAddr: 0x10004E9F4, symSize: 0x48 }
  - { offsetInCU: 0x35805, offset: 0x35805, size: 0x8, addend: 0x0, symName: __ZNSt3__119__debug_db_insert_iB7v160006INS_11__wrap_iterIPN8nlohmann16json_abi_v3_11_210basic_jsonINS_3mapENS_6vectorENS_12basic_stringIcNS_11char_traitsIcEENS_9allocatorIcEEEEbxydSA_NS3_14adl_serializerENS6_IhNSA_IhEEEEEEEEEEvPT_, symObjAddr: 0x4D630, symBinAddr: 0x10005112C, symSize: 0x10 }
  - { offsetInCU: 0x35835, offset: 0x35835, size: 0x8, addend: 0x0, symName: __ZNSt3__1eqB7v160006ERKNS_14__map_iteratorINS_15__tree_iteratorINS_12__value_typeINS_12basic_stringIcNS_11char_traitsIcEENS_9allocatorIcEEEEN8nlohmann16json_abi_v3_11_210basic_jsonINS_3mapENS_6vectorES8_bxydS6_NSA_14adl_serializerENSD_IhNS6_IhEEEEEEEEPNS_11__tree_nodeISI_PvEElEEEESQ_, symObjAddr: 0x4DA30, symBinAddr: 0x10005152C, symSize: 0x30 }
  - { offsetInCU: 0x35BB2, offset: 0x35BB2, size: 0x8, addend: 0x0, symName: __ZNSt3__1neB7v160006INS_3mapINS_12basic_stringIcNS_11char_traitsIcEENS_9allocatorIcEEEEN8nlohmann16json_abi_v3_11_210basic_jsonIS1_NS_6vectorES7_bxydS5_NS9_14adl_serializerENSB_IhNS5_IhEEEEEENS_4lessIvEENS5_INS_4pairIKS7_SF_EEEEEEZNSF_6createISM_JRKSM_EEEPT_DpOT0_EUlPSM_E_EEbRKNS_10unique_ptrISQ_T0_EEDn, symObjAddr: 0x4E220, symBinAddr: 0x100051D1C, symSize: 0x2C }
  - { offsetInCU: 0x35C22, offset: 0x35C22, size: 0x8, addend: 0x0, symName: __ZNSt3__14nextB7v160006INS_21__tree_const_iteratorINS_12__value_typeINS_12basic_stringIcNS_11char_traitsIcEENS_9allocatorIcEEEEN8nlohmann16json_abi_v3_11_210basic_jsonINS_3mapENS_6vectorES8_bxydS6_NSA_14adl_serializerENSD_IhNS6_IhEEEEEEEEPNS_11__tree_nodeISI_PvEElEEEENS_9enable_ifIXsr25__is_cpp17_input_iteratorIT_EE5valueESP_E4typeESP_NS_15iterator_traitsISP_E15difference_typeE, symObjAddr: 0x4ECF8, symBinAddr: 0x1000527F4, symSize: 0x50 }
  - { offsetInCU: 0x35C65, offset: 0x35C65, size: 0x8, addend: 0x0, symName: __ZNSt3__19__advanceB7v160006INS_21__tree_const_iteratorINS_12__value_typeINS_12basic_stringIcNS_11char_traitsIcEENS_9allocatorIcEEEEN8nlohmann16json_abi_v3_11_210basic_jsonINS_3mapENS_6vectorES8_bxydS6_NSA_14adl_serializerENSD_IhNS6_IhEEEEEEEEPNS_11__tree_nodeISI_PvEElEEEEvRT_NS_15iterator_traitsISO_E15difference_typeENS_26bidirectional_iterator_tagE, symObjAddr: 0x4ED98, symBinAddr: 0x100052894, symSize: 0xA4 }
  - { offsetInCU: 0x35FEF, offset: 0x35FEF, size: 0x8, addend: 0x0, symName: __ZNSt3__1neB7v160006INS_6vectorIN8nlohmann16json_abi_v3_11_210basic_jsonINS_3mapES1_NS_12basic_stringIcNS_11char_traitsIcEENS_9allocatorIcEEEEbxydS9_NS3_14adl_serializerENS1_IhNS9_IhEEEEEENS9_ISF_EEEEZNSF_6createISH_JRKSH_EEEPT_DpOT0_EUlPSH_E_EEbRKNS_10unique_ptrISL_T0_EEDn, symObjAddr: 0x4F2A8, symBinAddr: 0x100052DA4, symSize: 0x2C }
  - { offsetInCU: 0x3603B, offset: 0x3603B, size: 0x8, addend: 0x0, symName: __ZNSt3__130__uninitialized_allocator_copyB7v160006INS_9allocatorIN8nlohmann16json_abi_v3_11_210basic_jsonINS_3mapENS_6vectorENS_12basic_stringIcNS_11char_traitsIcEENS1_IcEEEEbxydS1_NS3_14adl_serializerENS6_IhNS1_IhEEEEEEEEPSF_SH_SH_EET2_RT_T0_T1_SI_, symObjAddr: 0x4F6DC, symBinAddr: 0x1000531D8, symSize: 0xF4 }
  - { offsetInCU: 0x36419, offset: 0x36419, size: 0x8, addend: 0x0, symName: __ZNSt3__1neB7v160006IN8nlohmann16json_abi_v3_11_227byte_container_with_subtypeINS_6vectorIhNS_9allocatorIhEEEEEEZNS2_10basic_jsonINS_3mapES4_NS_12basic_stringIcNS_11char_traitsIcEENS5_IcEEEEbxydS5_NS2_14adl_serializerES7_E6createIS8_JRKS8_EEEPT_DpOT0_EUlPS8_E_EEbRKNS_10unique_ptrISL_T0_EEDn, symObjAddr: 0x4FB98, symBinAddr: 0x100053694, symSize: 0x2C }
  - { offsetInCU: 0x36465, offset: 0x36465, size: 0x8, addend: 0x0, symName: __ZNSt3__122__make_exception_guardB7v160006INS_6vectorIhNS_9allocatorIhEEE16__destroy_vectorEEENS_28__exception_guard_exceptionsIT_EES7_, symObjAddr: 0x4FF54, symBinAddr: 0x100053A50, symSize: 0x40 }
  - { offsetInCU: 0x3649A, offset: 0x3649A, size: 0x8, addend: 0x0, symName: __ZNSt3__119__allocate_at_leastB7v160006INS_9allocatorIhEEEENS_19__allocation_resultINS_16allocator_traitsIT_E7pointerEEERS5_m, symObjAddr: 0x5027C, symBinAddr: 0x100053D78, symSize: 0x40 }
  - { offsetInCU: 0x364DD, offset: 0x364DD, size: 0x8, addend: 0x0, symName: __ZNSt3__130__uninitialized_allocator_copyB7v160006INS_9allocatorIhEEPhS3_S3_EET2_RT_T0_T1_S4_, symObjAddr: 0x50494, symBinAddr: 0x100053F90, symSize: 0xF4 }
  - { offsetInCU: 0x3657B, offset: 0x3657B, size: 0x8, addend: 0x0, symName: __ZNSt3__122__make_exception_guardB7v160006INS_29_AllocatorDestroyRangeReverseINS_9allocatorIhEEPhEEEENS_28__exception_guard_exceptionsIT_EES7_, symObjAddr: 0x505F8, symBinAddr: 0x1000540F4, symSize: 0x4C }
  - { offsetInCU: 0x365B2, offset: 0x365B2, size: 0x8, addend: 0x0, symName: __ZNSt3__119__allocator_destroyB7v160006INS_9allocatorIhEENS_16reverse_iteratorIPhEES5_EEvRT_T0_T1_, symObjAddr: 0x50880, symBinAddr: 0x10005437C, symSize: 0x70 }
  - { offsetInCU: 0x36614, offset: 0x36614, size: 0x8, addend: 0x0, symName: __ZNSt3__1neB7v160006IPhS1_EEbRKNS_16reverse_iteratorIT_EERKNS2_IT0_EE, symObjAddr: 0x50924, symBinAddr: 0x100054420, symSize: 0x48 }
  - { offsetInCU: 0x36660, offset: 0x36660, size: 0x8, addend: 0x0, symName: __ZNSt3__112__to_addressB7v160006INS_16reverse_iteratorIPhEEvEENS_5decayIDTclsr19__to_address_helperIT_EE6__callclsr3stdE7declvalIRKS5_EEEEE4typeES7_, symObjAddr: 0x5096C, symBinAddr: 0x100054468, symSize: 0x24 }
  - { offsetInCU: 0x366C0, offset: 0x366C0, size: 0x8, addend: 0x0, symName: __ZNSt3__19transformB7v160006IN8nlohmann16json_abi_v3_11_26detail9iter_implIKNS2_10basic_jsonINS_3mapENS_6vectorENS_12basic_stringIcNS_11char_traitsIcEENS_9allocatorIcEEEEbxydSB_NS2_14adl_serializerENS7_IhNSB_IhEEEEEEEENS_15insert_iteratorINS7_IiNSB_IiEEEEEEZNS3_20from_json_array_implISH_SM_Li0EEEDTcmcmcldtfp0_7reserveclsr3stdE7declvalINT0_9size_typeEEEEcldtfp_3getINSP_10value_typeEEEcvv_EERKT_RSP_NS3_12priority_tagILj1EEEEUlRSI_E_EESP_ST_ST_SP_T1_, symObjAddr: 0x51F0C, symBinAddr: 0x100055A08, symSize: 0xA0 }
  - { offsetInCU: 0x36733, offset: 0x36733, size: 0x8, addend: 0x0, symName: __ZNSt3__18inserterB7v160006INS_6vectorIiNS_9allocatorIiEEEEEENS_15insert_iteratorIT_EERS6_NS6_8iteratorE, symObjAddr: 0x52004, symBinAddr: 0x100055B00, symSize: 0x40 }
  - { offsetInCU: 0x36776, offset: 0x36776, size: 0x8, addend: 0x0, symName: __ZNSt3__13endB7v160006INS_6vectorIiNS_9allocatorIiEEEEEEDTcldtfp_3endEERT_, symObjAddr: 0x52044, symBinAddr: 0x100055B40, symSize: 0x2C }
  - { offsetInCU: 0x3687F, offset: 0x3687F, size: 0x8, addend: 0x0, symName: __ZNSt3__1miB7v160006IPKiPiEEDTmicldtfp_4baseEcldtfp0_4baseEERKNS_11__wrap_iterIT_EERKNS5_IT0_EE, symObjAddr: 0x52B64, symBinAddr: 0x100056660, symSize: 0x48 }
  - { offsetInCU: 0x368CB, offset: 0x368CB, size: 0x8, addend: 0x0, symName: __ZNSt3__113move_backwardB7v160006IPiS1_EET0_T_S3_S2_, symObjAddr: 0x531F8, symBinAddr: 0x100056CF4, symSize: 0x40 }
  - { offsetInCU: 0x36925, offset: 0x36925, size: 0x8, addend: 0x0, symName: __ZNSt3__115__move_backwardB7v160006INS_17_ClassicAlgPolicyEPiS2_S2_EENS_4pairIT0_T2_EES4_T1_S5_, symObjAddr: 0x53238, symBinAddr: 0x100056D34, symSize: 0x44 }
  - { offsetInCU: 0x36991, offset: 0x36991, size: 0x8, addend: 0x0, symName: __ZNSt3__123__dispatch_copy_or_moveB7v160006INS_17_ClassicAlgPolicyENS_20__move_backward_loopIS1_EENS_23__move_backward_trivialEPiS5_S5_EENS_4pairIT2_T4_EES7_T3_S8_, symObjAddr: 0x5327C, symBinAddr: 0x100056D78, symSize: 0x44 }
  - { offsetInCU: 0x36A0F, offset: 0x36A0F, size: 0x8, addend: 0x0, symName: __ZNSt3__121__unwrap_and_dispatchB7v160006INS_10__overloadINS_20__move_backward_loopINS_17_ClassicAlgPolicyEEENS_23__move_backward_trivialEEEPiS7_S7_Li0EEENS_4pairIT0_T2_EES9_T1_SA_, symObjAddr: 0x532C0, symBinAddr: 0x100056DBC, symSize: 0xB4 }
  - { offsetInCU: 0x36A9D, offset: 0x36A9D, size: 0x8, addend: 0x0, symName: __ZNSt3__114__unwrap_rangeB7v160006IPiS1_EENS_4pairIT0_S3_EET_S5_, symObjAddr: 0x53374, symBinAddr: 0x100056E70, symSize: 0x60 }
  - { offsetInCU: 0x36C9D, offset: 0x36C9D, size: 0x8, addend: 0x0, symName: __ZNSt3__19make_pairB7v160006IPiS1_EENS_4pairINS_18__unwrap_ref_decayIT_E4typeENS3_IT0_E4typeEEEOS4_OS7_, symObjAddr: 0x5341C, symBinAddr: 0x100056F18, symSize: 0x38 }
  - { offsetInCU: 0x36CEC, offset: 0x36CEC, size: 0x8, addend: 0x0, symName: __ZNSt3__114__rewrap_rangeB7v160006IPiS1_EET_S2_T0_, symObjAddr: 0x53454, symBinAddr: 0x100056F50, symSize: 0x2C }
  - { offsetInCU: 0x36D38, offset: 0x36D38, size: 0x8, addend: 0x0, symName: __ZNSt3__128__copy_backward_trivial_implB7v160006IiiEENS_4pairIPT_PT0_EES3_S3_S5_, symObjAddr: 0x53480, symBinAddr: 0x100056F7C, symSize: 0x94 }
  - { offsetInCU: 0x36DA0, offset: 0x36DA0, size: 0x8, addend: 0x0, symName: __ZNSt3__19make_pairB7v160006IRPiS2_EENS_4pairINS_18__unwrap_ref_decayIT_E4typeENS4_IT0_E4typeEEEOS5_OS8_, symObjAddr: 0x53514, symBinAddr: 0x100057010, symSize: 0x38 }
  - { offsetInCU: 0x36DEF, offset: 0x36DEF, size: 0x8, addend: 0x0, symName: __ZNSt3__14moveB7v160006IPiS1_EET0_T_S3_S2_, symObjAddr: 0x5362C, symBinAddr: 0x100057128, symSize: 0x40 }
  - { offsetInCU: 0x36E49, offset: 0x36E49, size: 0x8, addend: 0x0, symName: __ZNSt3__16__moveB7v160006INS_17_ClassicAlgPolicyEPiS2_S2_EENS_4pairIT0_T2_EES4_T1_S5_, symObjAddr: 0x5379C, symBinAddr: 0x100057298, symSize: 0x44 }
  - { offsetInCU: 0x36EB5, offset: 0x36EB5, size: 0x8, addend: 0x0, symName: __ZNSt3__123__dispatch_copy_or_moveB7v160006INS_17_ClassicAlgPolicyENS_11__move_loopIS1_EENS_14__move_trivialEPiS5_S5_EENS_4pairIT2_T4_EES7_T3_S8_, symObjAddr: 0x537E0, symBinAddr: 0x1000572DC, symSize: 0x44 }
  - { offsetInCU: 0x36F33, offset: 0x36F33, size: 0x8, addend: 0x0, symName: __ZNSt3__121__unwrap_and_dispatchB7v160006INS_10__overloadINS_11__move_loopINS_17_ClassicAlgPolicyEEENS_14__move_trivialEEEPiS7_S7_Li0EEENS_4pairIT0_T2_EES9_T1_SA_, symObjAddr: 0x53824, symBinAddr: 0x100057320, symSize: 0xB4 }
  - { offsetInCU: 0x37043, offset: 0x37043, size: 0x8, addend: 0x0, symName: __ZNSt3__119__copy_trivial_implB7v160006IiiEENS_4pairIPT_PT0_EES3_S3_S5_, symObjAddr: 0x53920, symBinAddr: 0x10005741C, symSize: 0x84 }
  - { offsetInCU: 0x370AB, offset: 0x370AB, size: 0x8, addend: 0x0, symName: __ZNSt3__19make_pairB7v160006IRPiS1_EENS_4pairINS_18__unwrap_ref_decayIT_E4typeENS4_IT0_E4typeEEEOS5_OS8_, symObjAddr: 0x539A4, symBinAddr: 0x1000574A0, symSize: 0x38 }
  - { offsetInCU: 0x370FA, offset: 0x370FA, size: 0x8, addend: 0x0, symName: __ZNSt3__18distanceB7v160006INS_13move_iteratorIPiEEEENS_15iterator_traitsIT_E15difference_typeES5_S5_, symObjAddr: 0x53A4C, symBinAddr: 0x100057548, symSize: 0x3C }
  - { offsetInCU: 0x3713D, offset: 0x3713D, size: 0x8, addend: 0x0, symName: __ZNSt3__110__distanceB7v160006INS_13move_iteratorIPiEEEENS_15iterator_traitsIT_E15difference_typeES5_S5_NS_26random_access_iterator_tagE, symObjAddr: 0x53B28, symBinAddr: 0x100057624, symSize: 0x30 }
  - { offsetInCU: 0x3718B, offset: 0x3718B, size: 0x8, addend: 0x0, symName: __ZNSt3__1miB7v160006IPiS1_EEDTmicldtfp_4baseEcldtfp0_4baseEERKNS_13move_iteratorIT_EERKNS3_IT0_EE, symObjAddr: 0x53B58, symBinAddr: 0x100057654, symSize: 0x48 }
  - { offsetInCU: 0x371DA, offset: 0x371DA, size: 0x8, addend: 0x0, symName: __ZNSt3__142__uninitialized_allocator_move_if_noexceptB7v160006INS_9allocatorIiEEPiS3_ivEET1_RT_T0_S7_S4_, symObjAddr: 0x53C3C, symBinAddr: 0x100057738, symSize: 0x38 }
  - { offsetInCU: 0x3728B, offset: 0x3728B, size: 0x8, addend: 0x0, symName: __ZNSt3__125__debug_db_invalidate_allB7v160006INS_6vectorINS_12basic_stringIcNS_11char_traitsIcEENS_9allocatorIcEEEENS5_IS7_EEEEEEvPT_, symObjAddr: 0x54CD8, symBinAddr: 0x1000587D4, symSize: 0x10 }
  - { offsetInCU: 0x372BB, offset: 0x372BB, size: 0x8, addend: 0x0, symName: __ZNSt3__1neB7v160006ERKNS_15__tree_iteratorINS_12__value_typeIiNS_4pairINS_6vectorINS_12basic_stringIcNS_11char_traitsIcEENS_9allocatorIcEEEENS7_IS9_EEEENS2_INS3_IiNS7_IiEEEESD_EEEEEEPNS_11__tree_nodeISG_PvEElEESN_, symObjAddr: 0x54D90, symBinAddr: 0x10005888C, symSize: 0x34 }
  - { offsetInCU: 0x372F9, offset: 0x372F9, size: 0x8, addend: 0x0, symName: __ZNSt3__1eqB7v160006ERKNS_15__tree_iteratorINS_12__value_typeIiNS_4pairINS_6vectorINS_12basic_stringIcNS_11char_traitsIcEENS_9allocatorIcEEEENS7_IS9_EEEENS2_INS3_IiNS7_IiEEEESD_EEEEEEPNS_11__tree_nodeISG_PvEElEESN_, symObjAddr: 0x54DC4, symBinAddr: 0x1000588C0, symSize: 0x30 }
  - { offsetInCU: 0x37368, offset: 0x37368, size: 0x8, addend: 0x0, symName: __ZNSt3__122__make_exception_guardB7v160006INS_6vectorIfNS_9allocatorIfEEE16__destroy_vectorEEENS_28__exception_guard_exceptionsIT_EES7_, symObjAddr: 0x54FD0, symBinAddr: 0x100058ACC, symSize: 0x40 }
  - { offsetInCU: 0x3739D, offset: 0x3739D, size: 0x8, addend: 0x0, symName: __ZNSt3__119__allocate_at_leastB7v160006INS_9allocatorIfEEEENS_19__allocation_resultINS_16allocator_traitsIT_E7pointerEEERS5_m, symObjAddr: 0x553B4, symBinAddr: 0x100058EB0, symSize: 0x40 }
  - { offsetInCU: 0x373E1, offset: 0x373E1, size: 0x8, addend: 0x0, symName: __ZNSt3__112__to_addressB7v160006IfEEPT_S2_, symObjAddr: 0x55618, symBinAddr: 0x100059114, symSize: 0x14 }
  - { offsetInCU: 0x37416, offset: 0x37416, size: 0x8, addend: 0x0, symName: __ZNSt3__130__uninitialized_allocator_copyB7v160006INS_9allocatorIfEEffLPv0EEEPT0_RT_PKS4_S9_S5_, symObjAddr: 0x556C8, symBinAddr: 0x1000591C4, symSize: 0x38 }
  - { offsetInCU: 0x3748F, offset: 0x3748F, size: 0x8, addend: 0x0, symName: __ZNSt3__14copyB7v160006IPKfPfEET0_T_S5_S4_, symObjAddr: 0x55770, symBinAddr: 0x10005926C, symSize: 0x40 }
  - { offsetInCU: 0x374E9, offset: 0x374E9, size: 0x8, addend: 0x0, symName: __ZNSt3__16__copyB7v160006INS_17_ClassicAlgPolicyEPKfS3_PfEENS_4pairIT0_T2_EES6_T1_S7_, symObjAddr: 0x557B0, symBinAddr: 0x1000592AC, symSize: 0x44 }
  - { offsetInCU: 0x37555, offset: 0x37555, size: 0x8, addend: 0x0, symName: __ZNSt3__123__dispatch_copy_or_moveB7v160006INS_17_ClassicAlgPolicyENS_11__copy_loopIS1_EENS_14__copy_trivialEPKfS6_PfEENS_4pairIT2_T4_EES9_T3_SA_, symObjAddr: 0x557F4, symBinAddr: 0x1000592F0, symSize: 0x44 }
  - { offsetInCU: 0x375D3, offset: 0x375D3, size: 0x8, addend: 0x0, symName: __ZNSt3__121__unwrap_and_dispatchB7v160006INS_10__overloadINS_11__copy_loopINS_17_ClassicAlgPolicyEEENS_14__copy_trivialEEEPKfS8_PfLi0EEENS_4pairIT0_T2_EESB_T1_SC_, symObjAddr: 0x55838, symBinAddr: 0x100059334, symSize: 0xB4 }
  - { offsetInCU: 0x37661, offset: 0x37661, size: 0x8, addend: 0x0, symName: __ZNSt3__114__unwrap_rangeB7v160006IPKfS2_EENS_4pairIT0_S4_EET_S6_, symObjAddr: 0x558EC, symBinAddr: 0x1000593E8, symSize: 0x60 }
  - { offsetInCU: 0x377B0, offset: 0x377B0, size: 0x8, addend: 0x0, symName: __ZNSt3__113__unwrap_iterB7v160006IPfNS_18__unwrap_iter_implIS1_Lb1EEELi0EEEDTclsrT0_8__unwrapclsr3stdE7declvalIT_EEEES5_, symObjAddr: 0x55994, symBinAddr: 0x100059490, symSize: 0x24 }
  - { offsetInCU: 0x377F4, offset: 0x377F4, size: 0x8, addend: 0x0, symName: __ZNSt3__19make_pairB7v160006IPKfPfEENS_4pairINS_18__unwrap_ref_decayIT_E4typeENS5_IT0_E4typeEEEOS6_OS9_, symObjAddr: 0x559B8, symBinAddr: 0x1000594B4, symSize: 0x38 }
  - { offsetInCU: 0x37843, offset: 0x37843, size: 0x8, addend: 0x0, symName: __ZNSt3__114__rewrap_rangeB7v160006IPKfS2_EET_S3_T0_, symObjAddr: 0x559F0, symBinAddr: 0x1000594EC, symSize: 0x2C }
  - { offsetInCU: 0x3788F, offset: 0x3788F, size: 0x8, addend: 0x0, symName: __ZNSt3__113__rewrap_iterB7v160006IPfS1_NS_18__unwrap_iter_implIS1_Lb1EEEEET_S4_T0_, symObjAddr: 0x55A1C, symBinAddr: 0x100059518, symSize: 0x3C }
  - { offsetInCU: 0x378E4, offset: 0x378E4, size: 0x8, addend: 0x0, symName: __ZNSt3__19make_pairB7v160006IPKfS2_EENS_4pairINS_18__unwrap_ref_decayIT_E4typeENS4_IT0_E4typeEEEOS5_OS8_, symObjAddr: 0x55A58, symBinAddr: 0x100059554, symSize: 0x38 }
  - { offsetInCU: 0x37933, offset: 0x37933, size: 0x8, addend: 0x0, symName: __ZNSt3__113__unwrap_iterB7v160006IPKfNS_18__unwrap_iter_implIS2_Lb1EEELi0EEEDTclsrT0_8__unwrapclsr3stdE7declvalIT_EEEES6_, symObjAddr: 0x55A90, symBinAddr: 0x10005958C, symSize: 0x24 }
  - { offsetInCU: 0x37A9F, offset: 0x37A9F, size: 0x8, addend: 0x0, symName: __ZNSt3__112__to_addressB7v160006IKfEEPT_S3_, symObjAddr: 0x55B48, symBinAddr: 0x100059644, symSize: 0x14 }
  - { offsetInCU: 0x37AD4, offset: 0x37AD4, size: 0x8, addend: 0x0, symName: __ZNSt3__119__copy_trivial_implB7v160006IKffEENS_4pairIPT_PT0_EES4_S4_S6_, symObjAddr: 0x55B5C, symBinAddr: 0x100059658, symSize: 0x84 }
  - { offsetInCU: 0x37B3C, offset: 0x37B3C, size: 0x8, addend: 0x0, symName: __ZNSt3__19make_pairB7v160006IRPKfPfEENS_4pairINS_18__unwrap_ref_decayIT_E4typeENS6_IT0_E4typeEEEOS7_OSA_, symObjAddr: 0x55BE0, symBinAddr: 0x1000596DC, symSize: 0x38 }
  - { offsetInCU: 0x37BDE, offset: 0x37BDE, size: 0x8, addend: 0x0, symName: __ZNSt3__113__rewrap_iterB7v160006IPKfS2_NS_18__unwrap_iter_implIS2_Lb1EEEEET_S5_T0_, symObjAddr: 0x55D1C, symBinAddr: 0x100059818, symSize: 0x3C }
  - { offsetInCU: 0x37C34, offset: 0x37C34, size: 0x8, addend: 0x0, symName: __ZNSt3__118__debug_db_erase_cB7v160006INS_6vectorIfNS_9allocatorIfEEEEEEvPT_, symObjAddr: 0x55FBC, symBinAddr: 0x100059AB8, symSize: 0x10 }
  - { offsetInCU: 0x37C65, offset: 0x37C65, size: 0x8, addend: 0x0, symName: __ZNSt3__120__throw_out_of_rangeB7v160006EPKc, symObjAddr: 0x56194, symBinAddr: 0x100059C90, symSize: 0x64 }
  - { offsetInCU: 0x37CC2, offset: 0x37CC2, size: 0x8, addend: 0x0, symName: __ZNSt3__142__uninitialized_allocator_move_if_noexceptB7v160006INS_9allocatorIfEENS_16reverse_iteratorIPfEES5_fvEET1_RT_T0_S9_S6_, symObjAddr: 0x57010, symBinAddr: 0x10005AB0C, symSize: 0x78 }
  - { offsetInCU: 0x37D41, offset: 0x37D41, size: 0x8, addend: 0x0, symName: __ZNSt3__14swapB7v160006IPfEENS_9enable_ifIXaasr21is_move_constructibleIT_EE5valuesr18is_move_assignableIS3_EE5valueEvE4typeERS3_S6_, symObjAddr: 0x570D4, symBinAddr: 0x10005ABD0, symSize: 0x3C }
  - { offsetInCU: 0x37D93, offset: 0x37D93, size: 0x8, addend: 0x0, symName: __ZNSt3__125__debug_db_invalidate_allB7v160006INS_6vectorIfNS_9allocatorIfEEEEEEvPT_, symObjAddr: 0x57110, symBinAddr: 0x10005AC0C, symSize: 0x10 }
  - { offsetInCU: 0x37DC3, offset: 0x37DC3, size: 0x8, addend: 0x0, symName: __ZNSt3__14moveB7v160006INS_16reverse_iteratorIPfEES3_EET0_T_S5_S4_, symObjAddr: 0x57120, symBinAddr: 0x10005AC1C, symSize: 0x78 }
  - { offsetInCU: 0x37E1D, offset: 0x37E1D, size: 0x8, addend: 0x0, symName: __ZNSt3__16__moveB7v160006INS_17_ClassicAlgPolicyENS_16reverse_iteratorIPfEES4_S4_EENS_4pairIT0_T2_EES6_T1_S7_, symObjAddr: 0x57198, symBinAddr: 0x10005AC94, symSize: 0x64 }
  - { offsetInCU: 0x37E89, offset: 0x37E89, size: 0x8, addend: 0x0, symName: __ZNSt3__123__dispatch_copy_or_moveB7v160006INS_17_ClassicAlgPolicyENS_11__move_loopIS1_EENS_14__move_trivialENS_16reverse_iteratorIPfEES7_S7_EENS_4pairIT2_T4_EES9_T3_SA_, symObjAddr: 0x571FC, symBinAddr: 0x10005ACF8, symSize: 0x64 }
  - { offsetInCU: 0x37F07, offset: 0x37F07, size: 0x8, addend: 0x0, symName: __ZNSt3__121__unwrap_and_dispatchB7v160006INS_10__overloadINS_11__move_loopINS_17_ClassicAlgPolicyEEENS_14__move_trivialEEENS_16reverse_iteratorIPfEES9_S9_Li0EEENS_4pairIT0_T2_EESB_T1_SC_, symObjAddr: 0x57260, symBinAddr: 0x10005AD5C, symSize: 0x12C }
  - { offsetInCU: 0x37F97, offset: 0x37F97, size: 0x8, addend: 0x0, symName: __ZNSt3__114__unwrap_rangeB7v160006INS_16reverse_iteratorIPfEES3_EENS_4pairIT0_S5_EET_S7_, symObjAddr: 0x5738C, symBinAddr: 0x10005AE88, symSize: 0x84 }
  - { offsetInCU: 0x380B7, offset: 0x380B7, size: 0x8, addend: 0x0, symName: __ZNSt3__113__unwrap_iterB7v160006INS_16reverse_iteratorIPfEENS_18__unwrap_iter_implIS3_Lb0EEELi0EEEDTclsrT0_8__unwrapclsr3stdE7declvalIT_EEEES7_, symObjAddr: 0x574B0, symBinAddr: 0x10005AFAC, symSize: 0x44 }
  - { offsetInCU: 0x380FB, offset: 0x380FB, size: 0x8, addend: 0x0, symName: __ZNSt3__19make_pairB7v160006INS_16reverse_iteratorIPfEES3_EENS_4pairINS_18__unwrap_ref_decayIT_E4typeENS5_IT0_E4typeEEEOS6_OS9_, symObjAddr: 0x574F4, symBinAddr: 0x10005AFF0, symSize: 0x38 }
  - { offsetInCU: 0x3814A, offset: 0x3814A, size: 0x8, addend: 0x0, symName: __ZNSt3__114__rewrap_rangeB7v160006INS_16reverse_iteratorIPfEES3_EET_S4_T0_, symObjAddr: 0x5752C, symBinAddr: 0x10005B028, symSize: 0x5C }
  - { offsetInCU: 0x38196, offset: 0x38196, size: 0x8, addend: 0x0, symName: __ZNSt3__113__rewrap_iterB7v160006INS_16reverse_iteratorIPfEES3_NS_18__unwrap_iter_implIS3_Lb0EEEEET_S6_T0_, symObjAddr: 0x57588, symBinAddr: 0x10005B084, symSize: 0x74 }
  - { offsetInCU: 0x381EB, offset: 0x381EB, size: 0x8, addend: 0x0, symName: __ZNSt3__1neB7v160006IPfS1_EEbRKNS_16reverse_iteratorIT_EERKNS2_IT0_EE, symObjAddr: 0x575FC, symBinAddr: 0x10005B0F8, symSize: 0x48 }
  - { offsetInCU: 0x382A3, offset: 0x382A3, size: 0x8, addend: 0x0, symName: __ZNSt3__130__uninitialized_allocator_copyB7v160006INS_9allocatorIfEEPfS3_S3_EET2_RT_T0_T1_S4_, symObjAddr: 0x57B38, symBinAddr: 0x10005B634, symSize: 0xF4 }
  - { offsetInCU: 0x38341, offset: 0x38341, size: 0x8, addend: 0x0, symName: __ZNSt3__122__make_exception_guardB7v160006INS_29_AllocatorDestroyRangeReverseINS_9allocatorIfEEPfEEEENS_28__exception_guard_exceptionsIT_EES7_, symObjAddr: 0x57C2C, symBinAddr: 0x10005B728, symSize: 0x4C }
  - { offsetInCU: 0x38378, offset: 0x38378, size: 0x8, addend: 0x0, symName: __ZNSt3__119__allocator_destroyB7v160006INS_9allocatorIfEENS_16reverse_iteratorIPfEES5_EEvRT_T0_T1_, symObjAddr: 0x57EB4, symBinAddr: 0x10005B9B0, symSize: 0x70 }
  - { offsetInCU: 0x383DA, offset: 0x383DA, size: 0x8, addend: 0x0, symName: __ZNSt3__112__to_addressB7v160006INS_16reverse_iteratorIPfEEvEENS_5decayIDTclsr19__to_address_helperIT_EE6__callclsr3stdE7declvalIRKS5_EEEEE4typeES7_, symObjAddr: 0x57F24, symBinAddr: 0x10005BA20, symSize: 0x24 }
  - { offsetInCU: 0x3843A, offset: 0x3843A, size: 0x8, addend: 0x0, symName: __ZNSt3__15beginB7v160006INS_6vectorIfNS_9allocatorIfEEEEEEDTcldtfp_5beginEERKT_, symObjAddr: 0x588A8, symBinAddr: 0x10005C3A4, symSize: 0x2C }
  - { offsetInCU: 0x3846F, offset: 0x3846F, size: 0x8, addend: 0x0, symName: __ZNSt3__13endB7v160006INS_6vectorIfNS_9allocatorIfEEEEEEDTcldtfp_3endEERKT_, symObjAddr: 0x588D4, symBinAddr: 0x10005C3D0, symSize: 0x2C }
  - { offsetInCU: 0x387E4, offset: 0x387E4, size: 0x8, addend: 0x0, symName: __ZNSt3__1neB7v160006INS_6vectorIN8nlohmann16json_abi_v3_11_210basic_jsonINS_3mapES1_NS_12basic_stringIcNS_11char_traitsIcEENS_9allocatorIcEEEEbxydS9_NS3_14adl_serializerENS1_IhNS9_IhEEEEEENS9_ISF_EEEEZNSF_6createISH_JNS_11__wrap_iterIPKfEESM_EEEPT_DpOT0_EUlPSH_E_EEbRKNS_10unique_ptrISN_T0_EEDn, symObjAddr: 0x589A0, symBinAddr: 0x10005C49C, symSize: 0x2C }
  - { offsetInCU: 0x38830, offset: 0x38830, size: 0x8, addend: 0x0, symName: __ZNSt3__18distanceB7v160006INS_11__wrap_iterIPKfEEEENS_15iterator_traitsIT_E15difference_typeES6_S6_, symObjAddr: 0x58CDC, symBinAddr: 0x10005C7D8, symSize: 0x3C }
  - { offsetInCU: 0x38873, offset: 0x38873, size: 0x8, addend: 0x0, symName: __ZNSt3__110__distanceB7v160006INS_11__wrap_iterIPKfEEEENS_15iterator_traitsIT_E15difference_typeES6_S6_NS_26random_access_iterator_tagE, symObjAddr: 0x58DB4, symBinAddr: 0x10005C8B0, symSize: 0x30 }
  - { offsetInCU: 0x388C1, offset: 0x388C1, size: 0x8, addend: 0x0, symName: __ZNSt3__1miB7v160006IPKfS2_EEDTmicldtfp_4baseEcldtfp0_4baseEERKNS_11__wrap_iterIT_EERKNS4_IT0_EE, symObjAddr: 0x58DE4, symBinAddr: 0x10005C8E0, symSize: 0x48 }
  - { offsetInCU: 0x3890D, offset: 0x3890D, size: 0x8, addend: 0x0, symName: __ZNSt3__130__uninitialized_allocator_copyB7v160006INS_9allocatorIN8nlohmann16json_abi_v3_11_210basic_jsonINS_3mapENS_6vectorENS_12basic_stringIcNS_11char_traitsIcEENS1_IcEEEEbxydS1_NS3_14adl_serializerENS6_IhNS1_IhEEEEEEEENS_11__wrap_iterIPKfEESK_PSF_EET2_RT_T0_T1_SM_, symObjAddr: 0x58E44, symBinAddr: 0x10005C940, symSize: 0xF8 }
  - { offsetInCU: 0x389AB, offset: 0x389AB, size: 0x8, addend: 0x0, symName: __ZNSt3__1neB7v160006IPKfEEbRKNS_11__wrap_iterIT_EES7_, symObjAddr: 0x58F3C, symBinAddr: 0x10005CA38, symSize: 0x34 }
  - { offsetInCU: 0x389EE, offset: 0x389EE, size: 0x8, addend: 0x0, symName: __ZNSt3__1eqB7v160006IPKfEEbRKNS_11__wrap_iterIT_EES7_, symObjAddr: 0x58FDC, symBinAddr: 0x10005CAD8, symSize: 0x48 }
  - { offsetInCU: 0x38A31, offset: 0x38A31, size: 0x8, addend: 0x0, symName: __ZNSt3__19transformB7v160006IN8nlohmann16json_abi_v3_11_26detail9iter_implIKNS2_10basic_jsonINS_3mapENS_6vectorENS_12basic_stringIcNS_11char_traitsIcEENS_9allocatorIcEEEEbxydSB_NS2_14adl_serializerENS7_IhNSB_IhEEEEEEEENS_15insert_iteratorINS7_IfNSB_IfEEEEEEZNS3_20from_json_array_implISH_SM_Li0EEEDTcmcmcldtfp0_7reserveclsr3stdE7declvalINT0_9size_typeEEEEcldtfp_3getINSP_10value_typeEEEcvv_EERKT_RSP_NS3_12priority_tagILj1EEEEUlRSI_E_EESP_ST_ST_SP_T1_, symObjAddr: 0x59840, symBinAddr: 0x10005D33C, symSize: 0xA0 }
  - { offsetInCU: 0x38AA4, offset: 0x38AA4, size: 0x8, addend: 0x0, symName: __ZNSt3__18inserterB7v160006INS_6vectorIfNS_9allocatorIfEEEEEENS_15insert_iteratorIT_EERS6_NS6_8iteratorE, symObjAddr: 0x598E0, symBinAddr: 0x10005D3DC, symSize: 0x40 }
  - { offsetInCU: 0x38AE7, offset: 0x38AE7, size: 0x8, addend: 0x0, symName: __ZNSt3__13endB7v160006INS_6vectorIfNS_9allocatorIfEEEEEEDTcldtfp_3endEERT_, symObjAddr: 0x59920, symBinAddr: 0x10005D41C, symSize: 0x2C }
  - { offsetInCU: 0x38BF0, offset: 0x38BF0, size: 0x8, addend: 0x0, symName: __ZNSt3__1miB7v160006IPKfPfEEDTmicldtfp_4baseEcldtfp0_4baseEERKNS_11__wrap_iterIT_EERKNS5_IT0_EE, symObjAddr: 0x59EDC, symBinAddr: 0x10005D9D8, symSize: 0x48 }
  - { offsetInCU: 0x38C3C, offset: 0x38C3C, size: 0x8, addend: 0x0, symName: __ZNSt3__113move_backwardB7v160006IPfS1_EET0_T_S3_S2_, symObjAddr: 0x5A570, symBinAddr: 0x10005E06C, symSize: 0x40 }
  - { offsetInCU: 0x38C96, offset: 0x38C96, size: 0x8, addend: 0x0, symName: __ZNSt3__115__move_backwardB7v160006INS_17_ClassicAlgPolicyEPfS2_S2_EENS_4pairIT0_T2_EES4_T1_S5_, symObjAddr: 0x5A5B0, symBinAddr: 0x10005E0AC, symSize: 0x44 }
  - { offsetInCU: 0x38D02, offset: 0x38D02, size: 0x8, addend: 0x0, symName: __ZNSt3__123__dispatch_copy_or_moveB7v160006INS_17_ClassicAlgPolicyENS_20__move_backward_loopIS1_EENS_23__move_backward_trivialEPfS5_S5_EENS_4pairIT2_T4_EES7_T3_S8_, symObjAddr: 0x5A5F4, symBinAddr: 0x10005E0F0, symSize: 0x44 }
  - { offsetInCU: 0x38D80, offset: 0x38D80, size: 0x8, addend: 0x0, symName: __ZNSt3__121__unwrap_and_dispatchB7v160006INS_10__overloadINS_20__move_backward_loopINS_17_ClassicAlgPolicyEEENS_23__move_backward_trivialEEEPfS7_S7_Li0EEENS_4pairIT0_T2_EES9_T1_SA_, symObjAddr: 0x5A638, symBinAddr: 0x10005E134, symSize: 0xB4 }
  - { offsetInCU: 0x38E0E, offset: 0x38E0E, size: 0x8, addend: 0x0, symName: __ZNSt3__114__unwrap_rangeB7v160006IPfS1_EENS_4pairIT0_S3_EET_S5_, symObjAddr: 0x5A6EC, symBinAddr: 0x10005E1E8, symSize: 0x60 }
  - { offsetInCU: 0x38F8C, offset: 0x38F8C, size: 0x8, addend: 0x0, symName: __ZNSt3__19make_pairB7v160006IPfS1_EENS_4pairINS_18__unwrap_ref_decayIT_E4typeENS3_IT0_E4typeEEEOS4_OS7_, symObjAddr: 0x5A794, symBinAddr: 0x10005E290, symSize: 0x38 }
  - { offsetInCU: 0x38FDB, offset: 0x38FDB, size: 0x8, addend: 0x0, symName: __ZNSt3__114__rewrap_rangeB7v160006IPfS1_EET_S2_T0_, symObjAddr: 0x5A7CC, symBinAddr: 0x10005E2C8, symSize: 0x2C }
  - { offsetInCU: 0x39027, offset: 0x39027, size: 0x8, addend: 0x0, symName: __ZNSt3__128__copy_backward_trivial_implB7v160006IffEENS_4pairIPT_PT0_EES3_S3_S5_, symObjAddr: 0x5A7F8, symBinAddr: 0x10005E2F4, symSize: 0x94 }
  - { offsetInCU: 0x3908F, offset: 0x3908F, size: 0x8, addend: 0x0, symName: __ZNSt3__19make_pairB7v160006IRPfS2_EENS_4pairINS_18__unwrap_ref_decayIT_E4typeENS4_IT0_E4typeEEEOS5_OS8_, symObjAddr: 0x5A88C, symBinAddr: 0x10005E388, symSize: 0x38 }
  - { offsetInCU: 0x390DE, offset: 0x390DE, size: 0x8, addend: 0x0, symName: __ZNSt3__14moveB7v160006IPfS1_EET0_T_S3_S2_, symObjAddr: 0x5A9A4, symBinAddr: 0x10005E4A0, symSize: 0x40 }
  - { offsetInCU: 0x39138, offset: 0x39138, size: 0x8, addend: 0x0, symName: __ZNSt3__16__moveB7v160006INS_17_ClassicAlgPolicyEPfS2_S2_EENS_4pairIT0_T2_EES4_T1_S5_, symObjAddr: 0x5AB14, symBinAddr: 0x10005E610, symSize: 0x44 }
  - { offsetInCU: 0x391A4, offset: 0x391A4, size: 0x8, addend: 0x0, symName: __ZNSt3__123__dispatch_copy_or_moveB7v160006INS_17_ClassicAlgPolicyENS_11__move_loopIS1_EENS_14__move_trivialEPfS5_S5_EENS_4pairIT2_T4_EES7_T3_S8_, symObjAddr: 0x5AB58, symBinAddr: 0x10005E654, symSize: 0x44 }
  - { offsetInCU: 0x39222, offset: 0x39222, size: 0x8, addend: 0x0, symName: __ZNSt3__121__unwrap_and_dispatchB7v160006INS_10__overloadINS_11__move_loopINS_17_ClassicAlgPolicyEEENS_14__move_trivialEEEPfS7_S7_Li0EEENS_4pairIT0_T2_EES9_T1_SA_, symObjAddr: 0x5AB9C, symBinAddr: 0x10005E698, symSize: 0xB4 }
  - { offsetInCU: 0x392B0, offset: 0x392B0, size: 0x8, addend: 0x0, symName: __ZNSt3__119__copy_trivial_implB7v160006IffEENS_4pairIPT_PT0_EES3_S3_S5_, symObjAddr: 0x5AC98, symBinAddr: 0x10005E794, symSize: 0x84 }
  - { offsetInCU: 0x39318, offset: 0x39318, size: 0x8, addend: 0x0, symName: __ZNSt3__19make_pairB7v160006IRPfS1_EENS_4pairINS_18__unwrap_ref_decayIT_E4typeENS4_IT0_E4typeEEEOS5_OS8_, symObjAddr: 0x5AD1C, symBinAddr: 0x10005E818, symSize: 0x38 }
  - { offsetInCU: 0x39367, offset: 0x39367, size: 0x8, addend: 0x0, symName: __ZNSt3__18distanceB7v160006INS_13move_iteratorIPfEEEENS_15iterator_traitsIT_E15difference_typeES5_S5_, symObjAddr: 0x5ADC4, symBinAddr: 0x10005E8C0, symSize: 0x3C }
  - { offsetInCU: 0x393AA, offset: 0x393AA, size: 0x8, addend: 0x0, symName: __ZNSt3__110__distanceB7v160006INS_13move_iteratorIPfEEEENS_15iterator_traitsIT_E15difference_typeES5_S5_NS_26random_access_iterator_tagE, symObjAddr: 0x5AEA0, symBinAddr: 0x10005E99C, symSize: 0x30 }
  - { offsetInCU: 0x393F8, offset: 0x393F8, size: 0x8, addend: 0x0, symName: __ZNSt3__1miB7v160006IPfS1_EEDTmicldtfp_4baseEcldtfp0_4baseEERKNS_13move_iteratorIT_EERKNS3_IT0_EE, symObjAddr: 0x5AED0, symBinAddr: 0x10005E9CC, symSize: 0x48 }
  - { offsetInCU: 0x39447, offset: 0x39447, size: 0x8, addend: 0x0, symName: __ZNSt3__142__uninitialized_allocator_move_if_noexceptB7v160006INS_9allocatorIfEEPfS3_fvEET1_RT_T0_S7_S4_, symObjAddr: 0x5AFB4, symBinAddr: 0x10005EAB0, symSize: 0x38 }
  - { offsetInCU: 0x394C4, offset: 0x394C4, size: 0x8, addend: 0x0, symName: __ZNSt3__1neB7v160006ERKNS_15__tree_iteratorINS_12__value_typeIiNS_4pairINS_6vectorINS_12basic_stringIcNS_11char_traitsIcEENS_9allocatorIcEEEENS7_IS9_EEEENS2_INS3_IiNS7_IiEEEENS3_IfNS7_IfEEEEEEEEEEPNS_11__tree_nodeISI_PvEElEESP_, symObjAddr: 0x5B650, symBinAddr: 0x10005F14C, symSize: 0x34 }
  - { offsetInCU: 0x39502, offset: 0x39502, size: 0x8, addend: 0x0, symName: __ZNSt3__1eqB7v160006ERKNS_15__tree_iteratorINS_12__value_typeIiNS_4pairINS_6vectorINS_12basic_stringIcNS_11char_traitsIcEENS_9allocatorIcEEEENS7_IS9_EEEENS2_INS3_IiNS7_IiEEEENS3_IfNS7_IfEEEEEEEEEEPNS_11__tree_nodeISI_PvEElEESP_, symObjAddr: 0x5B684, symBinAddr: 0x10005F180, symSize: 0x30 }
  - { offsetInCU: 0x395A4, offset: 0x395A4, size: 0x8, addend: 0x0, symName: __ZNSt3__1neB7v160006ERKNS_15__tree_iteratorINS_12__value_typeIiNS_4pairINS_12basic_stringIcNS_11char_traitsIcEENS_9allocatorIcEEEENS2_INS_6vectorIfNS6_IfEEEENS9_IiNS6_IiEEEEEEEEEEPNS_11__tree_nodeISG_PvEElEESN_, symObjAddr: 0x5BD7C, symBinAddr: 0x10005F878, symSize: 0x34 }
  - { offsetInCU: 0x395E2, offset: 0x395E2, size: 0x8, addend: 0x0, symName: __ZNSt3__1eqB7v160006ERKNS_15__tree_iteratorINS_12__value_typeIiNS_4pairINS_12basic_stringIcNS_11char_traitsIcEENS_9allocatorIcEEEENS2_INS_6vectorIfNS6_IfEEEENS9_IiNS6_IiEEEEEEEEEEPNS_11__tree_nodeISG_PvEElEESN_, symObjAddr: 0x5BDB0, symBinAddr: 0x10005F8AC, symSize: 0x30 }
  - { offsetInCU: 0x396A2, offset: 0x396A2, size: 0x8, addend: 0x0, symName: __ZNSt3__1neB7v160006ERKNS_15__tree_iteratorINS_12__value_typeIiNS_4pairINS_6vectorIiNS_9allocatorIiEEEENS3_IfNS4_IfEEEEEEEEPNS_11__tree_nodeISA_PvEElEESH_, symObjAddr: 0x5D440, symBinAddr: 0x100060F3C, symSize: 0x34 }
  - { offsetInCU: 0x396E0, offset: 0x396E0, size: 0x8, addend: 0x0, symName: __ZNSt3__1eqB7v160006ERKNS_15__tree_iteratorINS_12__value_typeIiNS_4pairINS_6vectorIiNS_9allocatorIiEEEENS3_IfNS4_IfEEEEEEEEPNS_11__tree_nodeISA_PvEElEESH_, symObjAddr: 0x5D474, symBinAddr: 0x100060F70, symSize: 0x30 }
  - { offsetInCU: 0x39782, offset: 0x39782, size: 0x8, addend: 0x0, symName: __ZNSt3__19transformB7v160006INS_20__map_const_iteratorINS_21__tree_const_iteratorINS_12__value_typeINS_12basic_stringIcNS_11char_traitsIcEENS_9allocatorIcEEEEN8nlohmann16json_abi_v3_11_210basic_jsonINS_3mapENS_6vectorES9_bxydS7_NSB_14adl_serializerENSE_IhNS7_IhEEEEEEEEPNS_11__tree_nodeISJ_PvEElEEEENS_15insert_iteratorINSD_IS9_iNS_4lessIS9_EENS7_INS_4pairIKS9_iEEEEEEEEZNSB_6detail9from_jsonISI_SX_Li0EEEvRKT_RT0_EUlRKNST_ISU_SI_EEE_EES14_S11_S11_S14_T1_, symObjAddr: 0x5DBC8, symBinAddr: 0x1000616C4, symSize: 0xC8 }
  - { offsetInCU: 0x397F3, offset: 0x397F3, size: 0x8, addend: 0x0, symName: __ZNSt3__18inserterB7v160006INS_3mapINS_12basic_stringIcNS_11char_traitsIcEENS_9allocatorIcEEEEiNS_4lessIS7_EENS5_INS_4pairIKS7_iEEEEEEEENS_15insert_iteratorIT_EERSG_NSG_8iteratorE, symObjAddr: 0x5DC90, symBinAddr: 0x10006178C, symSize: 0x40 }
  - { offsetInCU: 0x3990B, offset: 0x3990B, size: 0x8, addend: 0x0, symName: __ZNSt3__1eqB7v160006ERKNS_21__tree_const_iteratorINS_12__value_typeINS_12basic_stringIcNS_11char_traitsIcEENS_9allocatorIcEEEEiEEPNS_11__tree_nodeIS8_PvEElEESF_, symObjAddr: 0x5E738, symBinAddr: 0x100062234, symSize: 0x30 }
  - { offsetInCU: 0x39947, offset: 0x39947, size: 0x8, addend: 0x0, symName: __ZNSt3__14nextB7v160006INS_21__tree_const_iteratorINS_12__value_typeINS_12basic_stringIcNS_11char_traitsIcEENS_9allocatorIcEEEEiEEPNS_11__tree_nodeIS9_PvEElEEEENS_9enable_ifIXsr25__is_cpp17_input_iteratorIT_EE5valueESG_E4typeESG_NS_15iterator_traitsISG_E15difference_typeE, symObjAddr: 0x5EAA8, symBinAddr: 0x1000625A4, symSize: 0x50 }
  - { offsetInCU: 0x3998A, offset: 0x3998A, size: 0x8, addend: 0x0, symName: __ZNSt3__19__advanceB7v160006INS_21__tree_const_iteratorINS_12__value_typeINS_12basic_stringIcNS_11char_traitsIcEENS_9allocatorIcEEEEiEEPNS_11__tree_nodeIS9_PvEElEEEEvRT_NS_15iterator_traitsISF_E15difference_typeENS_26bidirectional_iterator_tagE, symObjAddr: 0x5ECF0, symBinAddr: 0x1000627EC, symSize: 0xA4 }
  - { offsetInCU: 0x399F2, offset: 0x399F2, size: 0x8, addend: 0x0, symName: __ZNSt3__1neB7v160006ERKNS_15__tree_iteratorINS_12__value_typeINS_12basic_stringIcNS_11char_traitsIcEENS_9allocatorIcEEEEiEEPNS_11__tree_nodeIS8_PvEElEESF_, symObjAddr: 0x5F9E0, symBinAddr: 0x1000634DC, symSize: 0x34 }
  - { offsetInCU: 0x39A30, offset: 0x39A30, size: 0x8, addend: 0x0, symName: __ZNSt3__1eqB7v160006ERKNS_15__tree_iteratorINS_12__value_typeINS_12basic_stringIcNS_11char_traitsIcEENS_9allocatorIcEEEEiEEPNS_11__tree_nodeIS8_PvEElEESF_, symObjAddr: 0x5FA14, symBinAddr: 0x100063510, symSize: 0x30 }
  - { offsetInCU: 0x39AD3, offset: 0x39AD3, size: 0x8, addend: 0x0, symName: __ZNSt3__125__debug_db_invalidate_allB7v160006INS_6vectorIhNS_9allocatorIhEEEEEEvPT_, symObjAddr: 0x60020, symBinAddr: 0x100063B1C, symSize: 0x10 }
  - { offsetInCU: 0x39B03, offset: 0x39B03, size: 0x8, addend: 0x0, symName: __ZNSt3__14copyB7v160006IPKcPcEET0_T_S5_S4_, symObjAddr: 0x60520, symBinAddr: 0x10006401C, symSize: 0x40 }
  - { offsetInCU: 0x39B5D, offset: 0x39B5D, size: 0x8, addend: 0x0, symName: __ZNSt3__16__copyB7v160006INS_17_ClassicAlgPolicyEPKcS3_PcEENS_4pairIT0_T2_EES6_T1_S7_, symObjAddr: 0x60560, symBinAddr: 0x10006405C, symSize: 0x44 }
  - { offsetInCU: 0x39BC9, offset: 0x39BC9, size: 0x8, addend: 0x0, symName: __ZNSt3__123__dispatch_copy_or_moveB7v160006INS_17_ClassicAlgPolicyENS_11__copy_loopIS1_EENS_14__copy_trivialEPKcS6_PcEENS_4pairIT2_T4_EES9_T3_SA_, symObjAddr: 0x605A4, symBinAddr: 0x1000640A0, symSize: 0x44 }
  - { offsetInCU: 0x39C47, offset: 0x39C47, size: 0x8, addend: 0x0, symName: __ZNSt3__121__unwrap_and_dispatchB7v160006INS_10__overloadINS_11__copy_loopINS_17_ClassicAlgPolicyEEENS_14__copy_trivialEEEPKcS8_PcLi0EEENS_4pairIT0_T2_EESB_T1_SC_, symObjAddr: 0x605E8, symBinAddr: 0x1000640E4, symSize: 0xB4 }
  - { offsetInCU: 0x39CD5, offset: 0x39CD5, size: 0x8, addend: 0x0, symName: __ZNSt3__114__unwrap_rangeB7v160006IPKcS2_EENS_4pairIT0_S4_EET_S6_, symObjAddr: 0x6069C, symBinAddr: 0x100064198, symSize: 0x60 }
  - { offsetInCU: 0x39E24, offset: 0x39E24, size: 0x8, addend: 0x0, symName: __ZNSt3__113__unwrap_iterB7v160006IPcNS_18__unwrap_iter_implIS1_Lb1EEELi0EEEDTclsrT0_8__unwrapclsr3stdE7declvalIT_EEEES5_, symObjAddr: 0x60744, symBinAddr: 0x100064240, symSize: 0x24 }
  - { offsetInCU: 0x39E68, offset: 0x39E68, size: 0x8, addend: 0x0, symName: __ZNSt3__19make_pairB7v160006IPKcPcEENS_4pairINS_18__unwrap_ref_decayIT_E4typeENS5_IT0_E4typeEEEOS6_OS9_, symObjAddr: 0x60768, symBinAddr: 0x100064264, symSize: 0x38 }
  - { offsetInCU: 0x39EB7, offset: 0x39EB7, size: 0x8, addend: 0x0, symName: __ZNSt3__114__rewrap_rangeB7v160006IPKcS2_EET_S3_T0_, symObjAddr: 0x607A0, symBinAddr: 0x10006429C, symSize: 0x2C }
  - { offsetInCU: 0x39F03, offset: 0x39F03, size: 0x8, addend: 0x0, symName: __ZNSt3__113__rewrap_iterB7v160006IPcS1_NS_18__unwrap_iter_implIS1_Lb1EEEEET_S4_T0_, symObjAddr: 0x607CC, symBinAddr: 0x1000642C8, symSize: 0x3C }
  - { offsetInCU: 0x39F58, offset: 0x39F58, size: 0x8, addend: 0x0, symName: __ZNSt3__19make_pairB7v160006IPKcS2_EENS_4pairINS_18__unwrap_ref_decayIT_E4typeENS4_IT0_E4typeEEEOS5_OS8_, symObjAddr: 0x60808, symBinAddr: 0x100064304, symSize: 0x38 }
  - { offsetInCU: 0x39FA7, offset: 0x39FA7, size: 0x8, addend: 0x0, symName: __ZNSt3__113__unwrap_iterB7v160006IPKcNS_18__unwrap_iter_implIS2_Lb1EEELi0EEEDTclsrT0_8__unwrapclsr3stdE7declvalIT_EEEES6_, symObjAddr: 0x60840, symBinAddr: 0x10006433C, symSize: 0x24 }
  - { offsetInCU: 0x3A112, offset: 0x3A112, size: 0x8, addend: 0x0, symName: __ZNSt3__119__copy_trivial_implB7v160006IKccEENS_4pairIPT_PT0_EES4_S4_S6_, symObjAddr: 0x608F8, symBinAddr: 0x1000643F4, symSize: 0x7C }
  - { offsetInCU: 0x3A17A, offset: 0x3A17A, size: 0x8, addend: 0x0, symName: __ZNSt3__19make_pairB7v160006IRPKcPcEENS_4pairINS_18__unwrap_ref_decayIT_E4typeENS6_IT0_E4typeEEEOS7_OSA_, symObjAddr: 0x60974, symBinAddr: 0x100064470, symSize: 0x38 }
  - { offsetInCU: 0x3A21C, offset: 0x3A21C, size: 0x8, addend: 0x0, symName: __ZNSt3__113__rewrap_iterB7v160006IPKcS2_NS_18__unwrap_iter_implIS2_Lb1EEEEET_S5_T0_, symObjAddr: 0x60AB0, symBinAddr: 0x1000645AC, symSize: 0x3C }
  - { offsetInCU: 0x3A271, offset: 0x3A271, size: 0x8, addend: 0x0, symName: __ZNSt3__16fill_nB7v160006IPcmcEET_S2_T0_RKT1_, symObjAddr: 0x60B7C, symBinAddr: 0x100064678, symSize: 0x44 }
  - { offsetInCU: 0x3A2D5, offset: 0x3A2D5, size: 0x8, addend: 0x0, symName: __ZNSt3__18__fill_nB7v160006IPcmcEET_S2_T0_RKT1_, symObjAddr: 0x60BC0, symBinAddr: 0x1000646BC, symSize: 0x64 }
  - { offsetInCU: 0x3A339, offset: 0x3A339, size: 0x8, addend: 0x0, symName: __ZNSt3__121__convert_to_integralB7v160006Em, symObjAddr: 0x60C24, symBinAddr: 0x100064720, symSize: 0x14 }
  - { offsetInCU: 0x3B43C, offset: 0x3B43C, size: 0x8, addend: 0x0, symName: __ZSt28__throw_bad_array_new_lengthB7v160006v, symObjAddr: 0x131D0, symBinAddr: 0x100016CCC, symSize: 0x34 }
  - { offsetInCU: 0x3C070, offset: 0x3C070, size: 0x8, addend: 0x0, symName: __ZN4Game9Inventory6skillsE, symObjAddr: 0x2F7770, symBinAddr: 0x100074038, symSize: 0x0 }
  - { offsetInCU: 0x3C083, offset: 0x3C083, size: 0x8, addend: 0x0, symName: __ZN4Game5Enemy8allEnemyE, symObjAddr: 0x2F7788, symBinAddr: 0x100074050, symSize: 0x0 }
  - { offsetInCU: 0x3C4F3, offset: 0x3C4F3, size: 0x8, addend: 0x0, symName: __ZN4Game5Skill9allSkillsE, symObjAddr: 0x2F77B8, symBinAddr: 0x100074080, symSize: 0x0 }
  - { offsetInCU: 0x3CB49, offset: 0x3CB49, size: 0x8, addend: 0x0, symName: __aa, symObjAddr: 0x2F77E8, symBinAddr: 0x1000740B0, symSize: 0x0 }
  - { offsetInCU: 0x3CB5F, offset: 0x3CB5F, size: 0x8, addend: 0x0, symName: _systemOS, symObjAddr: 0x67059, symBinAddr: 0x100074000, symSize: 0x0 }
  - { offsetInCU: 0x3CB83, offset: 0x3CB83, size: 0x8, addend: 0x0, symName: _playersPath, symObjAddr: 0x2F77F0, symBinAddr: 0x1000740B8, symSize: 0x0 }
  - { offsetInCU: 0x3CB99, offset: 0x3CB99, size: 0x8, addend: 0x0, symName: _itemsPath, symObjAddr: 0x2F7740, symBinAddr: 0x100074008, symSize: 0x0 }
  - { offsetInCU: 0x3CBAF, offset: 0x3CBAF, size: 0x8, addend: 0x0, symName: _skillsPath, symObjAddr: 0x2F77D0, symBinAddr: 0x100074098, symSize: 0x0 }
  - { offsetInCU: 0x3CBC5, offset: 0x3CBC5, size: 0x8, addend: 0x0, symName: _enemiesPath, symObjAddr: 0x2F77A0, symBinAddr: 0x100074068, symSize: 0x0 }
  - { offsetInCU: 0x3CBEE, offset: 0x3CBEE, size: 0x8, addend: 0x0, symName: __ZN8nlohmann16json_abi_v3_11_26detail12static_constINS1_10to_json_fnEE5valueE, symObjAddr: 0x66653, symBinAddr: 0x100069DF3, symSize: 0x0 }
  - { offsetInCU: 0x3E142, offset: 0x3E142, size: 0x8, addend: 0x0, symName: __ZN8nlohmann16json_abi_v3_11_26detail9dtoa_impl36get_cached_power_for_binary_exponentEi, symObjAddr: 0x4C020, symBinAddr: 0x10004FB1C, symSize: 0x22C }
  - { offsetInCU: 0x3E16E, offset: 0x3E16E, size: 0x8, addend: 0x0, symName: __ZZN8nlohmann16json_abi_v3_11_26detail9dtoa_impl36get_cached_power_for_binary_exponentEiE13kCachedPowers, symObjAddr: 0x66B68, symBinAddr: 0x10006A308, symSize: 0x0 }
  - { offsetInCU: 0x3E242, offset: 0x3E242, size: 0x8, addend: 0x0, symName: __ZN8nlohmann16json_abi_v3_11_26detail9dtoa_impl6grisu2IdEEvPcRiS5_T_, symObjAddr: 0x4B594, symBinAddr: 0x10004F090, symSize: 0xEC }
  - { offsetInCU: 0x3E2B1, offset: 0x3E2B1, size: 0x8, addend: 0x0, symName: __ZN8nlohmann16json_abi_v3_11_26detail9dtoa_impl13format_bufferEPciiii, symObjAddr: 0x4B680, symBinAddr: 0x10004F17C, symSize: 0x36C }
  - { offsetInCU: 0x3E339, offset: 0x3E339, size: 0x8, addend: 0x0, symName: __ZN8nlohmann16json_abi_v3_11_26detail9dtoa_impl18compute_boundariesIdEENS2_10boundariesET_, symObjAddr: 0x4B9EC, symBinAddr: 0x10004F4E8, symSize: 0x24C }
  - { offsetInCU: 0x3E448, offset: 0x3E448, size: 0x8, addend: 0x0, symName: __ZN8nlohmann16json_abi_v3_11_26detail9dtoa_impl6grisu2EPcRiS4_NS2_5diyfpES5_S5_, symObjAddr: 0x4BC38, symBinAddr: 0x10004F734, symSize: 0x1C0 }
  - { offsetInCU: 0x3E530, offset: 0x3E530, size: 0x8, addend: 0x0, symName: __ZN8nlohmann16json_abi_v3_11_26detail9dtoa_impl16reinterpret_bitsIydEET_T0_, symObjAddr: 0x4BDF8, symBinAddr: 0x10004F8F4, symSize: 0x1C }
  - { offsetInCU: 0x3E632, offset: 0x3E632, size: 0x8, addend: 0x0, symName: __ZN8nlohmann16json_abi_v3_11_26detail9dtoa_impl16grisu2_digit_genEPcRiS4_NS2_5diyfpES5_S5_, symObjAddr: 0x4C38C, symBinAddr: 0x10004FE88, symSize: 0x4A4 }
  - { offsetInCU: 0x3E7D0, offset: 0x3E7D0, size: 0x8, addend: 0x0, symName: __ZN8nlohmann16json_abi_v3_11_26detail9dtoa_impl18find_largest_pow10EjRj, symObjAddr: 0x4C94C, symBinAddr: 0x100050448, symSize: 0x1F8 }
  - { offsetInCU: 0x3E80D, offset: 0x3E80D, size: 0x8, addend: 0x0, symName: __ZN8nlohmann16json_abi_v3_11_26detail9dtoa_impl12grisu2_roundEPciyyyy, symObjAddr: 0x4CB44, symBinAddr: 0x100050640, symSize: 0x24C }
  - { offsetInCU: 0x3E881, offset: 0x3E881, size: 0x8, addend: 0x0, symName: __ZN8nlohmann16json_abi_v3_11_26detail9dtoa_impl15append_exponentEPci, symObjAddr: 0x4CDAC, symBinAddr: 0x1000508A8, symSize: 0x220 }
  - { offsetInCU: 0x3E906, offset: 0x3E906, size: 0x8, addend: 0x0, symName: __ZN8nlohmann16json_abi_v3_11_26detail12static_constINS1_12from_json_fnEE5valueE, symObjAddr: 0x67058, symBinAddr: 0x10006A7F8, symSize: 0x0 }
  - { offsetInCU: 0x3F1F9, offset: 0x3F1F9, size: 0x8, addend: 0x0, symName: __ZN8nlohmann16json_abi_v3_11_26detail13input_adapterERNSt3__113basic_istreamIcNS2_11char_traitsIcEEEE, symObjAddr: 0x24328, symBinAddr: 0x100027E24, symSize: 0x38 }
  - { offsetInCU: 0x3F37A, offset: 0x3F37A, size: 0x8, addend: 0x0, symName: __ZN8nlohmann16json_abi_v3_11_26detail6concatINSt3__112basic_stringIcNS3_11char_traitsIcEENS3_9allocatorIcEEEEJS9_S9_RKS9_EEET_DpOT0_, symObjAddr: 0x268E8, symBinAddr: 0x10002A3E4, symSize: 0xD8 }
  - { offsetInCU: 0x3F3F4, offset: 0x3F3F4, size: 0x8, addend: 0x0, symName: __ZN8nlohmann16json_abi_v3_11_26detail13concat_lengthINSt3__112basic_stringIcNS3_11char_traitsIcEENS3_9allocatorIcEEEEJS9_RKS9_EEEmRKT_DpOT0_, symObjAddr: 0x26AD8, symBinAddr: 0x10002A5D4, symSize: 0x48 }
  - { offsetInCU: 0x3F45A, offset: 0x3F45A, size: 0x8, addend: 0x0, symName: __ZN8nlohmann16json_abi_v3_11_26detail11concat_intoINSt3__112basic_stringIcNS3_11char_traitsIcEENS3_9allocatorIcEEEES9_JS9_RKS9_ELi0EEEvRT_OT0_DpOT1_, symObjAddr: 0x26B20, symBinAddr: 0x10002A61C, symSize: 0x44 }
  - { offsetInCU: 0x3F4D8, offset: 0x3F4D8, size: 0x8, addend: 0x0, symName: __ZN8nlohmann16json_abi_v3_11_26detail13concat_lengthINSt3__112basic_stringIcNS3_11char_traitsIcEENS3_9allocatorIcEEEEJRKS9_EEEmRKT_DpOT0_, symObjAddr: 0x26BB8, symBinAddr: 0x10002A6B4, symSize: 0x40 }
  - { offsetInCU: 0x3F529, offset: 0x3F529, size: 0x8, addend: 0x0, symName: __ZN8nlohmann16json_abi_v3_11_26detail13concat_lengthINSt3__112basic_stringIcNS3_11char_traitsIcEENS3_9allocatorIcEEEEJEEEmRKT_DpOT0_, symObjAddr: 0x26C54, symBinAddr: 0x10002A750, symSize: 0x38 }
  - { offsetInCU: 0x3F566, offset: 0x3F566, size: 0x8, addend: 0x0, symName: __ZN8nlohmann16json_abi_v3_11_26detail13concat_lengthEv, symObjAddr: 0x26C8C, symBinAddr: 0x10002A788, symSize: 0x8 }
  - { offsetInCU: 0x3F585, offset: 0x3F585, size: 0x8, addend: 0x0, symName: __ZN8nlohmann16json_abi_v3_11_26detail11concat_intoINSt3__112basic_stringIcNS3_11char_traitsIcEENS3_9allocatorIcEEEES9_JRKS9_ELi0EEEvRT_OT0_DpOT1_, symObjAddr: 0x26CE0, symBinAddr: 0x10002A7DC, symSize: 0x3C }
  - { offsetInCU: 0x3F5F0, offset: 0x3F5F0, size: 0x8, addend: 0x0, symName: __ZN8nlohmann16json_abi_v3_11_26detail11concat_intoINSt3__112basic_stringIcNS3_11char_traitsIcEENS3_9allocatorIcEEEERKS9_JELi0EEEvRT_OT0_DpOT1_, symObjAddr: 0x26D1C, symBinAddr: 0x10002A818, symSize: 0x34 }
  - { offsetInCU: 0x3F646, offset: 0x3F646, size: 0x8, addend: 0x0, symName: __ZN8nlohmann16json_abi_v3_11_26detail11concat_intoINSt3__112basic_stringIcNS3_11char_traitsIcEENS3_9allocatorIcEEEEEEvRT_, symObjAddr: 0x26D50, symBinAddr: 0x10002A84C, symSize: 0x10 }
  - { offsetInCU: 0x3F676, offset: 0x3F676, size: 0x8, addend: 0x0, symName: __ZN8nlohmann16json_abi_v3_11_26detail6concatINSt3__112basic_stringIcNS3_11char_traitsIcEENS3_9allocatorIcEEEEJRA17_KcRKS9_cS9_RA3_SA_EEET_DpOT0_, symObjAddr: 0x26D60, symBinAddr: 0x10002A85C, symSize: 0xF0 }
  - { offsetInCU: 0x3F718, offset: 0x3F718, size: 0x8, addend: 0x0, symName: __ZN8nlohmann16json_abi_v3_11_26detail13concat_lengthIJRKNSt3__112basic_stringIcNS3_11char_traitsIcEENS3_9allocatorIcEEEEcS9_RA3_KcEEEmPSC_DpOT_, symObjAddr: 0x26E50, symBinAddr: 0x10002A94C, symSize: 0x58 }
  - { offsetInCU: 0x3F79D, offset: 0x3F79D, size: 0x8, addend: 0x0, symName: __ZN8nlohmann16json_abi_v3_11_26detail11concat_intoINSt3__112basic_stringIcNS3_11char_traitsIcEENS3_9allocatorIcEEEERA17_KcJRKS9_cS9_RA3_SA_ELi0EEEvRT_OT0_DpOT1_, symObjAddr: 0x26EA8, symBinAddr: 0x10002A9A4, symSize: 0x54 }
  - { offsetInCU: 0x3F843, offset: 0x3F843, size: 0x8, addend: 0x0, symName: __ZN8nlohmann16json_abi_v3_11_26detail13concat_lengthINSt3__112basic_stringIcNS3_11char_traitsIcEENS3_9allocatorIcEEEEJcS9_RA3_KcEEEmRKT_DpOT0_, symObjAddr: 0x26EFC, symBinAddr: 0x10002A9F8, symSize: 0x54 }
  - { offsetInCU: 0x3F8BC, offset: 0x3F8BC, size: 0x8, addend: 0x0, symName: __ZN8nlohmann16json_abi_v3_11_26detail13concat_lengthIJNSt3__112basic_stringIcNS3_11char_traitsIcEENS3_9allocatorIcEEEERA3_KcEEEmcDpOT_, symObjAddr: 0x26F50, symBinAddr: 0x10002AA4C, symSize: 0x34 }
  - { offsetInCU: 0x3F915, offset: 0x3F915, size: 0x8, addend: 0x0, symName: __ZN8nlohmann16json_abi_v3_11_26detail13concat_lengthINSt3__112basic_stringIcNS3_11char_traitsIcEENS3_9allocatorIcEEEEJRA3_KcEEEmRKT_DpOT0_, symObjAddr: 0x26F84, symBinAddr: 0x10002AA80, symSize: 0x40 }
  - { offsetInCU: 0x3F966, offset: 0x3F966, size: 0x8, addend: 0x0, symName: __ZN8nlohmann16json_abi_v3_11_26detail13concat_lengthIJEEEmPKcDpOT_, symObjAddr: 0x26FC4, symBinAddr: 0x10002AAC0, symSize: 0x38 }
  - { offsetInCU: 0x3F99A, offset: 0x3F99A, size: 0x8, addend: 0x0, symName: __ZN8nlohmann16json_abi_v3_11_26detail11concat_intoINSt3__112basic_stringIcNS3_11char_traitsIcEENS3_9allocatorIcEEEERKS9_JcS9_RA3_KcELi0EEEvRT_OT0_DpOT1_, symObjAddr: 0x26FFC, symBinAddr: 0x10002AAF8, symSize: 0x4C }
  - { offsetInCU: 0x3FA2D, offset: 0x3FA2D, size: 0x8, addend: 0x0, symName: __ZN8nlohmann16json_abi_v3_11_26detail11concat_intoINSt3__112basic_stringIcNS3_11char_traitsIcEENS3_9allocatorIcEEEEcJS9_RA3_KcELi0EEEvRT_OT0_DpOT1_, symObjAddr: 0x27048, symBinAddr: 0x10002AB44, symSize: 0x48 }
  - { offsetInCU: 0x3FAAC, offset: 0x3FAAC, size: 0x8, addend: 0x0, symName: __ZN8nlohmann16json_abi_v3_11_26detail11concat_intoINSt3__112basic_stringIcNS3_11char_traitsIcEENS3_9allocatorIcEEEES9_JRA3_KcELi0EEEvRT_OT0_DpOT1_, symObjAddr: 0x270C4, symBinAddr: 0x10002ABC0, symSize: 0x3C }
  - { offsetInCU: 0x3FB17, offset: 0x3FB17, size: 0x8, addend: 0x0, symName: __ZN8nlohmann16json_abi_v3_11_26detail11concat_intoINSt3__112basic_stringIcNS3_11char_traitsIcEENS3_9allocatorIcEEEERA3_KcJELi0EEEvRT_OT0_DpOT1_, symObjAddr: 0x27100, symBinAddr: 0x10002ABFC, symSize: 0x34 }
  - { offsetInCU: 0x404E3, offset: 0x404E3, size: 0x8, addend: 0x0, symName: __ZN8nlohmann16json_abi_v3_11_26detail6concatINSt3__112basic_stringIcNS3_11char_traitsIcEENS3_9allocatorIcEEEEJRA26_KcS9_cEEET_DpOT0_, symObjAddr: 0x3251C, symBinAddr: 0x100036018, symSize: 0xD8 }
  - { offsetInCU: 0x4055D, offset: 0x4055D, size: 0x8, addend: 0x0, symName: __ZN8nlohmann16json_abi_v3_11_26detail6concatINSt3__112basic_stringIcNS3_11char_traitsIcEENS3_9allocatorIcEEEEJRA24_KcS9_EEET_DpOT0_, symObjAddr: 0x33044, symBinAddr: 0x100036B40, symSize: 0xCC }
  - { offsetInCU: 0x405C3, offset: 0x405C3, size: 0x8, addend: 0x0, symName: __ZN8nlohmann16json_abi_v3_11_26detail13concat_lengthIJNSt3__112basic_stringIcNS3_11char_traitsIcEENS3_9allocatorIcEEEEEEEmPKcDpOT_, symObjAddr: 0x34ABC, symBinAddr: 0x1000385B8, symSize: 0x40 }
  - { offsetInCU: 0x4060C, offset: 0x4060C, size: 0x8, addend: 0x0, symName: __ZN8nlohmann16json_abi_v3_11_26detail11concat_intoINSt3__112basic_stringIcNS3_11char_traitsIcEENS3_9allocatorIcEEEERA24_KcJS9_ELi0EEEvRT_OT0_DpOT1_, symObjAddr: 0x34AFC, symBinAddr: 0x1000385F8, symSize: 0x3C }
  - { offsetInCU: 0x40677, offset: 0x40677, size: 0x8, addend: 0x0, symName: __ZN8nlohmann16json_abi_v3_11_26detail11concat_intoINSt3__112basic_stringIcNS3_11char_traitsIcEENS3_9allocatorIcEEEES9_JELi0EEEvRT_OT0_DpOT1_, symObjAddr: 0x34B38, symBinAddr: 0x100038634, symSize: 0x34 }
  - { offsetInCU: 0x40840, offset: 0x40840, size: 0x8, addend: 0x0, symName: __ZN8nlohmann16json_abi_v3_11_26detail6concatINSt3__112basic_stringIcNS3_11char_traitsIcEENS3_9allocatorIcEEEEJRA25_KcPSA_EEET_DpOT0_, symObjAddr: 0x35B34, symBinAddr: 0x100039630, symSize: 0xCC }
  - { offsetInCU: 0x408A6, offset: 0x408A6, size: 0x8, addend: 0x0, symName: __ZN8nlohmann16json_abi_v3_11_26detail13concat_lengthIJPKcEEEmS4_DpOT_, symObjAddr: 0x36C8C, symBinAddr: 0x10003A788, symSize: 0x44 }
  - { offsetInCU: 0x408EF, offset: 0x408EF, size: 0x8, addend: 0x0, symName: __ZN8nlohmann16json_abi_v3_11_26detail11concat_intoINSt3__112basic_stringIcNS3_11char_traitsIcEENS3_9allocatorIcEEEERA25_KcJPSA_ELi0EEEvRT_OT0_DpOT1_, symObjAddr: 0x36CD0, symBinAddr: 0x10003A7CC, symSize: 0x3C }
  - { offsetInCU: 0x4095A, offset: 0x4095A, size: 0x8, addend: 0x0, symName: __ZN8nlohmann16json_abi_v3_11_26detail11concat_intoINSt3__112basic_stringIcNS3_11char_traitsIcEENS3_9allocatorIcEEEEPKcJELi0EEEvRT_OT0_DpOT1_, symObjAddr: 0x36D0C, symBinAddr: 0x10003A808, symSize: 0x38 }
  - { offsetInCU: 0x409B0, offset: 0x409B0, size: 0x8, addend: 0x0, symName: __ZN8nlohmann16json_abi_v3_11_26detail7to_jsonINS0_10basic_jsonINSt3__13mapENS4_6vectorENS4_12basic_stringIcNS4_11char_traitsIcEENS4_9allocatorIcEEEEbxydSA_NS0_14adl_serializerENS6_IhNSA_IhEEEEEESC_Li0EEEvRT_RKT0_, symObjAddr: 0x3712C, symBinAddr: 0x10003AC28, symSize: 0x2C }
  - { offsetInCU: 0x40A31, offset: 0x40A31, size: 0x8, addend: 0x0, symName: __ZN8nlohmann16json_abi_v3_11_26detail6concatINSt3__112basic_stringIcNS3_11char_traitsIcEENS3_9allocatorIcEEEEJRA23_KcS9_EEET_DpOT0_, symObjAddr: 0x38874, symBinAddr: 0x10003C370, symSize: 0xCC }
  - { offsetInCU: 0x40A98, offset: 0x40A98, size: 0x8, addend: 0x0, symName: __ZN8nlohmann16json_abi_v3_11_26detail11concat_intoINSt3__112basic_stringIcNS3_11char_traitsIcEENS3_9allocatorIcEEEERA23_KcJS9_ELi0EEEvRT_OT0_DpOT1_, symObjAddr: 0x38940, symBinAddr: 0x10003C43C, symSize: 0x3C }
  - { offsetInCU: 0x40B02, offset: 0x40B02, size: 0x8, addend: 0x0, symName: __ZN8nlohmann16json_abi_v3_11_26detail13concat_lengthIJNSt3__112basic_stringIcNS3_11char_traitsIcEENS3_9allocatorIcEEEEcEEEmPKcDpOT_, symObjAddr: 0x38A90, symBinAddr: 0x10003C58C, symSize: 0x48 }
  - { offsetInCU: 0x40B5F, offset: 0x40B5F, size: 0x8, addend: 0x0, symName: __ZN8nlohmann16json_abi_v3_11_26detail11concat_intoINSt3__112basic_stringIcNS3_11char_traitsIcEENS3_9allocatorIcEEEERA26_KcJS9_cELi0EEEvRT_OT0_DpOT1_, symObjAddr: 0x38AD8, symBinAddr: 0x10003C5D4, symSize: 0x44 }
  - { offsetInCU: 0x40BDD, offset: 0x40BDD, size: 0x8, addend: 0x0, symName: __ZN8nlohmann16json_abi_v3_11_26detail13concat_lengthINSt3__112basic_stringIcNS3_11char_traitsIcEENS3_9allocatorIcEEEEJcEEEmRKT_DpOT0_, symObjAddr: 0x38B1C, symBinAddr: 0x10003C618, symSize: 0x44 }
  - { offsetInCU: 0x40C2E, offset: 0x40C2E, size: 0x8, addend: 0x0, symName: __ZN8nlohmann16json_abi_v3_11_26detail13concat_lengthIJEEEmcDpOT_, symObjAddr: 0x38B60, symBinAddr: 0x10003C65C, symSize: 0x24 }
  - { offsetInCU: 0x40C5F, offset: 0x40C5F, size: 0x8, addend: 0x0, symName: __ZN8nlohmann16json_abi_v3_11_26detail11concat_intoINSt3__112basic_stringIcNS3_11char_traitsIcEENS3_9allocatorIcEEEES9_JcELi0EEEvRT_OT0_DpOT1_, symObjAddr: 0x38B84, symBinAddr: 0x10003C680, symSize: 0x3C }
  - { offsetInCU: 0x40CCA, offset: 0x40CCA, size: 0x8, addend: 0x0, symName: __ZN8nlohmann16json_abi_v3_11_26detail11concat_intoINSt3__112basic_stringIcNS3_11char_traitsIcEENS3_9allocatorIcEEEEcJELi0EEEvRT_OT0_DpOT1_, symObjAddr: 0x38BC0, symBinAddr: 0x10003C6BC, symSize: 0x38 }
  - { offsetInCU: 0x40D20, offset: 0x40D20, size: 0x8, addend: 0x0, symName: __ZN8nlohmann16json_abi_v3_11_26detail7to_jsonINS0_10basic_jsonINSt3__13mapENS4_6vectorENS4_12basic_stringIcNS4_11char_traitsIcEENS4_9allocatorIcEEEEbxydSA_NS0_14adl_serializerENS6_IhNSA_IhEEEEEEdLi0EEEvRT_T0_, symObjAddr: 0x391F0, symBinAddr: 0x10003CCEC, symSize: 0x2C }
  - { offsetInCU: 0x40DA2, offset: 0x40DA2, size: 0x8, addend: 0x0, symName: __ZN8nlohmann16json_abi_v3_11_26detail7to_jsonINS0_10basic_jsonINSt3__13mapENS4_6vectorENS4_12basic_stringIcNS4_11char_traitsIcEENS4_9allocatorIcEEEEbxydSA_NS0_14adl_serializerENS6_IhNSA_IhEEEEEEbLi0EEEvRT_T0_, symObjAddr: 0x398B0, symBinAddr: 0x10003D3AC, symSize: 0x38 }
  - { offsetInCU: 0x40E24, offset: 0x40E24, size: 0x8, addend: 0x0, symName: __ZN8nlohmann16json_abi_v3_11_26detail7to_jsonINS0_10basic_jsonINSt3__13mapENS4_6vectorENS4_12basic_stringIcNS4_11char_traitsIcEENS4_9allocatorIcEEEEbxydSA_NS0_14adl_serializerENS6_IhNSA_IhEEEEEExLi0EEEvRT_T0_, symObjAddr: 0x3A478, symBinAddr: 0x10003DF74, symSize: 0x2C }
  - { offsetInCU: 0x40EA6, offset: 0x40EA6, size: 0x8, addend: 0x0, symName: __ZN8nlohmann16json_abi_v3_11_26detail7to_jsonINS0_10basic_jsonINSt3__13mapENS4_6vectorENS4_12basic_stringIcNS4_11char_traitsIcEENS4_9allocatorIcEEEEbxydSA_NS0_14adl_serializerENS6_IhNSA_IhEEEEEEyLi0EEEvRT_T0_, symObjAddr: 0x3B010, symBinAddr: 0x10003EB0C, symSize: 0x2C }
  - { offsetInCU: 0x40F27, offset: 0x40F27, size: 0x8, addend: 0x0, symName: __ZN8nlohmann16json_abi_v3_11_26detail6concatINSt3__112basic_stringIcNS3_11char_traitsIcEENS3_9allocatorIcEEEEJS9_RA12_KcS9_RA3_SA_S9_RKS9_EEET_DpOT0_, symObjAddr: 0x3B3D0, symBinAddr: 0x10003EECC, symSize: 0xFC }
  - { offsetInCU: 0x40FDD, offset: 0x40FDD, size: 0x8, addend: 0x0, symName: __ZN8nlohmann16json_abi_v3_11_26detail13concat_lengthINSt3__112basic_stringIcNS3_11char_traitsIcEENS3_9allocatorIcEEEEJRA12_KcS9_RA3_SA_S9_RKS9_EEEmRKT_DpOT0_, symObjAddr: 0x3B5CC, symBinAddr: 0x10003F0C8, symSize: 0x60 }
  - { offsetInCU: 0x4107F, offset: 0x4107F, size: 0x8, addend: 0x0, symName: __ZN8nlohmann16json_abi_v3_11_26detail11concat_intoINSt3__112basic_stringIcNS3_11char_traitsIcEENS3_9allocatorIcEEEES9_JRA12_KcS9_RA3_SA_S9_RKS9_ELi0EEEvRT_OT0_DpOT1_, symObjAddr: 0x3B62C, symBinAddr: 0x10003F128, symSize: 0x5C }
  - { offsetInCU: 0x41139, offset: 0x41139, size: 0x8, addend: 0x0, symName: __ZN8nlohmann16json_abi_v3_11_26detail13concat_lengthIJNSt3__112basic_stringIcNS3_11char_traitsIcEENS3_9allocatorIcEEEERA3_KcS9_RKS9_EEEmPSA_DpOT_, symObjAddr: 0x3B688, symBinAddr: 0x10003F184, symSize: 0x58 }
  - { offsetInCU: 0x411BD, offset: 0x411BD, size: 0x8, addend: 0x0, symName: __ZN8nlohmann16json_abi_v3_11_26detail13concat_lengthINSt3__112basic_stringIcNS3_11char_traitsIcEENS3_9allocatorIcEEEEJRA3_KcS9_RKS9_EEEmRKT_DpOT0_, symObjAddr: 0x3B6E0, symBinAddr: 0x10003F1DC, symSize: 0x50 }
  - { offsetInCU: 0x41236, offset: 0x41236, size: 0x8, addend: 0x0, symName: __ZN8nlohmann16json_abi_v3_11_26detail13concat_lengthIJNSt3__112basic_stringIcNS3_11char_traitsIcEENS3_9allocatorIcEEEERKS9_EEEmPKcDpOT_, symObjAddr: 0x3B730, symBinAddr: 0x10003F22C, symSize: 0x48 }
  - { offsetInCU: 0x41293, offset: 0x41293, size: 0x8, addend: 0x0, symName: __ZN8nlohmann16json_abi_v3_11_26detail11concat_intoINSt3__112basic_stringIcNS3_11char_traitsIcEENS3_9allocatorIcEEEERA12_KcJS9_RA3_SA_S9_RKS9_ELi0EEEvRT_OT0_DpOT1_, symObjAddr: 0x3B778, symBinAddr: 0x10003F274, symSize: 0x54 }
  - { offsetInCU: 0x4133A, offset: 0x4133A, size: 0x8, addend: 0x0, symName: __ZN8nlohmann16json_abi_v3_11_26detail11concat_intoINSt3__112basic_stringIcNS3_11char_traitsIcEENS3_9allocatorIcEEEES9_JRA3_KcS9_RKS9_ELi0EEEvRT_OT0_DpOT1_, symObjAddr: 0x3B7CC, symBinAddr: 0x10003F2C8, symSize: 0x4C }
  - { offsetInCU: 0x413CD, offset: 0x413CD, size: 0x8, addend: 0x0, symName: __ZN8nlohmann16json_abi_v3_11_26detail11concat_intoINSt3__112basic_stringIcNS3_11char_traitsIcEENS3_9allocatorIcEEEERA3_KcJS9_RKS9_ELi0EEEvRT_OT0_DpOT1_, symObjAddr: 0x3B818, symBinAddr: 0x10003F314, symSize: 0x44 }
  - { offsetInCU: 0x4144B, offset: 0x4144B, size: 0x8, addend: 0x0, symName: __ZN8nlohmann16json_abi_v3_11_26detail6concatINSt3__112basic_stringIcNS3_11char_traitsIcEENS3_9allocatorIcEEEEJRA10_KcS9_SC_S9_EEET_DpOT0_, symObjAddr: 0x3B85C, symBinAddr: 0x10003F358, symSize: 0xE4 }
  - { offsetInCU: 0x414D9, offset: 0x414D9, size: 0x8, addend: 0x0, symName: __ZN8nlohmann16json_abi_v3_11_26detail13concat_lengthIJNSt3__112basic_stringIcNS3_11char_traitsIcEENS3_9allocatorIcEEEERA10_KcS9_EEEmPSA_DpOT_, symObjAddr: 0x3B940, symBinAddr: 0x10003F43C, symSize: 0x50 }
  - { offsetInCU: 0x4154A, offset: 0x4154A, size: 0x8, addend: 0x0, symName: __ZN8nlohmann16json_abi_v3_11_26detail11concat_intoINSt3__112basic_stringIcNS3_11char_traitsIcEENS3_9allocatorIcEEEERA10_KcJS9_SC_S9_ELi0EEEvRT_OT0_DpOT1_, symObjAddr: 0x3B990, symBinAddr: 0x10003F48C, symSize: 0x4C }
  - { offsetInCU: 0x415DC, offset: 0x415DC, size: 0x8, addend: 0x0, symName: __ZN8nlohmann16json_abi_v3_11_26detail13concat_lengthINSt3__112basic_stringIcNS3_11char_traitsIcEENS3_9allocatorIcEEEEJRA10_KcS9_EEEmRKT_DpOT0_, symObjAddr: 0x3B9DC, symBinAddr: 0x10003F4D8, symSize: 0x48 }
  - { offsetInCU: 0x41642, offset: 0x41642, size: 0x8, addend: 0x0, symName: __ZN8nlohmann16json_abi_v3_11_26detail11concat_intoINSt3__112basic_stringIcNS3_11char_traitsIcEENS3_9allocatorIcEEEES9_JRA10_KcS9_ELi0EEEvRT_OT0_DpOT1_, symObjAddr: 0x3BA24, symBinAddr: 0x10003F520, symSize: 0x44 }
  - { offsetInCU: 0x416C1, offset: 0x416C1, size: 0x8, addend: 0x0, symName: __ZN8nlohmann16json_abi_v3_11_26detail11concat_intoINSt3__112basic_stringIcNS3_11char_traitsIcEENS3_9allocatorIcEEEERA10_KcJS9_ELi0EEEvRT_OT0_DpOT1_, symObjAddr: 0x3BA68, symBinAddr: 0x10003F564, symSize: 0x3C }
  - { offsetInCU: 0x4172B, offset: 0x4172B, size: 0x8, addend: 0x0, symName: __ZN8nlohmann16json_abi_v3_11_26detail6concatINSt3__112basic_stringIcNS3_11char_traitsIcEENS3_9allocatorIcEEEEJRA15_KcRKS9_cEEET_DpOT0_, symObjAddr: 0x3BB34, symBinAddr: 0x10003F630, symSize: 0xD8 }
  - { offsetInCU: 0x417A5, offset: 0x417A5, size: 0x8, addend: 0x0, symName: __ZN8nlohmann16json_abi_v3_11_26detail6concatINSt3__112basic_stringIcNS3_11char_traitsIcEENS3_9allocatorIcEEEEJPKcRA15_SA_S9_cEEET_DpOT0_, symObjAddr: 0x3BC38, symBinAddr: 0x10003F734, symSize: 0xE8 }
  - { offsetInCU: 0x41833, offset: 0x41833, size: 0x8, addend: 0x0, symName: __ZN8nlohmann16json_abi_v3_11_26detail6concatINSt3__112basic_stringIcNS3_11char_traitsIcEENS3_9allocatorIcEEEEJRA12_KcPSA_EEET_DpOT0_, symObjAddr: 0x3BD38, symBinAddr: 0x10003F834, symSize: 0xC4 }
  - { offsetInCU: 0x41899, offset: 0x41899, size: 0x8, addend: 0x0, symName: __ZN8nlohmann16json_abi_v3_11_26detail13concat_lengthIJRKNSt3__112basic_stringIcNS3_11char_traitsIcEENS3_9allocatorIcEEEEcEEEmPKcDpOT_, symObjAddr: 0x3BF88, symBinAddr: 0x10003FA84, symSize: 0x48 }
  - { offsetInCU: 0x418F6, offset: 0x418F6, size: 0x8, addend: 0x0, symName: __ZN8nlohmann16json_abi_v3_11_26detail11concat_intoINSt3__112basic_stringIcNS3_11char_traitsIcEENS3_9allocatorIcEEEERA15_KcJRKS9_cELi0EEEvRT_OT0_DpOT1_, symObjAddr: 0x3BFD0, symBinAddr: 0x10003FACC, symSize: 0x44 }
  - { offsetInCU: 0x41975, offset: 0x41975, size: 0x8, addend: 0x0, symName: __ZN8nlohmann16json_abi_v3_11_26detail11concat_intoINSt3__112basic_stringIcNS3_11char_traitsIcEENS3_9allocatorIcEEEERKS9_JcELi0EEEvRT_OT0_DpOT1_, symObjAddr: 0x3C014, symBinAddr: 0x10003FB10, symSize: 0x3C }
  - { offsetInCU: 0x419DF, offset: 0x419DF, size: 0x8, addend: 0x0, symName: __ZN8nlohmann16json_abi_v3_11_26detail13concat_lengthIJRA15_KcNSt3__112basic_stringIcNS6_11char_traitsIcEENS6_9allocatorIcEEEEcEEEmPS3_DpOT_, symObjAddr: 0x3C050, symBinAddr: 0x10003FB4C, symSize: 0x50 }
  - { offsetInCU: 0x41A50, offset: 0x41A50, size: 0x8, addend: 0x0, symName: __ZN8nlohmann16json_abi_v3_11_26detail11concat_intoINSt3__112basic_stringIcNS3_11char_traitsIcEENS3_9allocatorIcEEEEPKcJRA15_SA_S9_cELi0EEEvRT_OT0_DpOT1_, symObjAddr: 0x3C0A0, symBinAddr: 0x10003FB9C, symSize: 0x50 }
  - { offsetInCU: 0x41AE3, offset: 0x41AE3, size: 0x8, addend: 0x0, symName: __ZN8nlohmann16json_abi_v3_11_26detail11concat_intoINSt3__112basic_stringIcNS3_11char_traitsIcEENS3_9allocatorIcEEEERA15_KcJS9_cELi0EEEvRT_OT0_DpOT1_, symObjAddr: 0x3C0F0, symBinAddr: 0x10003FBEC, symSize: 0x44 }
  - { offsetInCU: 0x41B62, offset: 0x41B62, size: 0x8, addend: 0x0, symName: __ZN8nlohmann16json_abi_v3_11_26detail11concat_intoINSt3__112basic_stringIcNS3_11char_traitsIcEENS3_9allocatorIcEEEERA12_KcJPSA_ELi0EEEvRT_OT0_DpOT1_, symObjAddr: 0x3C134, symBinAddr: 0x10003FC30, symSize: 0x3C }
  - { offsetInCU: 0x41BCC, offset: 0x41BCC, size: 0x8, addend: 0x0, symName: __ZN8nlohmann16json_abi_v3_11_26detail6concatINSt3__112basic_stringIcNS3_11char_traitsIcEENS3_9allocatorIcEEEEJRA51_KcPSA_EEET_DpOT0_, symObjAddr: 0x40ED4, symBinAddr: 0x1000449D0, symSize: 0xC4 }
  - { offsetInCU: 0x41C33, offset: 0x41C33, size: 0x8, addend: 0x0, symName: __ZN8nlohmann16json_abi_v3_11_26detail11concat_intoINSt3__112basic_stringIcNS3_11char_traitsIcEENS3_9allocatorIcEEEERA51_KcJPSA_ELi0EEEvRT_OT0_DpOT1_, symObjAddr: 0x41364, symBinAddr: 0x100044E60, symSize: 0x3C }
  - { offsetInCU: 0x41C9E, offset: 0x41C9E, size: 0x8, addend: 0x0, symName: __ZN8nlohmann16json_abi_v3_11_26detail7to_jsonINS0_10basic_jsonINSt3__13mapENS4_6vectorENS4_12basic_stringIcNS4_11char_traitsIcEENS4_9allocatorIcEEEEbxydSA_NS0_14adl_serializerENS6_IhNSA_IhEEEEEENS6_ISC_NSA_ISC_EEEENS4_4pairINS6_IiNSA_IiEEEESL_EELi0EEEvRT_RKNSJ_IT0_T1_EE, symObjAddr: 0x42868, symBinAddr: 0x100046364, symSize: 0x1BC }
  - { offsetInCU: 0x41CF9, offset: 0x41CF9, size: 0x8, addend: 0x0, symName: __ZN8nlohmann16json_abi_v3_11_26detail7to_jsonINS0_10basic_jsonINSt3__13mapENS4_6vectorENS4_12basic_stringIcNS4_11char_traitsIcEENS4_9allocatorIcEEEEbxydSA_NS0_14adl_serializerENS6_IhNSA_IhEEEEEENS6_ISC_NSA_ISC_EEEELi0EEEvRT_RKT0_, symObjAddr: 0x42C34, symBinAddr: 0x100046730, symSize: 0x2C }
  - { offsetInCU: 0x41DE8, offset: 0x41DE8, size: 0x8, addend: 0x0, symName: __ZN8nlohmann16json_abi_v3_11_26detail7to_jsonINS0_10basic_jsonINSt3__13mapENS4_6vectorENS4_12basic_stringIcNS4_11char_traitsIcEENS4_9allocatorIcEEEEbxydSA_NS0_14adl_serializerENS6_IhNSA_IhEEEEEENS6_IiNSA_IiEEEESI_Li0EEEvRT_RKNS4_4pairIT0_T1_EE, symObjAddr: 0x43EB0, symBinAddr: 0x1000479AC, symSize: 0x1BC }
  - { offsetInCU: 0x41E43, offset: 0x41E43, size: 0x8, addend: 0x0, symName: __ZN8nlohmann16json_abi_v3_11_26detail7to_jsonINS0_10basic_jsonINSt3__13mapENS4_6vectorENS4_12basic_stringIcNS4_11char_traitsIcEENS4_9allocatorIcEEEEbxydSA_NS0_14adl_serializerENS6_IhNSA_IhEEEEEENS6_IiNSA_IiEEEELi0EEEvRT_RKT0_, symObjAddr: 0x441C4, symBinAddr: 0x100047CC0, symSize: 0x2C }
  - { offsetInCU: 0x41E94, offset: 0x41E94, size: 0x8, addend: 0x0, symName: __ZN8nlohmann16json_abi_v3_11_26detail7to_jsonINS0_10basic_jsonINSt3__13mapENS4_6vectorENS4_12basic_stringIcNS4_11char_traitsIcEENS4_9allocatorIcEEEEbxydSA_NS0_14adl_serializerENS6_IhNSA_IhEEEEEEiLi0EEEvRT_T0_, symObjAddr: 0x44C18, symBinAddr: 0x100048714, symSize: 0x2C }
  - { offsetInCU: 0x41EE4, offset: 0x41EE4, size: 0x8, addend: 0x0, symName: __ZN8nlohmann16json_abi_v3_11_26detail6concatINSt3__112basic_stringIcNS3_11char_traitsIcEENS3_9allocatorIcEEEEJRA52_KcPSA_EEET_DpOT0_, symObjAddr: 0x45950, symBinAddr: 0x10004944C, symSize: 0xC4 }
  - { offsetInCU: 0x41F4B, offset: 0x41F4B, size: 0x8, addend: 0x0, symName: __ZN8nlohmann16json_abi_v3_11_26detail11concat_intoINSt3__112basic_stringIcNS3_11char_traitsIcEENS3_9allocatorIcEEEERA52_KcJPSA_ELi0EEEvRT_OT0_DpOT1_, symObjAddr: 0x45A14, symBinAddr: 0x100049510, symSize: 0x3C }
  - { offsetInCU: 0x41FB5, offset: 0x41FB5, size: 0x8, addend: 0x0, symName: __ZN8nlohmann16json_abi_v3_11_26detail6concatINSt3__112basic_stringIcNS3_11char_traitsIcEENS3_9allocatorIcEEEEJRA29_KcS9_RA5_SA_S9_EEET_DpOT0_, symObjAddr: 0x4A544, symBinAddr: 0x10004E040, symSize: 0xE4 }
  - { offsetInCU: 0x4243A, offset: 0x4243A, size: 0x8, addend: 0x0, symName: __ZN8nlohmann16json_abi_v3_11_26detail6concatINSt3__112basic_stringIcNS3_11char_traitsIcEENS3_9allocatorIcEEEEJRA39_KcS9_EEET_DpOT0_, symObjAddr: 0x4A738, symBinAddr: 0x10004E234, symSize: 0xCC }
  - { offsetInCU: 0x424A0, offset: 0x424A0, size: 0x8, addend: 0x0, symName: __ZN8nlohmann16json_abi_v3_11_26detail13concat_lengthIJNSt3__112basic_stringIcNS3_11char_traitsIcEENS3_9allocatorIcEEEERA5_KcS9_EEEmPSA_DpOT_, symObjAddr: 0x4A880, symBinAddr: 0x10004E37C, symSize: 0x50 }
  - { offsetInCU: 0x42511, offset: 0x42511, size: 0x8, addend: 0x0, symName: __ZN8nlohmann16json_abi_v3_11_26detail11concat_intoINSt3__112basic_stringIcNS3_11char_traitsIcEENS3_9allocatorIcEEEERA29_KcJS9_RA5_SA_S9_ELi0EEEvRT_OT0_DpOT1_, symObjAddr: 0x4A8D0, symBinAddr: 0x10004E3CC, symSize: 0x4C }
  - { offsetInCU: 0x425A3, offset: 0x425A3, size: 0x8, addend: 0x0, symName: __ZN8nlohmann16json_abi_v3_11_26detail13concat_lengthINSt3__112basic_stringIcNS3_11char_traitsIcEENS3_9allocatorIcEEEEJRA5_KcS9_EEEmRKT_DpOT0_, symObjAddr: 0x4A91C, symBinAddr: 0x10004E418, symSize: 0x48 }
  - { offsetInCU: 0x42609, offset: 0x42609, size: 0x8, addend: 0x0, symName: __ZN8nlohmann16json_abi_v3_11_26detail11concat_intoINSt3__112basic_stringIcNS3_11char_traitsIcEENS3_9allocatorIcEEEES9_JRA5_KcS9_ELi0EEEvRT_OT0_DpOT1_, symObjAddr: 0x4A964, symBinAddr: 0x10004E460, symSize: 0x44 }
  - { offsetInCU: 0x42688, offset: 0x42688, size: 0x8, addend: 0x0, symName: __ZN8nlohmann16json_abi_v3_11_26detail11concat_intoINSt3__112basic_stringIcNS3_11char_traitsIcEENS3_9allocatorIcEEEERA5_KcJS9_ELi0EEEvRT_OT0_DpOT1_, symObjAddr: 0x4A9A8, symBinAddr: 0x10004E4A4, symSize: 0x3C }
  - { offsetInCU: 0x426F3, offset: 0x426F3, size: 0x8, addend: 0x0, symName: __ZN8nlohmann16json_abi_v3_11_26detail11concat_intoINSt3__112basic_stringIcNS3_11char_traitsIcEENS3_9allocatorIcEEEERA39_KcJS9_ELi0EEEvRT_OT0_DpOT1_, symObjAddr: 0x4AA68, symBinAddr: 0x10004E564, symSize: 0x3C }
  - { offsetInCU: 0x4275D, offset: 0x4275D, size: 0x8, addend: 0x0, symName: __ZN8nlohmann16json_abi_v3_11_26detail8to_charsIdEEPcS3_PKcT_, symObjAddr: 0x4B304, symBinAddr: 0x10004EE00, symSize: 0x26C }
  - { offsetInCU: 0x427EF, offset: 0x427EF, size: 0x8, addend: 0x0, symName: __ZN8nlohmann16json_abi_v3_11_26detaileqENS1_20primitive_iterator_tES2_, symObjAddr: 0x4DA60, symBinAddr: 0x10005155C, symSize: 0x28 }
  - { offsetInCU: 0x42841, offset: 0x42841, size: 0x8, addend: 0x0, symName: __ZN8nlohmann16json_abi_v3_11_26detail9from_jsonINS0_10basic_jsonINSt3__13mapENS4_6vectorENS4_12basic_stringIcNS4_11char_traitsIcEENS4_9allocatorIcEEEEbxydSA_NS0_14adl_serializerENS6_IhNSA_IhEEEEEEEEvRKT_RNSH_8string_tE, symObjAddr: 0x511F4, symBinAddr: 0x100054CF0, symSize: 0x118 }
  - { offsetInCU: 0x42882, offset: 0x42882, size: 0x8, addend: 0x0, symName: __ZN8nlohmann16json_abi_v3_11_26detail6concatINSt3__112basic_stringIcNS3_11char_traitsIcEENS3_9allocatorIcEEEEJRA29_KcPSA_EEET_DpOT0_, symObjAddr: 0x5130C, symBinAddr: 0x100054E08, symSize: 0xC4 }
  - { offsetInCU: 0x428E9, offset: 0x428E9, size: 0x8, addend: 0x0, symName: __ZN8nlohmann16json_abi_v3_11_26detail11concat_intoINSt3__112basic_stringIcNS3_11char_traitsIcEENS3_9allocatorIcEEEERA29_KcJPSA_ELi0EEEvRT_OT0_DpOT1_, symObjAddr: 0x513F8, symBinAddr: 0x100054EF4, symSize: 0x3C }
  - { offsetInCU: 0x42954, offset: 0x42954, size: 0x8, addend: 0x0, symName: __ZN8nlohmann16json_abi_v3_11_26detail9from_jsonINS0_10basic_jsonINSt3__13mapENS4_6vectorENS4_12basic_stringIcNS4_11char_traitsIcEENS4_9allocatorIcEEEEbxydSA_NS0_14adl_serializerENS6_IhNSA_IhEEEEEEiLi0EEEvRKT_RT0_, symObjAddr: 0x51540, symBinAddr: 0x10005503C, symSize: 0x1A0 }
  - { offsetInCU: 0x429A5, offset: 0x429A5, size: 0x8, addend: 0x0, symName: __ZN8nlohmann16json_abi_v3_11_26detail9from_jsonINS0_10basic_jsonINSt3__13mapENS4_6vectorENS4_12basic_stringIcNS4_11char_traitsIcEENS4_9allocatorIcEEEEbxydSA_NS0_14adl_serializerENS6_IhNSA_IhEEEEEENS6_IiNSA_IiEEEELi0EEEDTcmcmcl20from_json_array_implfp_fp0_tlNS1_12priority_tagILj3EEEEEcldtfp_3getINT0_10value_typeEEEcvv_EERKT_RSL_, symObjAddr: 0x51B08, symBinAddr: 0x100055604, symSize: 0x110 }
  - { offsetInCU: 0x429F5, offset: 0x429F5, size: 0x8, addend: 0x0, symName: __ZN8nlohmann16json_abi_v3_11_26detail6concatINSt3__112basic_stringIcNS3_11char_traitsIcEENS3_9allocatorIcEEEEJRA28_KcPSA_EEET_DpOT0_, symObjAddr: 0x51C18, symBinAddr: 0x100055714, symSize: 0xC4 }
  - { offsetInCU: 0x42A5C, offset: 0x42A5C, size: 0x8, addend: 0x0, symName: __ZN8nlohmann16json_abi_v3_11_26detail20from_json_array_implINS0_10basic_jsonINSt3__13mapENS4_6vectorENS4_12basic_stringIcNS4_11char_traitsIcEENS4_9allocatorIcEEEEbxydSA_NS0_14adl_serializerENS6_IhNSA_IhEEEEEENS6_IiNSA_IiEEEELi0EEEDTcmcmcldtfp0_7reserveclsr3stdE7declvalINT0_9size_typeEEEEcldtfp_3getINSJ_10value_typeEEEcvv_EERKT_RSJ_NS1_12priority_tagILj1EEE, symObjAddr: 0x51CDC, symBinAddr: 0x1000557D8, symSize: 0x10C }
  - { offsetInCU: 0x42AE9, offset: 0x42AE9, size: 0x8, addend: 0x0, symName: __ZN8nlohmann16json_abi_v3_11_26detail11concat_intoINSt3__112basic_stringIcNS3_11char_traitsIcEENS3_9allocatorIcEEEERA28_KcJPSA_ELi0EEEvRT_OT0_DpOT1_, symObjAddr: 0x51DE8, symBinAddr: 0x1000558E4, symSize: 0x3C }
  - { offsetInCU: 0x42B54, offset: 0x42B54, size: 0x8, addend: 0x0, symName: __ZN8nlohmann16json_abi_v3_11_26detail7to_jsonINS0_10basic_jsonINSt3__13mapENS4_6vectorENS4_12basic_stringIcNS4_11char_traitsIcEENS4_9allocatorIcEEEEbxydSA_NS0_14adl_serializerENS6_IhNSA_IhEEEEEESC_NS4_4pairINS6_IfNSA_IfEEEENS6_IiNSA_IiEEEEEELi0EEEvRT_RKNSH_IT0_T1_EE, symObjAddr: 0x5805C, symBinAddr: 0x10005BB58, symSize: 0x1BC }
  - { offsetInCU: 0x42BAF, offset: 0x42BAF, size: 0x8, addend: 0x0, symName: __ZN8nlohmann16json_abi_v3_11_26detail7to_jsonINS0_10basic_jsonINSt3__13mapENS4_6vectorENS4_12basic_stringIcNS4_11char_traitsIcEENS4_9allocatorIcEEEEbxydSA_NS0_14adl_serializerENS6_IhNSA_IhEEEEEENS6_IfNSA_IfEEEENS6_IiNSA_IiEEEELi0EEEvRT_RKNS4_4pairIT0_T1_EE, symObjAddr: 0x583DC, symBinAddr: 0x10005BED8, symSize: 0x1BC }
  - { offsetInCU: 0x42C0A, offset: 0x42C0A, size: 0x8, addend: 0x0, symName: __ZN8nlohmann16json_abi_v3_11_26detail7to_jsonINS0_10basic_jsonINSt3__13mapENS4_6vectorENS4_12basic_stringIcNS4_11char_traitsIcEENS4_9allocatorIcEEEEbxydSA_NS0_14adl_serializerENS6_IhNSA_IhEEEEEENS6_IfNSA_IfEEEELi0EEEvRT_RKT0_, symObjAddr: 0x586F0, symBinAddr: 0x10005C1EC, symSize: 0x2C }
  - { offsetInCU: 0x42C5B, offset: 0x42C5B, size: 0x8, addend: 0x0, symName: __ZN8nlohmann16json_abi_v3_11_26detail7to_jsonINS0_10basic_jsonINSt3__13mapENS4_6vectorENS4_12basic_stringIcNS4_11char_traitsIcEENS4_9allocatorIcEEEEbxydSA_NS0_14adl_serializerENS6_IhNSA_IhEEEEEEfLi0EEEvRT_T0_, symObjAddr: 0x59144, symBinAddr: 0x10005CC40, symSize: 0x30 }
  - { offsetInCU: 0x42CAC, offset: 0x42CAC, size: 0x8, addend: 0x0, symName: __ZN8nlohmann16json_abi_v3_11_26detail9from_jsonINS0_10basic_jsonINSt3__13mapENS4_6vectorENS4_12basic_stringIcNS4_11char_traitsIcEENS4_9allocatorIcEEEEbxydSA_NS0_14adl_serializerENS6_IhNSA_IhEEEEEENS6_IfNSA_IfEEEELi0EEEDTcmcmcl20from_json_array_implfp_fp0_tlNS1_12priority_tagILj3EEEEEcldtfp_3getINT0_10value_typeEEEcvv_EERKT_RSL_, symObjAddr: 0x5953C, symBinAddr: 0x10005D038, symSize: 0x110 }
  - { offsetInCU: 0x42CFD, offset: 0x42CFD, size: 0x8, addend: 0x0, symName: __ZN8nlohmann16json_abi_v3_11_26detail20from_json_array_implINS0_10basic_jsonINSt3__13mapENS4_6vectorENS4_12basic_stringIcNS4_11char_traitsIcEENS4_9allocatorIcEEEEbxydSA_NS0_14adl_serializerENS6_IhNSA_IhEEEEEENS6_IfNSA_IfEEEELi0EEEDTcmcmcldtfp0_7reserveclsr3stdE7declvalINT0_9size_typeEEEEcldtfp_3getINSJ_10value_typeEEEcvv_EERKT_RSJ_NS1_12priority_tagILj1EEE, symObjAddr: 0x5964C, symBinAddr: 0x10005D148, symSize: 0x10C }
  - { offsetInCU: 0x42D8A, offset: 0x42D8A, size: 0x8, addend: 0x0, symName: __ZN8nlohmann16json_abi_v3_11_26detail9from_jsonINS0_10basic_jsonINSt3__13mapENS4_6vectorENS4_12basic_stringIcNS4_11char_traitsIcEENS4_9allocatorIcEEEEbxydSA_NS0_14adl_serializerENS6_IhNSA_IhEEEEEEfLi0EEEvRKT_RT0_, symObjAddr: 0x59AF8, symBinAddr: 0x10005D5F4, symSize: 0x1B4 }
  - { offsetInCU: 0x42DDB, offset: 0x42DDB, size: 0x8, addend: 0x0, symName: __ZN8nlohmann16json_abi_v3_11_26detail7to_jsonINS0_10basic_jsonINSt3__13mapENS4_6vectorENS4_12basic_stringIcNS4_11char_traitsIcEENS4_9allocatorIcEEEEbxydSA_NS0_14adl_serializerENS6_IhNSA_IhEEEEEESC_NS4_4pairINS6_IiNSA_IiEEEENS6_IfNSA_IfEEEEEELi0EEEvRT_RKNSH_IT0_T1_EE, symObjAddr: 0x5B83C, symBinAddr: 0x10005F338, symSize: 0x1BC }
  - { offsetInCU: 0x42E36, offset: 0x42E36, size: 0x8, addend: 0x0, symName: __ZN8nlohmann16json_abi_v3_11_26detail7to_jsonINS0_10basic_jsonINSt3__13mapENS4_6vectorENS4_12basic_stringIcNS4_11char_traitsIcEENS4_9allocatorIcEEEEbxydSA_NS0_14adl_serializerENS6_IhNSA_IhEEEEEENS6_IiNSA_IiEEEENS6_IfNSA_IfEEEELi0EEEvRT_RKNS4_4pairIT0_T1_EE, symObjAddr: 0x5BB50, symBinAddr: 0x10005F64C, symSize: 0x1BC }
  - { offsetInCU: 0x42E91, offset: 0x42E91, size: 0x8, addend: 0x0, symName: __ZN8nlohmann16json_abi_v3_11_26detail9from_jsonINS0_10basic_jsonINSt3__13mapENS4_6vectorENS4_12basic_stringIcNS4_11char_traitsIcEENS4_9allocatorIcEEEEbxydSA_NS0_14adl_serializerENS6_IhNSA_IhEEEEEENS5_ISC_iNS4_4lessISC_EENSA_INS4_4pairIKSC_iEEEEEELi0EEEvRKT_RT0_, symObjAddr: 0x5D9D0, symBinAddr: 0x1000614CC, symSize: 0x1D0 }
  - { offsetInCU: 0x44F76, offset: 0x44F76, size: 0x8, addend: 0x0, symName: __ZN8nlohmann16json_abi_v3_11_2lsERNSt3__113basic_ostreamIcNS1_11char_traitsIcEEEERKNS0_10basic_jsonINS1_3mapENS1_6vectorENS1_12basic_stringIcS4_NS1_9allocatorIcEEEEbxydSB_NS0_14adl_serializerENS9_IhNSB_IhEEEEEE, symObjAddr: 0x1550, symBinAddr: 0x10000504C, symSize: 0x1D4 }
  - { offsetInCU: 0x464DB, offset: 0x464DB, size: 0x8, addend: 0x0, symName: __ZN8nlohmann16json_abi_v3_11_26detail10serializerINS0_10basic_jsonINSt3__13mapENS4_6vectorENS4_12basic_stringIcNS4_11char_traitsIcEENS4_9allocatorIcEEEEbxydSA_NS0_14adl_serializerENS6_IhNSA_IhEEEEEEE6decodeERhRjh, symObjAddr: 0x4A38C, symBinAddr: 0x10004DE88, symSize: 0x170 }
  - { offsetInCU: 0x464FC, offset: 0x464FC, size: 0x8, addend: 0x0, symName: __ZZN8nlohmann16json_abi_v3_11_26detail10serializerINS0_10basic_jsonINSt3__13mapENS4_6vectorENS4_12basic_stringIcNS4_11char_traitsIcEENS4_9allocatorIcEEEEbxydSA_NS0_14adl_serializerENS6_IhNSA_IhEEEEEEE6decodeERhRjhE5utf8d, symObjAddr: 0x66778, symBinAddr: 0x100069F18, symSize: 0x0 }
  - { offsetInCU: 0x465AC, offset: 0x465AC, size: 0x8, addend: 0x0, symName: __ZN8nlohmann16json_abi_v3_11_26detail10serializerINS0_10basic_jsonINSt3__13mapENS4_6vectorENS4_12basic_stringIcNS4_11char_traitsIcEENS4_9allocatorIcEEEEbxydSA_NS0_14adl_serializerENS6_IhNSA_IhEEEEEEE12dump_integerIhLi0EEEvT_, symObjAddr: 0x498C4, symBinAddr: 0x10004D3C0, symSize: 0x2C8 }
  - { offsetInCU: 0x465D1, offset: 0x465D1, size: 0x8, addend: 0x0, symName: __ZZN8nlohmann16json_abi_v3_11_26detail10serializerINS0_10basic_jsonINSt3__13mapENS4_6vectorENS4_12basic_stringIcNS4_11char_traitsIcEENS4_9allocatorIcEEEEbxydSA_NS0_14adl_serializerENS6_IhNSA_IhEEEEEEE12dump_integerIhLi0EEEvT_E12digits_to_99, symObjAddr: 0x66908, symBinAddr: 0x10006A0A8, symSize: 0x0 }
  - { offsetInCU: 0x466F2, offset: 0x466F2, size: 0x8, addend: 0x0, symName: __ZN8nlohmann16json_abi_v3_11_26detail10serializerINS0_10basic_jsonINSt3__13mapENS4_6vectorENS4_12basic_stringIcNS4_11char_traitsIcEENS4_9allocatorIcEEEEbxydSA_NS0_14adl_serializerENS6_IhNSA_IhEEEEEEE12dump_integerIyLi0EEEvT_, symObjAddr: 0x49BFC, symBinAddr: 0x10004D6F8, symSize: 0x2C4 }
  - { offsetInCU: 0x46717, offset: 0x46717, size: 0x8, addend: 0x0, symName: __ZZN8nlohmann16json_abi_v3_11_26detail10serializerINS0_10basic_jsonINSt3__13mapENS4_6vectorENS4_12basic_stringIcNS4_11char_traitsIcEENS4_9allocatorIcEEEEbxydSA_NS0_14adl_serializerENS6_IhNSA_IhEEEEEEE12dump_integerIyLi0EEEvT_E12digits_to_99, symObjAddr: 0x669D0, symBinAddr: 0x10006A170, symSize: 0x0 }
  - { offsetInCU: 0x467B4, offset: 0x467B4, size: 0x8, addend: 0x0, symName: __ZN8nlohmann16json_abi_v3_11_26detail10serializerINS0_10basic_jsonINSt3__13mapENS4_6vectorENS4_12basic_stringIcNS4_11char_traitsIcEENS4_9allocatorIcEEEEbxydSA_NS0_14adl_serializerENS6_IhNSA_IhEEEEEEE12dump_integerIxLi0EEEvT_, symObjAddr: 0x49F04, symBinAddr: 0x10004DA00, symSize: 0x2C4 }
  - { offsetInCU: 0x467D9, offset: 0x467D9, size: 0x8, addend: 0x0, symName: __ZZN8nlohmann16json_abi_v3_11_26detail10serializerINS0_10basic_jsonINSt3__13mapENS4_6vectorENS4_12basic_stringIcNS4_11char_traitsIcEENS4_9allocatorIcEEEEbxydSA_NS0_14adl_serializerENS6_IhNSA_IhEEEEEEE12dump_integerIxLi0EEEvT_E12digits_to_99, symObjAddr: 0x66A98, symBinAddr: 0x10006A238, symSize: 0x0 }
  - { offsetInCU: 0x46876, offset: 0x46876, size: 0x8, addend: 0x0, symName: __ZN8nlohmann16json_abi_v3_11_26detail10serializerINS0_10basic_jsonINSt3__13mapENS4_6vectorENS4_12basic_stringIcNS4_11char_traitsIcEENS4_9allocatorIcEEEEbxydSA_NS0_14adl_serializerENS6_IhNSA_IhEEEEEEE10dump_floatEd, symObjAddr: 0x4A1C8, symBinAddr: 0x10004DCC4, symSize: 0x6C }
  - { offsetInCU: 0x4689B, offset: 0x4689B, size: 0x8, addend: 0x0, symName: __ZZN8nlohmann16json_abi_v3_11_26detail10serializerINS0_10basic_jsonINSt3__13mapENS4_6vectorENS4_12basic_stringIcNS4_11char_traitsIcEENS4_9allocatorIcEEEEbxydSA_NS0_14adl_serializerENS6_IhNSA_IhEEEEEEE10dump_floatEdE24is_ieee_single_or_double, symObjAddr: 0x66B60, symBinAddr: 0x10006A300, symSize: 0x0 }
  - { offsetInCU: 0x46DA8, offset: 0x46DA8, size: 0x8, addend: 0x0, symName: __ZNSt3__16vectorIN8nlohmann16json_abi_v3_11_210basic_jsonINS_3mapES0_NS_12basic_stringIcNS_11char_traitsIcEENS_9allocatorIcEEEEbxydS8_NS2_14adl_serializerENS0_IhNS8_IhEEEEEENS8_ISE_EEE26__swap_out_circular_bufferERNS_14__split_bufferISE_RSF_EE, symObjAddr: 0x20AF8, symBinAddr: 0x1000245F4, symSize: 0x118 }
  - { offsetInCU: 0x470B3, offset: 0x470B3, size: 0x8, addend: 0x0, symName: __ZNSt3__16vectorIcNS_9allocatorIcEEE26__swap_out_circular_bufferERNS_14__split_bufferIcRS2_EE, symObjAddr: 0x2A1A4, symBinAddr: 0x10002DCA0, symSize: 0x118 }
  - { offsetInCU: 0x47431, offset: 0x47431, size: 0x8, addend: 0x0, symName: __ZNSt3__16vectorIPN8nlohmann16json_abi_v3_11_210basic_jsonINS_3mapES0_NS_12basic_stringIcNS_11char_traitsIcEENS_9allocatorIcEEEEbxydS8_NS2_14adl_serializerENS0_IhNS8_IhEEEEEENS8_ISF_EEE26__swap_out_circular_bufferERNS_14__split_bufferISF_RSG_EE, symObjAddr: 0x33954, symBinAddr: 0x100037450, symSize: 0x118 }
  - { offsetInCU: 0x47525, offset: 0x47525, size: 0x8, addend: 0x0, symName: __ZNSt3__16vectorIiNS_9allocatorIiEEE26__swap_out_circular_bufferERNS_14__split_bufferIiRS2_EE, symObjAddr: 0x3FEFC, symBinAddr: 0x1000439F8, symSize: 0x118 }
  - { offsetInCU: 0x4784B, offset: 0x4784B, size: 0x8, addend: 0x0, symName: __ZNSt3__16vectorIiNS_9allocatorIiEEE26__swap_out_circular_bufferERNS_14__split_bufferIiRS2_EEPi, symObjAddr: 0x52FFC, symBinAddr: 0x100056AF8, symSize: 0x154 }
  - { offsetInCU: 0x478E0, offset: 0x478E0, size: 0x8, addend: 0x0, symName: __ZNSt3__16vectorIfNS_9allocatorIfEEE26__swap_out_circular_bufferERNS_14__split_bufferIfRS2_EE, symObjAddr: 0x56CA0, symBinAddr: 0x10005A79C, symSize: 0x118 }
  - { offsetInCU: 0x47985, offset: 0x47985, size: 0x8, addend: 0x0, symName: __ZNSt3__16vectorIfNS_9allocatorIfEEE26__swap_out_circular_bufferERNS_14__split_bufferIfRS2_EEPf, symObjAddr: 0x5A374, symBinAddr: 0x10005DE70, symSize: 0x154 }
  - { offsetInCU: 0x4A408, offset: 0x4A408, size: 0x8, addend: 0x0, symName: __Z7addItemv, symObjAddr: 0x0, symBinAddr: 0x100003AFC, symSize: 0x7A8 }
  - { offsetInCU: 0x4A597, offset: 0x4A597, size: 0x8, addend: 0x0, symName: __ZNSt3__114basic_ifstreamIcNS_11char_traitsIcEEEC1ERKNS_12basic_stringIcS2_NS_9allocatorIcEEEEj, symObjAddr: 0x7A8, symBinAddr: 0x1000042A4, symSize: 0x16C }
  - { offsetInCU: 0x4A5E7, offset: 0x4A5E7, size: 0x8, addend: 0x0, symName: __ZN8nlohmann16json_abi_v3_11_210basic_jsonINSt3__13mapENS2_6vectorENS2_12basic_stringIcNS2_11char_traitsIcEENS2_9allocatorIcEEEEbxydS8_NS0_14adl_serializerENS4_IhNS8_IhEEEEE5parseIRNS2_14basic_ifstreamIcS7_EEEESE_OT_NS2_8functionIFbiNS0_6detail13parse_event_tERSE_EEEbb, symObjAddr: 0x914, symBinAddr: 0x100004410, symSize: 0x1B0 }
  - { offsetInCU: 0x4A655, offset: 0x4A655, size: 0x8, addend: 0x0, symName: __ZNSt3__18functionIFbiN8nlohmann16json_abi_v3_11_26detail13parse_event_tERNS2_10basic_jsonINS_3mapENS_6vectorENS_12basic_stringIcNS_11char_traitsIcEENS_9allocatorIcEEEEbxydSB_NS2_14adl_serializerENS7_IhNSB_IhEEEEEEEEC1B7v160006EDn, symObjAddr: 0xAC4, symBinAddr: 0x1000045C0, symSize: 0x34 }
  - { offsetInCU: 0x4A68B, offset: 0x4A68B, size: 0x8, addend: 0x0, symName: __ZNSt3__18functionIFbiN8nlohmann16json_abi_v3_11_26detail13parse_event_tERNS2_10basic_jsonINS_3mapENS_6vectorENS_12basic_stringIcNS_11char_traitsIcEENS_9allocatorIcEEEEbxydSB_NS2_14adl_serializerENS7_IhNSB_IhEEEEEEEED1Ev, symObjAddr: 0xAF8, symBinAddr: 0x1000045F4, symSize: 0x2C }
  - { offsetInCU: 0x4A6B7, offset: 0x4A6B7, size: 0x8, addend: 0x0, symName: __ZNSt3__112basic_stringIcNS_11char_traitsIcEENS_9allocatorIcEEEC1B7v160006Ev, symObjAddr: 0xB24, symBinAddr: 0x100004620, symSize: 0x2C }
  - { offsetInCU: 0x4A6E1, offset: 0x4A6E1, size: 0x8, addend: 0x0, symName: __ZNSt3__16vectorIiNS_9allocatorIiEEEC1B7v160006Ev, symObjAddr: 0xB50, symBinAddr: 0x10000464C, symSize: 0x2C }
  - { offsetInCU: 0x4A70B, offset: 0x4A70B, size: 0x8, addend: 0x0, symName: __ZNSt3__111char_traitsIcE3eofEv, symObjAddr: 0xBC4, symBinAddr: 0x1000046C0, symSize: 0x8 }
  - { offsetInCU: 0x4A71F, offset: 0x4A71F, size: 0x8, addend: 0x0, symName: __ZNSt3__16vectorIiNS_9allocatorIiEEE9push_backB7v160006ERKi, symObjAddr: 0xF30, symBinAddr: 0x100004A2C, symSize: 0x6C }
  - { offsetInCU: 0x4A756, offset: 0x4A756, size: 0x8, addend: 0x0, symName: __ZNSt3__16vectorINS_12basic_stringIcNS_11char_traitsIcEENS_9allocatorIcEEEENS4_IS6_EEEC1B7v160006ESt16initializer_listIS6_E, symObjAddr: 0xFDC, symBinAddr: 0x100004AD8, symSize: 0x3C }
  - { offsetInCU: 0x4A791, offset: 0x4A791, size: 0x8, addend: 0x0, symName: __ZNSt3__16vectorIiNS_9allocatorIiEEEC1B7v160006ESt16initializer_listIiE, symObjAddr: 0x1058, symBinAddr: 0x100004B54, symSize: 0x3C }
  - { offsetInCU: 0x4A7CC, offset: 0x4A7CC, size: 0x8, addend: 0x0, symName: __ZNSt3__16vectorIiNS_9allocatorIiEEEC1ERKS3_, symObjAddr: 0x1094, symBinAddr: 0x100004B90, symSize: 0x34 }
  - { offsetInCU: 0x4A807, offset: 0x4A807, size: 0x8, addend: 0x0, symName: __ZN8nlohmann16json_abi_v3_11_210basic_jsonINSt3__13mapENS2_6vectorENS2_12basic_stringIcNS2_11char_traitsIcEENS2_9allocatorIcEEEEbxydS8_NS0_14adl_serializerENS4_IhNS8_IhEEEEEC1INS2_4pairINS4_ISA_NS8_ISA_EEEENSG_INS4_IiNS8_IiEEEESK_EEEESM_Li0EEEOT_, symObjAddr: 0x10C8, symBinAddr: 0x100004BC4, symSize: 0x34 }
  - { offsetInCU: 0x4A858, offset: 0x4A858, size: 0x8, addend: 0x0, symName: __ZN8nlohmann16json_abi_v3_11_210basic_jsonINSt3__13mapENS2_6vectorENS2_12basic_stringIcNS2_11char_traitsIcEENS2_9allocatorIcEEEEbxydS8_NS0_14adl_serializerENS4_IhNS8_IhEEEEEixESA_, symObjAddr: 0x10FC, symBinAddr: 0x100004BF8, symSize: 0x18C }
  - { offsetInCU: 0x4A8AB, offset: 0x4A8AB, size: 0x8, addend: 0x0, symName: __ZN8nlohmann16json_abi_v3_11_210basic_jsonINSt3__13mapENS2_6vectorENS2_12basic_stringIcNS2_11char_traitsIcEENS2_9allocatorIcEEEEbxydS8_NS0_14adl_serializerENS4_IhNS8_IhEEEEEaSESE_, symObjAddr: 0x1288, symBinAddr: 0x100004D84, symSize: 0x80 }
  - { offsetInCU: 0x4A8E1, offset: 0x4A8E1, size: 0x8, addend: 0x0, symName: __ZN8nlohmann16json_abi_v3_11_210basic_jsonINSt3__13mapENS2_6vectorENS2_12basic_stringIcNS2_11char_traitsIcEENS2_9allocatorIcEEEEbxydS8_NS0_14adl_serializerENS4_IhNS8_IhEEEEED1Ev, symObjAddr: 0x1308, symBinAddr: 0x100004E04, symSize: 0x2C }
  - { offsetInCU: 0x4A90B, offset: 0x4A90B, size: 0x8, addend: 0x0, symName: __ZNSt3__14pairINS_6vectorINS_12basic_stringIcNS_11char_traitsIcEENS_9allocatorIcEEEENS5_IS7_EEEENS0_INS1_IiNS5_IiEEEESB_EEED1Ev, symObjAddr: 0x1334, symBinAddr: 0x100004E30, symSize: 0x2C }
  - { offsetInCU: 0x4A937, offset: 0x4A937, size: 0x8, addend: 0x0, symName: __ZNSt3__14pairINS_6vectorIiNS_9allocatorIiEEEES4_ED1Ev, symObjAddr: 0x1360, symBinAddr: 0x100004E5C, symSize: 0x2C }
  - { offsetInCU: 0x4A963, offset: 0x4A963, size: 0x8, addend: 0x0, symName: __ZNSt3__16vectorIiNS_9allocatorIiEEED1B7v160006Ev, symObjAddr: 0x138C, symBinAddr: 0x100004E88, symSize: 0x2C }
  - { offsetInCU: 0x4A98D, offset: 0x4A98D, size: 0x8, addend: 0x0, symName: __ZNSt3__16vectorINS_12basic_stringIcNS_11char_traitsIcEENS_9allocatorIcEEEENS4_IS6_EEED1B7v160006Ev, symObjAddr: 0x13B8, symBinAddr: 0x100004EB4, symSize: 0x2C }
  - { offsetInCU: 0x4A9D4, offset: 0x4A9D4, size: 0x8, addend: 0x0, symName: __ZNSt3__114basic_ofstreamIcNS_11char_traitsIcEEEC1ERKNS_12basic_stringIcS2_NS_9allocatorIcEEEEj, symObjAddr: 0x13E4, symBinAddr: 0x100004EE0, symSize: 0x16C }
  - { offsetInCU: 0x4AA1E, offset: 0x4AA1E, size: 0x8, addend: 0x0, symName: __ZNSt3__113basic_ostreamIcNS_11char_traitsIcEEElsB7v160006EPFRS3_S4_E, symObjAddr: 0x1790, symBinAddr: 0x10000528C, symSize: 0x2C }
  - { offsetInCU: 0x4AA52, offset: 0x4AA52, size: 0x8, addend: 0x0, symName: __ZNSt3__114basic_ifstreamIcNS_11char_traitsIcEEE5closeEv, symObjAddr: 0x1814, symBinAddr: 0x100005310, symSize: 0x58 }
  - { offsetInCU: 0x4AA7A, offset: 0x4AA7A, size: 0x8, addend: 0x0, symName: __ZNSt3__114basic_ofstreamIcNS_11char_traitsIcEEE5closeEv, symObjAddr: 0x186C, symBinAddr: 0x100005368, symSize: 0x58 }
  - { offsetInCU: 0x4AAA8, offset: 0x4AAA8, size: 0x8, addend: 0x0, symName: __ZNSt3__114basic_ofstreamIcNS_11char_traitsIcEEED1Ev, symObjAddr: 0x18C4, symBinAddr: 0x1000053C0, symSize: 0x40 }
  - { offsetInCU: 0x4AADB, offset: 0x4AADB, size: 0x8, addend: 0x0, symName: __ZNSt3__114basic_ifstreamIcNS_11char_traitsIcEEED1Ev, symObjAddr: 0x1904, symBinAddr: 0x100005400, symSize: 0x40 }
  - { offsetInCU: 0x4AB07, offset: 0x4AB07, size: 0x8, addend: 0x0, symName: __Z8getItemsv, symObjAddr: 0x1944, symBinAddr: 0x100005440, symSize: 0x8A8 }
  - { offsetInCU: 0x4AC35, offset: 0x4AC35, size: 0x8, addend: 0x0, symName: __ZNSt3__13mapIiNS_4pairINS_6vectorINS_12basic_stringIcNS_11char_traitsIcEENS_9allocatorIcEEEENS6_IS8_EEEENS1_INS2_IiNS6_IiEEEESC_EEEENS_4lessIiEENS6_INS1_IKiSE_EEEEEC1B7v160006Ev, symObjAddr: 0x21EC, symBinAddr: 0x100005CE8, symSize: 0x2C }
  - { offsetInCU: 0x4AC5F, offset: 0x4AC5F, size: 0x8, addend: 0x0, symName: __ZN8nlohmann16json_abi_v3_11_210basic_jsonINSt3__13mapENS2_6vectorENS2_12basic_stringIcNS2_11char_traitsIcEENS2_9allocatorIcEEEEbxydS8_NS0_14adl_serializerENS4_IhNS8_IhEEEEE5beginEv, symObjAddr: 0x2218, symBinAddr: 0x100005D14, symSize: 0x40 }
  - { offsetInCU: 0x4AC95, offset: 0x4AC95, size: 0x8, addend: 0x0, symName: __ZNK8nlohmann16json_abi_v3_11_26detail9iter_implINS0_10basic_jsonINSt3__13mapENS4_6vectorENS4_12basic_stringIcNS4_11char_traitsIcEENS4_9allocatorIcEEEEbxydSA_NS0_14adl_serializerENS6_IhNSA_IhEEEEEEEneISH_LDn0EEEbRKT_, symObjAddr: 0x2258, symBinAddr: 0x100005D54, symSize: 0x34 }
  - { offsetInCU: 0x4ACD9, offset: 0x4ACD9, size: 0x8, addend: 0x0, symName: __ZN8nlohmann16json_abi_v3_11_210basic_jsonINSt3__13mapENS2_6vectorENS2_12basic_stringIcNS2_11char_traitsIcEENS2_9allocatorIcEEEEbxydS8_NS0_14adl_serializerENS4_IhNS8_IhEEEEE3endEv, symObjAddr: 0x228C, symBinAddr: 0x100005D88, symSize: 0x40 }
  - { offsetInCU: 0x4AD0F, offset: 0x4AD0F, size: 0x8, addend: 0x0, symName: __ZNK8nlohmann16json_abi_v3_11_26detail9iter_implINS0_10basic_jsonINSt3__13mapENS4_6vectorENS4_12basic_stringIcNS4_11char_traitsIcEENS4_9allocatorIcEEEEbxydSA_NS0_14adl_serializerENS6_IhNSA_IhEEEEEEE5valueEv, symObjAddr: 0x22CC, symBinAddr: 0x100005DC8, symSize: 0x24 }
  - { offsetInCU: 0x4AD35, offset: 0x4AD35, size: 0x8, addend: 0x0, symName: __ZN8nlohmann16json_abi_v3_11_210basic_jsonINSt3__13mapENS2_6vectorENS2_12basic_stringIcNS2_11char_traitsIcEENS2_9allocatorIcEEEEbxydS8_NS0_14adl_serializerENS4_IhNS8_IhEEEEEC1ERKSE_, symObjAddr: 0x22F0, symBinAddr: 0x100005DEC, symSize: 0x34 }
  - { offsetInCU: 0x4AD6E, offset: 0x4AD6E, size: 0x8, addend: 0x0, symName: __ZNK8nlohmann16json_abi_v3_11_26detail9iter_implINS0_10basic_jsonINSt3__13mapENS4_6vectorENS4_12basic_stringIcNS4_11char_traitsIcEENS4_9allocatorIcEEEEbxydSA_NS0_14adl_serializerENS6_IhNSA_IhEEEEEEE3keyEv, symObjAddr: 0x2324, symBinAddr: 0x100005E20, symSize: 0x144 }
  - { offsetInCU: 0x4AD94, offset: 0x4AD94, size: 0x8, addend: 0x0, symName: __ZN8nlohmann16json_abi_v3_11_210basic_jsonINSt3__13mapENS2_6vectorENS2_12basic_stringIcNS2_11char_traitsIcEENS2_9allocatorIcEEEEbxydS8_NS0_14adl_serializerENS4_IhNS8_IhEEEEEixEm, symObjAddr: 0x2468, symBinAddr: 0x100005F64, symSize: 0x1A8 }
  - { offsetInCU: 0x4ADC9, offset: 0x4ADC9, size: 0x8, addend: 0x0, symName: __ZNK8nlohmann16json_abi_v3_11_210basic_jsonINSt3__13mapENS2_6vectorENS2_12basic_stringIcNS2_11char_traitsIcEENS2_9allocatorIcEEEEbxydS8_NS0_14adl_serializerENS4_IhNS8_IhEEEEEcvT_ISA_Li0EEEv, symObjAddr: 0x2610, symBinAddr: 0x10000610C, symSize: 0x2C }
  - { offsetInCU: 0x4ADFE, offset: 0x4ADFE, size: 0x8, addend: 0x0, symName: __ZNK8nlohmann16json_abi_v3_11_210basic_jsonINSt3__13mapENS2_6vectorENS2_12basic_stringIcNS2_11char_traitsIcEENS2_9allocatorIcEEEEbxydS8_NS0_14adl_serializerENS4_IhNS8_IhEEEEEcvT_IiLi0EEEv, symObjAddr: 0x263C, symBinAddr: 0x100006138, symSize: 0x24 }
  - { offsetInCU: 0x4AE33, offset: 0x4AE33, size: 0x8, addend: 0x0, symName: __ZNK8nlohmann16json_abi_v3_11_210basic_jsonINSt3__13mapENS2_6vectorENS2_12basic_stringIcNS2_11char_traitsIcEENS2_9allocatorIcEEEEbxydS8_NS0_14adl_serializerENS4_IhNS8_IhEEEEEcvT_INS4_IiNS8_IiEEEELi0EEEv, symObjAddr: 0x2660, symBinAddr: 0x10000615C, symSize: 0x2C }
  - { offsetInCU: 0x4AE68, offset: 0x4AE68, size: 0x8, addend: 0x0, symName: __ZNSt3__13mapIiNS_4pairINS_6vectorINS_12basic_stringIcNS_11char_traitsIcEENS_9allocatorIcEEEENS6_IS8_EEEENS1_INS2_IiNS6_IiEEEESC_EEEENS_4lessIiEENS6_INS1_IKiSE_EEEEEixERSH_, symObjAddr: 0x268C, symBinAddr: 0x100006188, symSize: 0x80 }
  - { offsetInCU: 0x4AE9F, offset: 0x4AE9F, size: 0x8, addend: 0x0, symName: __ZNSt3__14pairINS_6vectorINS_12basic_stringIcNS_11char_traitsIcEENS_9allocatorIcEEEENS5_IS7_EEEENS0_INS1_IiNS5_IiEEEESB_EEEaSB7v160006EOSD_, symObjAddr: 0x270C, symBinAddr: 0x100006208, symSize: 0x48 }
  - { offsetInCU: 0x4AED4, offset: 0x4AED4, size: 0x8, addend: 0x0, symName: __ZNR8nlohmann16json_abi_v3_11_26detail9iter_implINS0_10basic_jsonINSt3__13mapENS4_6vectorENS4_12basic_stringIcNS4_11char_traitsIcEENS4_9allocatorIcEEEEbxydSA_NS0_14adl_serializerENS6_IhNSA_IhEEEEEEEppEi, symObjAddr: 0x2754, symBinAddr: 0x100006250, symSize: 0x48 }
  - { offsetInCU: 0x4AF16, offset: 0x4AF16, size: 0x8, addend: 0x0, symName: __ZNSt3__13mapIiNS_4pairINS_6vectorINS_12basic_stringIcNS_11char_traitsIcEENS_9allocatorIcEEEENS6_IS8_EEEENS1_INS2_IiNS6_IiEEEESC_EEEENS_4lessIiEENS6_INS1_IKiSE_EEEEED1B7v160006Ev, symObjAddr: 0x279C, symBinAddr: 0x100006298, symSize: 0x2C }
  - { offsetInCU: 0x4AF3F, offset: 0x4AF3F, size: 0x8, addend: 0x0, symName: __Z7getItemi, symObjAddr: 0x27C8, symBinAddr: 0x1000062C4, symSize: 0x650 }
  - { offsetInCU: 0x4B045, offset: 0x4B045, size: 0x8, addend: 0x0, symName: __ZNSt3__114__map_iteratorINS_15__tree_iteratorINS_12__value_typeIiNS_4pairINS_6vectorINS_12basic_stringIcNS_11char_traitsIcEENS_9allocatorIcEEEENS8_ISA_EEEENS3_INS4_IiNS8_IiEEEESE_EEEEEEPNS_11__tree_nodeISH_PvEElEEEC1B7v160006Ev, symObjAddr: 0x2E18, symBinAddr: 0x100006914, symSize: 0x2C }
  - { offsetInCU: 0x4B06F, offset: 0x4B06F, size: 0x8, addend: 0x0, symName: __ZNSt3__13mapIiNS_4pairINS_6vectorINS_12basic_stringIcNS_11char_traitsIcEENS_9allocatorIcEEEENS6_IS8_EEEENS1_INS2_IiNS6_IiEEEESC_EEEENS_4lessIiEENS6_INS1_IKiSE_EEEEE5beginB7v160006Ev, symObjAddr: 0x2E44, symBinAddr: 0x100006940, symSize: 0x38 }
  - { offsetInCU: 0x4B095, offset: 0x4B095, size: 0x8, addend: 0x0, symName: __ZNSt3__13mapIiNS_4pairINS_6vectorINS_12basic_stringIcNS_11char_traitsIcEENS_9allocatorIcEEEENS6_IS8_EEEENS1_INS2_IiNS6_IiEEEESC_EEEENS_4lessIiEENS6_INS1_IKiSE_EEEEE3endB7v160006Ev, symObjAddr: 0x2EAC, symBinAddr: 0x1000069A8, symSize: 0x38 }
  - { offsetInCU: 0x4B0BB, offset: 0x4B0BB, size: 0x8, addend: 0x0, symName: __ZNKSt3__114__map_iteratorINS_15__tree_iteratorINS_12__value_typeIiNS_4pairINS_6vectorINS_12basic_stringIcNS_11char_traitsIcEENS_9allocatorIcEEEENS8_ISA_EEEENS3_INS4_IiNS8_IiEEEESE_EEEEEEPNS_11__tree_nodeISH_PvEElEEEptB7v160006Ev, symObjAddr: 0x2EE4, symBinAddr: 0x1000069E0, symSize: 0x2C }
  - { offsetInCU: 0x4B0E1, offset: 0x4B0E1, size: 0x8, addend: 0x0, symName: __ZNSt3__16vectorINS_12basic_stringIcNS_11char_traitsIcEENS_9allocatorIcEEEENS4_IS6_EEEixB7v160006Em, symObjAddr: 0x2F10, symBinAddr: 0x100006A0C, symSize: 0x2C }
  - { offsetInCU: 0x4B118, offset: 0x4B118, size: 0x8, addend: 0x0, symName: __ZNSt3__16vectorIiNS_9allocatorIiEEEixB7v160006Em, symObjAddr: 0x2F3C, symBinAddr: 0x100006A38, symSize: 0x24 }
  - { offsetInCU: 0x4B14F, offset: 0x4B14F, size: 0x8, addend: 0x0, symName: __ZNSt3__114__map_iteratorINS_15__tree_iteratorINS_12__value_typeIiNS_4pairINS_6vectorINS_12basic_stringIcNS_11char_traitsIcEENS_9allocatorIcEEEENS8_ISA_EEEENS3_INS4_IiNS8_IiEEEESE_EEEEEEPNS_11__tree_nodeISH_PvEElEEEppB7v160006Ei, symObjAddr: 0x2F60, symBinAddr: 0x100006A5C, symSize: 0x34 }
  - { offsetInCU: 0x4B190, offset: 0x4B190, size: 0x8, addend: 0x0, symName: __ZNSt3__13mapIiiNS_4lessIiEENS_9allocatorINS_4pairIKiiEEEEEC1B7v160006Ev, symObjAddr: 0x2F94, symBinAddr: 0x100006A90, symSize: 0x2C }
  - { offsetInCU: 0x4B1BA, offset: 0x4B1BA, size: 0x8, addend: 0x0, symName: __ZNSt3__13mapIiiNS_4lessIiEENS_9allocatorINS_4pairIKiiEEEEED1B7v160006Ev, symObjAddr: 0x2FC0, symBinAddr: 0x100006ABC, symSize: 0x2C }
  - { offsetInCU: 0x4B1E3, offset: 0x4B1E3, size: 0x8, addend: 0x0, symName: __Z11item_choosev, symObjAddr: 0x2FEC, symBinAddr: 0x100006AE8, symSize: 0xC40 }
  - { offsetInCU: 0x4B2FF, offset: 0x4B2FF, size: 0x8, addend: 0x0, symName: __ZNSt3__16vectorINS_12basic_stringIcNS_11char_traitsIcEENS_9allocatorIcEEEENS4_IS6_EEE2atEm, symObjAddr: 0x3C68, symBinAddr: 0x100007764, symSize: 0x68 }
  - { offsetInCU: 0x4B336, offset: 0x4B336, size: 0x8, addend: 0x0, symName: __ZNSt3__19basic_iosIcNS_11char_traitsIcEEE5clearB7v160006Ej, symObjAddr: 0x3D1C, symBinAddr: 0x100007818, symSize: 0x2C }
  - { offsetInCU: 0x4B36B, offset: 0x4B36B, size: 0x8, addend: 0x0, symName: __ZNSt3__16vectorIiNS_9allocatorIiEEE2atEm, symObjAddr: 0x3D48, symBinAddr: 0x100007844, symSize: 0x60 }
  - { offsetInCU: 0x4B3A2, offset: 0x4B3A2, size: 0x8, addend: 0x0, symName: __ZNKSt3__16vectorIiNS_9allocatorIiEEE4sizeB7v160006Ev, symObjAddr: 0x3DA8, symBinAddr: 0x1000078A4, symSize: 0x28 }
  - { offsetInCU: 0x4B3C7, offset: 0x4B3C7, size: 0x8, addend: 0x0, symName: __Z4shopN4Game9InventoryE, symObjAddr: 0x3DD0, symBinAddr: 0x1000078CC, symSize: 0x3C4 }
  - { offsetInCU: 0x4B4AB, offset: 0x4B4AB, size: 0x8, addend: 0x0, symName: __ZN4Game6Player10getBalanceEv, symObjAddr: 0x4194, symBinAddr: 0x100007C90, symSize: 0x18 }
  - { offsetInCU: 0x4B4D1, offset: 0x4B4D1, size: 0x8, addend: 0x0, symName: __ZNSt3__13mapIiNS_4pairINS_6vectorINS_12basic_stringIcNS_11char_traitsIcEENS_9allocatorIcEEEENS6_IS8_EEEENS1_INS2_IiNS6_IiEEEESC_EEEENS_4lessIiEENS6_INS1_IKiSE_EEEEE4findB7v160006ERSH_, symObjAddr: 0x41AC, symBinAddr: 0x100007CA8, symSize: 0x40 }
  - { offsetInCU: 0x4B506, offset: 0x4B506, size: 0x8, addend: 0x0, symName: __ZN4Game9Inventory7addItemEii, symObjAddr: 0x41EC, symBinAddr: 0x100007CE8, symSize: 0xC0 }
  - { offsetInCU: 0x4B54E, offset: 0x4B54E, size: 0x8, addend: 0x0, symName: __ZN4Game9InventoryC1EOS0_, symObjAddr: 0x42AC, symBinAddr: 0x100007DA8, symSize: 0x34 }
  - { offsetInCU: 0x4B582, offset: 0x4B582, size: 0x8, addend: 0x0, symName: __Z11check_statsNSt3__112basic_stringIcNS_11char_traitsIcEENS_9allocatorIcEEEES5_ifffffffffffffi, symObjAddr: 0x42E0, symBinAddr: 0x100007DDC, symSize: 0x2F4 }
  - { offsetInCU: 0x4B69A, offset: 0x4B69A, size: 0x8, addend: 0x0, symName: __Z5statsN4Game9InventoryE, symObjAddr: 0x45D4, symBinAddr: 0x1000080D0, symSize: 0x121C }
  - { offsetInCU: 0x4B900, offset: 0x4B900, size: 0x8, addend: 0x0, symName: __ZN4Game6Player8getClassEv, symObjAddr: 0x57F0, symBinAddr: 0x1000092EC, symSize: 0x3C }
  - { offsetInCU: 0x4B926, offset: 0x4B926, size: 0x8, addend: 0x0, symName: __ZN4Game6Player7getDataEv, symObjAddr: 0x582C, symBinAddr: 0x100009328, symSize: 0x26C }
  - { offsetInCU: 0x4B95D, offset: 0x4B95D, size: 0x8, addend: 0x0, symName: __ZNSt3__16vectorIfNS_9allocatorIfEEEixB7v160006Em, symObjAddr: 0x5A98, symBinAddr: 0x100009594, symSize: 0x24 }
  - { offsetInCU: 0x4B994, offset: 0x4B994, size: 0x8, addend: 0x0, symName: __ZNSt3__14pairINS_12basic_stringIcNS_11char_traitsIcEENS_9allocatorIcEEEENS0_INS_6vectorIfNS4_IfEEEENS7_IiNS4_IiEEEEEEED1Ev, symObjAddr: 0x5ABC, symBinAddr: 0x1000095B8, symSize: 0x2C }
  - { offsetInCU: 0x4B9C0, offset: 0x4B9C0, size: 0x8, addend: 0x0, symName: __ZN4Game6Player7getNameEv, symObjAddr: 0x5AE8, symBinAddr: 0x1000095E4, symSize: 0x38 }
  - { offsetInCU: 0x4B9E6, offset: 0x4B9E6, size: 0x8, addend: 0x0, symName: __ZN4Game6Player8getLevelEv, symObjAddr: 0x5B20, symBinAddr: 0x10000961C, symSize: 0x18 }
  - { offsetInCU: 0x4BA0C, offset: 0x4BA0C, size: 0x8, addend: 0x0, symName: __ZN4Game6Player5getSPEv, symObjAddr: 0x5B38, symBinAddr: 0x100009634, symSize: 0x18 }
  - { offsetInCU: 0x4BA32, offset: 0x4BA32, size: 0x8, addend: 0x0, symName: __ZNSt3__13mapIiNS_4pairINS_12basic_stringIcNS_11char_traitsIcEENS_9allocatorIcEEEENS1_INS_6vectorIfNS5_IfEEEENS8_IiNS5_IiEEEEEEEENS_4lessIiEENS5_INS1_IKiSE_EEEEEC1B7v160006Ev, symObjAddr: 0x5B50, symBinAddr: 0x10000964C, symSize: 0x2C }
  - { offsetInCU: 0x4BA5C, offset: 0x4BA5C, size: 0x8, addend: 0x0, symName: __ZNSt3__13mapIiNS_4pairINS_12basic_stringIcNS_11char_traitsIcEENS_9allocatorIcEEEENS1_INS_6vectorIfNS5_IfEEEENS8_IiNS5_IiEEEEEEEENS_4lessIiEENS5_INS1_IKiSE_EEEEED1B7v160006Ev, symObjAddr: 0x5B7C, symBinAddr: 0x100009678, symSize: 0x2C }
  - { offsetInCU: 0x4BA85, offset: 0x4BA85, size: 0x8, addend: 0x0, symName: __Z8addEnemyv, symObjAddr: 0x5BA8, symBinAddr: 0x1000096A4, symSize: 0x5A4 }
  - { offsetInCU: 0x4BB53, offset: 0x4BB53, size: 0x8, addend: 0x0, symName: __ZNSt3__16vectorIfNS_9allocatorIfEEEC1B7v160006Ev, symObjAddr: 0x615C, symBinAddr: 0x100009C58, symSize: 0x2C }
  - { offsetInCU: 0x4BB7D, offset: 0x4BB7D, size: 0x8, addend: 0x0, symName: __ZNSt3__16vectorIfNS_9allocatorIfEEE9push_backB7v160006ERKf, symObjAddr: 0x6188, symBinAddr: 0x100009C84, symSize: 0x6C }
  - { offsetInCU: 0x4BBB4, offset: 0x4BBB4, size: 0x8, addend: 0x0, symName: __ZNSt3__112basic_stringIcNS_11char_traitsIcEENS_9allocatorIcEEEaSB7v160006EPKc, symObjAddr: 0x61F4, symBinAddr: 0x100009CF0, symSize: 0x2C }
  - { offsetInCU: 0x4BBE9, offset: 0x4BBE9, size: 0x8, addend: 0x0, symName: __ZNSt3__16vectorIfNS_9allocatorIfEEEC1ERKS3_, symObjAddr: 0x62A0, symBinAddr: 0x100009D9C, symSize: 0x34 }
  - { offsetInCU: 0x4BC24, offset: 0x4BC24, size: 0x8, addend: 0x0, symName: __ZN8nlohmann16json_abi_v3_11_210basic_jsonINSt3__13mapENS2_6vectorENS2_12basic_stringIcNS2_11char_traitsIcEENS2_9allocatorIcEEEEbxydS8_NS0_14adl_serializerENS4_IhNS8_IhEEEEEC1INS2_4pairISA_NSG_INS4_IfNS8_IfEEEENS4_IiNS8_IiEEEEEEEESM_Li0EEEOT_, symObjAddr: 0x62D4, symBinAddr: 0x100009DD0, symSize: 0x34 }
  - { offsetInCU: 0x4BC75, offset: 0x4BC75, size: 0x8, addend: 0x0, symName: __ZNSt3__14pairINS_6vectorIfNS_9allocatorIfEEEENS1_IiNS2_IiEEEEED1Ev, symObjAddr: 0x6308, symBinAddr: 0x100009E04, symSize: 0x2C }
  - { offsetInCU: 0x4BCA1, offset: 0x4BCA1, size: 0x8, addend: 0x0, symName: __ZNSt3__16vectorIfNS_9allocatorIfEEED1B7v160006Ev, symObjAddr: 0x6334, symBinAddr: 0x100009E30, symSize: 0x2C }
  - { offsetInCU: 0x4BCCA, offset: 0x4BCCA, size: 0x8, addend: 0x0, symName: __Z6addersv, symObjAddr: 0x6360, symBinAddr: 0x100009E5C, symSize: 0x44C }
  - { offsetInCU: 0x4BDA2, offset: 0x4BDA2, size: 0x8, addend: 0x0, symName: __ZNK8nlohmann16json_abi_v3_11_210basic_jsonINSt3__13mapENS2_6vectorENS2_12basic_stringIcNS2_11char_traitsIcEENS2_9allocatorIcEEEEbxydS8_NS0_14adl_serializerENS4_IhNS8_IhEEEEEcvT_INS4_IfNS8_IfEEEELi0EEEv, symObjAddr: 0x67AC, symBinAddr: 0x10000A2A8, symSize: 0x2C }
  - { offsetInCU: 0x4BDD7, offset: 0x4BDD7, size: 0x8, addend: 0x0, symName: __ZN4Game5EnemyC1EiNSt3__112basic_stringIcNS1_11char_traitsIcEENS1_9allocatorIcEEEENS1_6vectorIfNS5_IfEEEEii, symObjAddr: 0x67D8, symBinAddr: 0x10000A2D4, symSize: 0x54 }
  - { offsetInCU: 0x4BE49, offset: 0x4BE49, size: 0x8, addend: 0x0, symName: __ZN4Game5EnemyD1Ev, symObjAddr: 0x682C, symBinAddr: 0x10000A328, symSize: 0x2C }
  - { offsetInCU: 0x4BE75, offset: 0x4BE75, size: 0x8, addend: 0x0, symName: __ZNSt3__13mapIiNS_4pairINS_6vectorINS_12basic_stringIcNS_11char_traitsIcEENS_9allocatorIcEEEENS6_IS8_EEEENS1_INS2_IiNS6_IiEEEENS2_IfNS6_IfEEEEEEEENS_4lessIiEENS6_INS1_IKiSG_EEEEEC1B7v160006Ev, symObjAddr: 0x6858, symBinAddr: 0x10000A354, symSize: 0x2C }
  - { offsetInCU: 0x4BE9F, offset: 0x4BE9F, size: 0x8, addend: 0x0, symName: __ZNSt3__13mapIiNS_4pairINS_6vectorINS_12basic_stringIcNS_11char_traitsIcEENS_9allocatorIcEEEENS6_IS8_EEEENS1_INS2_IiNS6_IiEEEENS2_IfNS6_IfEEEEEEEENS_4lessIiEENS6_INS1_IKiSG_EEEEED1B7v160006Ev, symObjAddr: 0x6884, symBinAddr: 0x10000A380, symSize: 0x2C }
  - { offsetInCU: 0x4BEC8, offset: 0x4BEC8, size: 0x8, addend: 0x0, symName: __Z8addSkillv, symObjAddr: 0x68B0, symBinAddr: 0x10000A3AC, symSize: 0x5D4 }
  - { offsetInCU: 0x4BFC3, offset: 0x4BFC3, size: 0x8, addend: 0x0, symName: __ZN8nlohmann16json_abi_v3_11_210basic_jsonINSt3__13mapENS2_6vectorENS2_12basic_stringIcNS2_11char_traitsIcEENS2_9allocatorIcEEEEbxydS8_NS0_14adl_serializerENS4_IhNS8_IhEEEEEC1INS2_4pairISA_NSG_INS4_IiNS8_IiEEEENS4_IfNS8_IfEEEEEEEESM_Li0EEEOT_, symObjAddr: 0x6F04, symBinAddr: 0x10000AA00, symSize: 0x34 }
  - { offsetInCU: 0x4C014, offset: 0x4C014, size: 0x8, addend: 0x0, symName: __ZNSt3__14pairINS_12basic_stringIcNS_11char_traitsIcEENS_9allocatorIcEEEENS0_INS_6vectorIiNS4_IiEEEENS7_IfNS4_IfEEEEEEED1Ev, symObjAddr: 0x6F38, symBinAddr: 0x10000AA34, symSize: 0x2C }
  - { offsetInCU: 0x4C040, offset: 0x4C040, size: 0x8, addend: 0x0, symName: __ZNSt3__14pairINS_6vectorIiNS_9allocatorIiEEEENS1_IfNS2_IfEEEEED1Ev, symObjAddr: 0x6F64, symBinAddr: 0x10000AA60, symSize: 0x2C }
  - { offsetInCU: 0x4C06B, offset: 0x4C06B, size: 0x8, addend: 0x0, symName: __Z6addingv, symObjAddr: 0x6F90, symBinAddr: 0x10000AA8C, symSize: 0x5CC }
  - { offsetInCU: 0x4C170, offset: 0x4C170, size: 0x8, addend: 0x0, symName: __ZN4Game5SkillC1EiiNSt3__112basic_stringIcNS1_11char_traitsIcEENS1_9allocatorIcEEEES7_iiiNS1_6vectorIfNS5_IfEEEE, symObjAddr: 0x755C, symBinAddr: 0x10000B058, symSize: 0x74 }
  - { offsetInCU: 0x4C20D, offset: 0x4C20D, size: 0x8, addend: 0x0, symName: __ZN4Game5SkillD1Ev, symObjAddr: 0x75D0, symBinAddr: 0x10000B0CC, symSize: 0x2C }
  - { offsetInCU: 0x4C238, offset: 0x4C238, size: 0x8, addend: 0x0, symName: __Z7enemiesv, symObjAddr: 0x75FC, symBinAddr: 0x10000B0F8, symSize: 0xC78 }
  - { offsetInCU: 0x4C3DA, offset: 0x4C3DA, size: 0x8, addend: 0x0, symName: __ZNSt3__112basic_stringIcNS_11char_traitsIcEENS_9allocatorIcEEEC1B7v160006IDnEEPKc, symObjAddr: 0x8274, symBinAddr: 0x10000BD70, symSize: 0x34 }
  - { offsetInCU: 0x4C418, offset: 0x4C418, size: 0x8, addend: 0x0, symName: __ZNSt3__16vectorIfNS_9allocatorIfEEEC1B7v160006ESt16initializer_listIfE, symObjAddr: 0x82A8, symBinAddr: 0x10000BDA4, symSize: 0x3C }
  - { offsetInCU: 0x4C453, offset: 0x4C453, size: 0x8, addend: 0x0, symName: __ZN4Game5Enemy11getAllEnemyEv, symObjAddr: 0x82E4, symBinAddr: 0x10000BDE0, symSize: 0x30 }
  - { offsetInCU: 0x4C467, offset: 0x4C467, size: 0x8, addend: 0x0, symName: __ZNSt3__114__map_iteratorINS_15__tree_iteratorINS_12__value_typeIiNS_4pairINS_12basic_stringIcNS_11char_traitsIcEENS_9allocatorIcEEEENS3_INS_6vectorIfNS7_IfEEEENSA_IiNS7_IiEEEEEEEEEEPNS_11__tree_nodeISH_PvEElEEEC1B7v160006Ev, symObjAddr: 0x8314, symBinAddr: 0x10000BE10, symSize: 0x2C }
  - { offsetInCU: 0x4C491, offset: 0x4C491, size: 0x8, addend: 0x0, symName: __ZNSt3__13mapIiNS_4pairINS_12basic_stringIcNS_11char_traitsIcEENS_9allocatorIcEEEENS1_INS_6vectorIfNS5_IfEEEENS8_IiNS5_IiEEEEEEEENS_4lessIiEENS5_INS1_IKiSE_EEEEE5beginB7v160006Ev, symObjAddr: 0x8340, symBinAddr: 0x10000BE3C, symSize: 0x38 }
  - { offsetInCU: 0x4C4B7, offset: 0x4C4B7, size: 0x8, addend: 0x0, symName: __ZNSt3__13mapIiNS_4pairINS_12basic_stringIcNS_11char_traitsIcEENS_9allocatorIcEEEENS1_INS_6vectorIfNS5_IfEEEENS8_IiNS5_IiEEEEEEEENS_4lessIiEENS5_INS1_IKiSE_EEEEE3endB7v160006Ev, symObjAddr: 0x83A8, symBinAddr: 0x10000BEA4, symSize: 0x38 }
  - { offsetInCU: 0x4C4DD, offset: 0x4C4DD, size: 0x8, addend: 0x0, symName: __ZNKSt3__114__map_iteratorINS_15__tree_iteratorINS_12__value_typeIiNS_4pairINS_12basic_stringIcNS_11char_traitsIcEENS_9allocatorIcEEEENS3_INS_6vectorIfNS7_IfEEEENSA_IiNS7_IiEEEEEEEEEEPNS_11__tree_nodeISH_PvEElEEEptB7v160006Ev, symObjAddr: 0x83E0, symBinAddr: 0x10000BEDC, symSize: 0x2C }
  - { offsetInCU: 0x4C503, offset: 0x4C503, size: 0x8, addend: 0x0, symName: __ZNSt3__114__map_iteratorINS_15__tree_iteratorINS_12__value_typeIiNS_4pairINS_12basic_stringIcNS_11char_traitsIcEENS_9allocatorIcEEEENS3_INS_6vectorIfNS7_IfEEEENSA_IiNS7_IiEEEEEEEEEEPNS_11__tree_nodeISH_PvEElEEEppB7v160006Ei, symObjAddr: 0x840C, symBinAddr: 0x10000BF08, symSize: 0x34 }
  - { offsetInCU: 0x4C544, offset: 0x4C544, size: 0x8, addend: 0x0, symName: __ZNSt3__16vectorIfNS_9allocatorIfEEE2atEm, symObjAddr: 0x8440, symBinAddr: 0x10000BF3C, symSize: 0x60 }
  - { offsetInCU: 0x4C581, offset: 0x4C581, size: 0x8, addend: 0x0, symName: __ZN4Game5EnemyC1EOS0_, symObjAddr: 0x84A0, symBinAddr: 0x10000BF9C, symSize: 0x34 }
  - { offsetInCU: 0x4C5B5, offset: 0x4C5B5, size: 0x8, addend: 0x0, symName: __Z12damage_dealtiffffNSt3__16vectorIfNS_9allocatorIfEEEES3_, symObjAddr: 0x84D4, symBinAddr: 0x10000BFD0, symSize: 0x178 }
  - { offsetInCU: 0x4C6A8, offset: 0x4C6A8, size: 0x8, addend: 0x0, symName: __ZNKSt3__16vectorIfNS_9allocatorIfEEE4sizeB7v160006Ev, symObjAddr: 0x864C, symBinAddr: 0x10000C148, symSize: 0x28 }
  - { offsetInCU: 0x4C6CD, offset: 0x4C6CD, size: 0x8, addend: 0x0, symName: __Z12normal_fightN4Game9InventoryENS_5EnemyE, symObjAddr: 0x8674, symBinAddr: 0x10000C170, symSize: 0x1EC0 }
  - { offsetInCU: 0x4CB1C, offset: 0x4CB1C, size: 0x8, addend: 0x0, symName: __ZN4Game5Enemy5getIDEv, symObjAddr: 0xA54C, symBinAddr: 0x10000E048, symSize: 0x18 }
  - { offsetInCU: 0x4CB42, offset: 0x4CB42, size: 0x8, addend: 0x0, symName: __ZN4Game9Inventory9getSkillsEv, symObjAddr: 0xA564, symBinAddr: 0x10000E060, symSize: 0x3C }
  - { offsetInCU: 0x4CB68, offset: 0x4CB68, size: 0x8, addend: 0x0, symName: __ZNSt3__13mapIiNS_4pairINS_6vectorIiNS_9allocatorIiEEEENS2_IfNS3_IfEEEEEENS_4lessIiEENS3_INS1_IKiS8_EEEEEC1B7v160006Ev, symObjAddr: 0xA5A0, symBinAddr: 0x10000E09C, symSize: 0x2C }
  - { offsetInCU: 0x4CB92, offset: 0x4CB92, size: 0x8, addend: 0x0, symName: __ZN4Game5Skill8getSkillEi, symObjAddr: 0xA5CC, symBinAddr: 0x10000E0C8, symSize: 0x500 }
  - { offsetInCU: 0x4CC64, offset: 0x4CC64, size: 0x8, addend: 0x0, symName: __ZNSt3__114__map_iteratorINS_15__tree_iteratorINS_12__value_typeIiNS_4pairINS_6vectorINS_12basic_stringIcNS_11char_traitsIcEENS_9allocatorIcEEEENS8_ISA_EEEENS3_INS4_IiNS8_IiEEEENS4_IfNS8_IfEEEEEEEEEEPNS_11__tree_nodeISJ_PvEElEEEC1B7v160006Ev, symObjAddr: 0xAACC, symBinAddr: 0x10000E5C8, symSize: 0x2C }
  - { offsetInCU: 0x4CC8E, offset: 0x4CC8E, size: 0x8, addend: 0x0, symName: __ZNSt3__13mapIiNS_4pairINS_6vectorINS_12basic_stringIcNS_11char_traitsIcEENS_9allocatorIcEEEENS6_IS8_EEEENS1_INS2_IiNS6_IiEEEENS2_IfNS6_IfEEEEEEEENS_4lessIiEENS6_INS1_IKiSG_EEEEE5beginB7v160006Ev, symObjAddr: 0xAAF8, symBinAddr: 0x10000E5F4, symSize: 0x38 }
  - { offsetInCU: 0x4CCB4, offset: 0x4CCB4, size: 0x8, addend: 0x0, symName: __ZNSt3__13mapIiNS_4pairINS_6vectorINS_12basic_stringIcNS_11char_traitsIcEENS_9allocatorIcEEEENS6_IS8_EEEENS1_INS2_IiNS6_IiEEEENS2_IfNS6_IfEEEEEEEENS_4lessIiEENS6_INS1_IKiSG_EEEEE3endB7v160006Ev, symObjAddr: 0xAB60, symBinAddr: 0x10000E65C, symSize: 0x38 }
  - { offsetInCU: 0x4CCDA, offset: 0x4CCDA, size: 0x8, addend: 0x0, symName: __ZNKSt3__114__map_iteratorINS_15__tree_iteratorINS_12__value_typeIiNS_4pairINS_6vectorINS_12basic_stringIcNS_11char_traitsIcEENS_9allocatorIcEEEENS8_ISA_EEEENS3_INS4_IiNS8_IiEEEENS4_IfNS8_IfEEEEEEEEEEPNS_11__tree_nodeISJ_PvEElEEEptB7v160006Ev, symObjAddr: 0xAB98, symBinAddr: 0x10000E694, symSize: 0x2C }
  - { offsetInCU: 0x4CD00, offset: 0x4CD00, size: 0x8, addend: 0x0, symName: __ZNSt3__13mapIiNS_4pairINS_6vectorIiNS_9allocatorIiEEEENS2_IfNS3_IfEEEEEENS_4lessIiEENS3_INS1_IKiS8_EEEEE6insertB7v160006EOSC_, symObjAddr: 0xABC4, symBinAddr: 0x10000E6C0, symSize: 0x4C }
  - { offsetInCU: 0x4CD35, offset: 0x4CD35, size: 0x8, addend: 0x0, symName: __ZNSt3__14pairIKiNS0_INS_6vectorIiNS_9allocatorIiEEEENS2_IfNS3_IfEEEEEEEC1B7v160006IRiS8_LPv0EEEOT_OT0_, symObjAddr: 0xAC10, symBinAddr: 0x10000E70C, symSize: 0x3C }
  - { offsetInCU: 0x4CD93, offset: 0x4CD93, size: 0x8, addend: 0x0, symName: __ZNSt3__14pairIKiNS0_INS_6vectorIiNS_9allocatorIiEEEENS2_IfNS3_IfEEEEEEED1Ev, symObjAddr: 0xAC4C, symBinAddr: 0x10000E748, symSize: 0x2C }
  - { offsetInCU: 0x4CDBF, offset: 0x4CDBF, size: 0x8, addend: 0x0, symName: __ZNSt3__114__map_iteratorINS_15__tree_iteratorINS_12__value_typeIiNS_4pairINS_6vectorINS_12basic_stringIcNS_11char_traitsIcEENS_9allocatorIcEEEENS8_ISA_EEEENS3_INS4_IiNS8_IiEEEENS4_IfNS8_IfEEEEEEEEEEPNS_11__tree_nodeISJ_PvEElEEEppB7v160006Ei, symObjAddr: 0xAC78, symBinAddr: 0x10000E774, symSize: 0x34 }
  - { offsetInCU: 0x4CE00, offset: 0x4CE00, size: 0x8, addend: 0x0, symName: __ZNKSt3__13mapIiNS_4pairINS_6vectorIiNS_9allocatorIiEEEENS2_IfNS3_IfEEEEEENS_4lessIiEENS3_INS1_IKiS8_EEEEE4sizeB7v160006Ev, symObjAddr: 0xACAC, symBinAddr: 0x10000E7A8, symSize: 0x28 }
  - { offsetInCU: 0x4CE26, offset: 0x4CE26, size: 0x8, addend: 0x0, symName: __ZNSt3__114__map_iteratorINS_15__tree_iteratorINS_12__value_typeIiNS_4pairINS_6vectorIiNS_9allocatorIiEEEENS4_IfNS5_IfEEEEEEEEPNS_11__tree_nodeISB_PvEElEEEC1B7v160006Ev, symObjAddr: 0xACD4, symBinAddr: 0x10000E7D0, symSize: 0x2C }
  - { offsetInCU: 0x4CE50, offset: 0x4CE50, size: 0x8, addend: 0x0, symName: __ZNSt3__13mapIiNS_4pairINS_6vectorIiNS_9allocatorIiEEEENS2_IfNS3_IfEEEEEENS_4lessIiEENS3_INS1_IKiS8_EEEEE5beginB7v160006Ev, symObjAddr: 0xAD00, symBinAddr: 0x10000E7FC, symSize: 0x38 }
  - { offsetInCU: 0x4CE76, offset: 0x4CE76, size: 0x8, addend: 0x0, symName: __ZNSt3__13mapIiNS_4pairINS_6vectorIiNS_9allocatorIiEEEENS2_IfNS3_IfEEEEEENS_4lessIiEENS3_INS1_IKiS8_EEEEE3endB7v160006Ev, symObjAddr: 0xAD68, symBinAddr: 0x10000E864, symSize: 0x38 }
  - { offsetInCU: 0x4CE9C, offset: 0x4CE9C, size: 0x8, addend: 0x0, symName: __ZNKSt3__114__map_iteratorINS_15__tree_iteratorINS_12__value_typeIiNS_4pairINS_6vectorIiNS_9allocatorIiEEEENS4_IfNS5_IfEEEEEEEEPNS_11__tree_nodeISB_PvEElEEEptB7v160006Ev, symObjAddr: 0xADA0, symBinAddr: 0x10000E89C, symSize: 0x2C }
  - { offsetInCU: 0x4CEC2, offset: 0x4CEC2, size: 0x8, addend: 0x0, symName: __ZNSt3__114__map_iteratorINS_15__tree_iteratorINS_12__value_typeIiNS_4pairINS_6vectorIiNS_9allocatorIiEEEENS4_IfNS5_IfEEEEEEEEPNS_11__tree_nodeISB_PvEElEEEppB7v160006Ei, symObjAddr: 0xADCC, symBinAddr: 0x10000E8C8, symSize: 0x34 }
  - { offsetInCU: 0x4CF03, offset: 0x4CF03, size: 0x8, addend: 0x0, symName: __ZN4Game6Player6getExpEv, symObjAddr: 0xAE00, symBinAddr: 0x10000E8FC, symSize: 0xD4 }
  - { offsetInCU: 0x4CF38, offset: 0x4CF38, size: 0x8, addend: 0x0, symName: __ZNSt3__13mapIiNS_4pairINS_6vectorIiNS_9allocatorIiEEEENS2_IfNS3_IfEEEEEENS_4lessIiEENS3_INS1_IKiS8_EEEEED1B7v160006Ev, symObjAddr: 0xAED4, symBinAddr: 0x10000E9D0, symSize: 0x2C }
  - { offsetInCU: 0x4CF61, offset: 0x4CF61, size: 0x8, addend: 0x0, symName: __Z4menuN4Game9InventoryE, symObjAddr: 0xAF00, symBinAddr: 0x10000E9FC, symSize: 0x324 }
  - { offsetInCU: 0x4CFD7, offset: 0x4CFD7, size: 0x8, addend: 0x0, symName: __ZN4Game9InventoryC1ERKS0_, symObjAddr: 0xB224, symBinAddr: 0x10000ED20, symSize: 0x34 }
  - { offsetInCU: 0x4D017, offset: 0x4D017, size: 0x8, addend: 0x0, symName: __ZN4Game5EnemyC1ERKS0_, symObjAddr: 0xB258, symBinAddr: 0x10000ED54, symSize: 0x34 }
  - { offsetInCU: 0x4D04C, offset: 0x4D04C, size: 0x8, addend: 0x0, symName: __ZN4Game9InventoryD1Ev, symObjAddr: 0xB28C, symBinAddr: 0x10000ED88, symSize: 0x2C }
  - { offsetInCU: 0x4D077, offset: 0x4D077, size: 0x8, addend: 0x0, symName: __Z7playersv, symObjAddr: 0xB2B8, symBinAddr: 0x10000EDB4, symSize: 0x34C }
  - { offsetInCU: 0x4D0D2, offset: 0x4D0D2, size: 0x8, addend: 0x0, symName: __ZNSt3__114basic_ifstreamIcNS_11char_traitsIcEEEC1Ev, symObjAddr: 0xB604, symBinAddr: 0x10000F100, symSize: 0xE8 }
  - { offsetInCU: 0x4D0FE, offset: 0x4D0FE, size: 0x8, addend: 0x0, symName: __ZN8nlohmann16json_abi_v3_11_210basic_jsonINSt3__13mapENS2_6vectorENS2_12basic_stringIcNS2_11char_traitsIcEENS2_9allocatorIcEEEEbxydS8_NS0_14adl_serializerENS4_IhNS8_IhEEEEEixIKcEERSE_PT_, symObjAddr: 0xB6EC, symBinAddr: 0x10000F1E8, symSize: 0x78 }
  - { offsetInCU: 0x4D13C, offset: 0x4D13C, size: 0x8, addend: 0x0, symName: __ZNK8nlohmann16json_abi_v3_11_210basic_jsonINSt3__13mapENS2_6vectorENS2_12basic_stringIcNS2_11char_traitsIcEENS2_9allocatorIcEEEEbxydS8_NS0_14adl_serializerENS4_IhNS8_IhEEEEE4sizeEv, symObjAddr: 0xB764, symBinAddr: 0x10000F260, symSize: 0xA4 }
  - { offsetInCU: 0x4D161, offset: 0x4D161, size: 0x8, addend: 0x0, symName: __Z8classingNSt3__112basic_stringIcNS_11char_traitsIcEENS_9allocatorIcEEEES5_, symObjAddr: 0xB830, symBinAddr: 0x10000F32C, symSize: 0x65C }
  - { offsetInCU: 0x4D1F8, offset: 0x4D1F8, size: 0x8, addend: 0x0, symName: __ZN4Game9InventoryC1ENSt3__112basic_stringIcNS1_11char_traitsIcEENS1_9allocatorIcEEEES7_NS1_6vectorIfNS5_IfEEEEiiiiiiii, symObjAddr: 0xBF38, symBinAddr: 0x10000FA34, symSize: 0xA8 }
  - { offsetInCU: 0x4D2BF, offset: 0x4D2BF, size: 0x8, addend: 0x0, symName: __ZN4Game9Inventory8addSkillEi, symObjAddr: 0xBFE0, symBinAddr: 0x10000FADC, symSize: 0xE8 }
  - { offsetInCU: 0x4D32A, offset: 0x4D32A, size: 0x8, addend: 0x0, symName: __Z11loginPlayerv, symObjAddr: 0xC0C8, symBinAddr: 0x10000FBC4, symSize: 0x1AC8 }
  - { offsetInCU: 0x4D60D, offset: 0x4D60D, size: 0x8, addend: 0x0, symName: __ZNK8nlohmann16json_abi_v3_11_210basic_jsonINSt3__13mapENS2_6vectorENS2_12basic_stringIcNS2_11char_traitsIcEENS2_9allocatorIcEEEEbxydS8_NS0_14adl_serializerENS4_IhNS8_IhEEEEEcvT_IfLi0EEEv, symObjAddr: 0xDCE8, symBinAddr: 0x1000117E4, symSize: 0x24 }
  - { offsetInCU: 0x4D642, offset: 0x4D642, size: 0x8, addend: 0x0, symName: __ZNK8nlohmann16json_abi_v3_11_210basic_jsonINSt3__13mapENS2_6vectorENS2_12basic_stringIcNS2_11char_traitsIcEENS2_9allocatorIcEEEEbxydS8_NS0_14adl_serializerENS4_IhNS8_IhEEEEEcvT_INS3_ISA_iNS2_4lessISA_EENS8_INS2_4pairIKSA_iEEEEEELi0EEEv, symObjAddr: 0xDD0C, symBinAddr: 0x100011808, symSize: 0x2C }
  - { offsetInCU: 0x4D677, offset: 0x4D677, size: 0x8, addend: 0x0, symName: __ZNSt3__114__map_iteratorINS_15__tree_iteratorINS_12__value_typeINS_12basic_stringIcNS_11char_traitsIcEENS_9allocatorIcEEEEiEEPNS_11__tree_nodeIS9_PvEElEEEC1B7v160006Ev, symObjAddr: 0xDD38, symBinAddr: 0x100011834, symSize: 0x2C }
  - { offsetInCU: 0x4D6A1, offset: 0x4D6A1, size: 0x8, addend: 0x0, symName: __ZNSt3__13mapINS_12basic_stringIcNS_11char_traitsIcEENS_9allocatorIcEEEEiNS_4lessIS6_EENS4_INS_4pairIKS6_iEEEEE5beginB7v160006Ev, symObjAddr: 0xDD64, symBinAddr: 0x100011860, symSize: 0x38 }
  - { offsetInCU: 0x4D6C7, offset: 0x4D6C7, size: 0x8, addend: 0x0, symName: __ZNSt3__13mapINS_12basic_stringIcNS_11char_traitsIcEENS_9allocatorIcEEEEiNS_4lessIS6_EENS4_INS_4pairIKS6_iEEEEE3endB7v160006Ev, symObjAddr: 0xDDCC, symBinAddr: 0x1000118C8, symSize: 0x38 }
  - { offsetInCU: 0x4D6ED, offset: 0x4D6ED, size: 0x8, addend: 0x0, symName: __ZNKSt3__114__map_iteratorINS_15__tree_iteratorINS_12__value_typeINS_12basic_stringIcNS_11char_traitsIcEENS_9allocatorIcEEEEiEEPNS_11__tree_nodeIS9_PvEElEEEptB7v160006Ev, symObjAddr: 0xDE04, symBinAddr: 0x100011900, symSize: 0x2C }
  - { offsetInCU: 0x4D713, offset: 0x4D713, size: 0x8, addend: 0x0, symName: __ZNSt3__114__map_iteratorINS_15__tree_iteratorINS_12__value_typeINS_12basic_stringIcNS_11char_traitsIcEENS_9allocatorIcEEEEiEEPNS_11__tree_nodeIS9_PvEElEEEppB7v160006Ei, symObjAddr: 0xDE30, symBinAddr: 0x10001192C, symSize: 0x34 }
  - { offsetInCU: 0x4D754, offset: 0x4D754, size: 0x8, addend: 0x0, symName: __ZNSt3__13mapINS_12basic_stringIcNS_11char_traitsIcEENS_9allocatorIcEEEEiNS_4lessIS6_EENS4_INS_4pairIKS6_iEEEEED1B7v160006Ev, symObjAddr: 0xDE64, symBinAddr: 0x100011960, symSize: 0x2C }
  - { offsetInCU: 0x4D77E, offset: 0x4D77E, size: 0x8, addend: 0x0, symName: __ZN8nlohmann16json_abi_v3_11_210basic_jsonINSt3__13mapENS2_6vectorENS2_12basic_stringIcNS2_11char_traitsIcEENS2_9allocatorIcEEEEbxydS8_NS0_14adl_serializerENS4_IhNS8_IhEEEEE5eraseERKSA_, symObjAddr: 0xDE90, symBinAddr: 0x10001198C, symSize: 0x2C }
  - { offsetInCU: 0x4D7B9, offset: 0x4D7B9, size: 0x8, addend: 0x0, symName: __ZN4Game9InventoryaSEOS0_, symObjAddr: 0xDEBC, symBinAddr: 0x1000119B8, symSize: 0x34 }
  - { offsetInCU: 0x4D7E9, offset: 0x4D7E9, size: 0x8, addend: 0x0, symName: __Z4saveN4Game9InventoryE, symObjAddr: 0xDEF0, symBinAddr: 0x1000119EC, symSize: 0x658 }
  - { offsetInCU: 0x4D898, offset: 0x4D898, size: 0x8, addend: 0x0, symName: __ZN4Game9Inventory12getInventoryEv, symObjAddr: 0xE548, symBinAddr: 0x100012044, symSize: 0x3C }
  - { offsetInCU: 0x4D8BE, offset: 0x4D8BE, size: 0x8, addend: 0x0, symName: __ZNSt3__114__map_iteratorINS_15__tree_iteratorINS_12__value_typeIiiEEPNS_11__tree_nodeIS3_PvEElEEEC1B7v160006Ev, symObjAddr: 0xE584, symBinAddr: 0x100012080, symSize: 0x2C }
  - { offsetInCU: 0x4D8E8, offset: 0x4D8E8, size: 0x8, addend: 0x0, symName: __ZNSt3__13mapIiiNS_4lessIiEENS_9allocatorINS_4pairIKiiEEEEE5beginB7v160006Ev, symObjAddr: 0xE5B0, symBinAddr: 0x1000120AC, symSize: 0x38 }
  - { offsetInCU: 0x4D90E, offset: 0x4D90E, size: 0x8, addend: 0x0, symName: __ZNSt3__13mapIiiNS_4lessIiEENS_9allocatorINS_4pairIKiiEEEEE3endB7v160006Ev, symObjAddr: 0xE618, symBinAddr: 0x100012114, symSize: 0x38 }
  - { offsetInCU: 0x4D934, offset: 0x4D934, size: 0x8, addend: 0x0, symName: __ZNKSt3__114__map_iteratorINS_15__tree_iteratorINS_12__value_typeIiiEEPNS_11__tree_nodeIS3_PvEElEEEptB7v160006Ev, symObjAddr: 0xE650, symBinAddr: 0x10001214C, symSize: 0x2C }
  - { offsetInCU: 0x4D95A, offset: 0x4D95A, size: 0x8, addend: 0x0, symName: __ZN8nlohmann16json_abi_v3_11_210basic_jsonINSt3__13mapENS2_6vectorENS2_12basic_stringIcNS2_11char_traitsIcEENS2_9allocatorIcEEEEbxydS8_NS0_14adl_serializerENS4_IhNS8_IhEEEEEC1IRiiLi0EEEOT_, symObjAddr: 0xE67C, symBinAddr: 0x100012178, symSize: 0x34 }
  - { offsetInCU: 0x4D9AB, offset: 0x4D9AB, size: 0x8, addend: 0x0, symName: __ZNSt3__114__map_iteratorINS_15__tree_iteratorINS_12__value_typeIiiEEPNS_11__tree_nodeIS3_PvEElEEEppB7v160006Ei, symObjAddr: 0xE6B0, symBinAddr: 0x1000121AC, symSize: 0x34 }
  - { offsetInCU: 0x4D9EC, offset: 0x4D9EC, size: 0x8, addend: 0x0, symName: __ZN8nlohmann16json_abi_v3_11_210basic_jsonINSt3__13mapENS2_6vectorENS2_12basic_stringIcNS2_11char_traitsIcEENS2_9allocatorIcEEEEbxydS8_NS0_14adl_serializerENS4_IhNS8_IhEEEEE5clearEv, symObjAddr: 0xE6E4, symBinAddr: 0x1000121E0, symSize: 0xDC }
  - { offsetInCU: 0x4DA12, offset: 0x4DA12, size: 0x8, addend: 0x0, symName: __ZN8nlohmann16json_abi_v3_11_210basic_jsonINSt3__13mapENS2_6vectorENS2_12basic_stringIcNS2_11char_traitsIcEENS2_9allocatorIcEEEEbxydS8_NS0_14adl_serializerENS4_IhNS8_IhEEEEE9push_backEOSE_, symObjAddr: 0xE7E8, symBinAddr: 0x1000122E4, symSize: 0x1B0 }
  - { offsetInCU: 0x4DA55, offset: 0x4DA55, size: 0x8, addend: 0x0, symName: __Z9saveItemsv, symObjAddr: 0xE998, symBinAddr: 0x100012494, symSize: 0x840 }
  - { offsetInCU: 0x4DB5C, offset: 0x4DB5C, size: 0x8, addend: 0x0, symName: __Z10saveSkillsv, symObjAddr: 0xF1D8, symBinAddr: 0x100012CD4, symSize: 0x764 }
  - { offsetInCU: 0x4DC55, offset: 0x4DC55, size: 0x8, addend: 0x0, symName: __ZN4Game5Skill12getAllSkillsEv, symObjAddr: 0xF93C, symBinAddr: 0x100013438, symSize: 0x3C }
  - { offsetInCU: 0x4DC7A, offset: 0x4DC7A, size: 0x8, addend: 0x0, symName: __Z11saveEnemiesv, symObjAddr: 0xF978, symBinAddr: 0x100013474, symSize: 0x6E4 }
  - { offsetInCU: 0x4DD3B, offset: 0x4DD3B, size: 0x8, addend: 0x0, symName: __Z8saveDataN4Game9InventoryE, symObjAddr: 0x1005C, symBinAddr: 0x100013B58, symSize: 0x70 }
  - { offsetInCU: 0x4DD65, offset: 0x4DD65, size: 0x8, addend: 0x0, symName: __Z7setPathiPc, symObjAddr: 0x100CC, symBinAddr: 0x100013BC8, symSize: 0x188 }
  - { offsetInCU: 0x4DDC7, offset: 0x4DDC7, size: 0x8, addend: 0x0, symName: __ZNKSt3__112basic_stringIcNS_11char_traitsIcEENS_9allocatorIcEEE6substrB7v160006Emm, symObjAddr: 0x10254, symBinAddr: 0x100013D50, symSize: 0x68 }
  - { offsetInCU: 0x4DE0B, offset: 0x4DE0B, size: 0x8, addend: 0x0, symName: __ZNSt3__112basic_stringIcNS_11char_traitsIcEENS_9allocatorIcEEEaSB7v160006EOS5_, symObjAddr: 0x103D8, symBinAddr: 0x100013ED4, symSize: 0x34 }
  - { offsetInCU: 0x4DE3F, offset: 0x4DE3F, size: 0x8, addend: 0x0, symName: __Z5loginv, symObjAddr: 0x1040C, symBinAddr: 0x100013F08, symSize: 0x68 }
  - { offsetInCU: 0x4DE6C, offset: 0x4DE6C, size: 0x8, addend: 0x0, symName: __Z9characterN4Game9InventoryE, symObjAddr: 0x10474, symBinAddr: 0x100013F70, symSize: 0x254 }
  - { offsetInCU: 0x4DEA8, offset: 0x4DEA8, size: 0x8, addend: 0x0, symName: __ZN4Game9Inventory13showInventoryEv, symObjAddr: 0x106C8, symBinAddr: 0x1000141C4, symSize: 0xCEC }
  - { offsetInCU: 0x4E0A2, offset: 0x4E0A2, size: 0x8, addend: 0x0, symName: __Z4loopv, symObjAddr: 0x113F0, symBinAddr: 0x100014EEC, symSize: 0x354 }
  - { offsetInCU: 0x4E0DD, offset: 0x4E0DD, size: 0x8, addend: 0x0, symName: __Z7devmodev, symObjAddr: 0x11744, symBinAddr: 0x100015240, symSize: 0x108 }
  - { offsetInCU: 0x4E106, offset: 0x4E106, size: 0x8, addend: 0x0, symName: _main, symObjAddr: 0x1184C, symBinAddr: 0x100015348, symSize: 0xEC }
  - { offsetInCU: 0x4E14C, offset: 0x4E14C, size: 0x8, addend: 0x0, symName: __ZNSt3__113basic_ostreamIcNS_11char_traitsIcEEElsB7v160006EPFRNS_8ios_baseES5_E, symObjAddr: 0x119A4, symBinAddr: 0x1000154A0, symSize: 0x40 }
  - { offsetInCU: 0x4E180, offset: 0x4E180, size: 0x8, addend: 0x0, symName: __ZNSt3__14pairINS_6vectorINS_12basic_stringIcNS_11char_traitsIcEENS_9allocatorIcEEEENS5_IS7_EEEENS0_INS1_IiNS5_IiEEEESB_EEEC1B7v160006IS9_SC_LPv0EEEOT_OT0_, symObjAddr: 0x11A14, symBinAddr: 0x100015510, symSize: 0x3C }
  - { offsetInCU: 0x4E1DE, offset: 0x4E1DE, size: 0x8, addend: 0x0, symName: __ZNSt3__14pairINS_6vectorINS_12basic_stringIcNS_11char_traitsIcEENS_9allocatorIcEEEENS5_IS7_EEEENS0_INS1_IiNS5_IiEEEESB_EEEC2B7v160006IS9_SC_LPv0EEEOT_OT0_, symObjAddr: 0x11A50, symBinAddr: 0x10001554C, symSize: 0x48 }
  - { offsetInCU: 0x4E23C, offset: 0x4E23C, size: 0x8, addend: 0x0, symName: __ZNSt3__16vectorINS_12basic_stringIcNS_11char_traitsIcEENS_9allocatorIcEEEENS4_IS6_EEEC1B7v160006EOS8_, symObjAddr: 0x11A98, symBinAddr: 0x100015594, symSize: 0x34 }
  - { offsetInCU: 0x4E277, offset: 0x4E277, size: 0x8, addend: 0x0, symName: __ZNSt3__14pairINS_6vectorIiNS_9allocatorIiEEEES4_EC1EOS5_, symObjAddr: 0x11ACC, symBinAddr: 0x1000155C8, symSize: 0x34 }
  - { offsetInCU: 0x4E2AC, offset: 0x4E2AC, size: 0x8, addend: 0x0, symName: __ZNSt3__16vectorINS_12basic_stringIcNS_11char_traitsIcEENS_9allocatorIcEEEENS4_IS6_EEEC2B7v160006EOS8_, symObjAddr: 0x11B00, symBinAddr: 0x1000155FC, symSize: 0xE0 }
  - { offsetInCU: 0x4E2E7, offset: 0x4E2E7, size: 0x8, addend: 0x0, symName: __ZNSt3__16vectorINS_12basic_stringIcNS_11char_traitsIcEENS_9allocatorIcEEEENS4_IS6_EEE7__allocB7v160006Ev, symObjAddr: 0x11BE0, symBinAddr: 0x1000156DC, symSize: 0x28 }
  - { offsetInCU: 0x4E319, offset: 0x4E319, size: 0x8, addend: 0x0, symName: __ZNSt3__117__compressed_pairIPNS_12basic_stringIcNS_11char_traitsIcEENS_9allocatorIcEEEENS4_IS6_EEEC1B7v160006IDnS8_EEOT_OT0_, symObjAddr: 0x11C08, symBinAddr: 0x100015704, symSize: 0x3C }
  - { offsetInCU: 0x4E371, offset: 0x4E371, size: 0x8, addend: 0x0, symName: __ZNSt3__16vectorINS_12basic_stringIcNS_11char_traitsIcEENS_9allocatorIcEEEENS4_IS6_EEE9__end_capB7v160006Ev, symObjAddr: 0x11C74, symBinAddr: 0x100015770, symSize: 0x28 }
  - { offsetInCU: 0x4E397, offset: 0x4E397, size: 0x8, addend: 0x0, symName: __ZNSt3__117__compressed_pairIPNS_12basic_stringIcNS_11char_traitsIcEENS_9allocatorIcEEEENS4_IS6_EEE6secondB7v160006Ev, symObjAddr: 0x11C9C, symBinAddr: 0x100015798, symSize: 0x24 }
  - { offsetInCU: 0x4E3BD, offset: 0x4E3BD, size: 0x8, addend: 0x0, symName: __ZNSt3__122__compressed_pair_elemINS_9allocatorINS_12basic_stringIcNS_11char_traitsIcEENS1_IcEEEEEELi1ELb1EE5__getB7v160006Ev, symObjAddr: 0x11CC0, symBinAddr: 0x1000157BC, symSize: 0x14 }
  - { offsetInCU: 0x4E3E3, offset: 0x4E3E3, size: 0x8, addend: 0x0, symName: __ZNSt3__117__compressed_pairIPNS_12basic_stringIcNS_11char_traitsIcEENS_9allocatorIcEEEENS4_IS6_EEEC2B7v160006IDnS8_EEOT_OT0_, symObjAddr: 0x11CD4, symBinAddr: 0x1000157D0, symSize: 0x44 }
  - { offsetInCU: 0x4E43B, offset: 0x4E43B, size: 0x8, addend: 0x0, symName: __ZNSt3__122__compressed_pair_elemIPNS_12basic_stringIcNS_11char_traitsIcEENS_9allocatorIcEEEELi0ELb0EEC2B7v160006IDnvEEOT_, symObjAddr: 0x11D18, symBinAddr: 0x100015814, symSize: 0x1C }
  - { offsetInCU: 0x4E47D, offset: 0x4E47D, size: 0x8, addend: 0x0, symName: __ZNSt3__122__compressed_pair_elemINS_9allocatorINS_12basic_stringIcNS_11char_traitsIcEENS1_IcEEEEEELi1ELb1EEC2B7v160006IS7_vEEOT_, symObjAddr: 0x11D34, symBinAddr: 0x100015830, symSize: 0x18 }
  - { offsetInCU: 0x4E4BF, offset: 0x4E4BF, size: 0x8, addend: 0x0, symName: __ZNSt3__117__compressed_pairIPNS_12basic_stringIcNS_11char_traitsIcEENS_9allocatorIcEEEENS4_IS6_EEE5firstB7v160006Ev, symObjAddr: 0x11D4C, symBinAddr: 0x100015848, symSize: 0x24 }
  - { offsetInCU: 0x4E4E5, offset: 0x4E4E5, size: 0x8, addend: 0x0, symName: __ZNSt3__122__compressed_pair_elemIPNS_12basic_stringIcNS_11char_traitsIcEENS_9allocatorIcEEEELi0ELb0EE5__getB7v160006Ev, symObjAddr: 0x11D70, symBinAddr: 0x10001586C, symSize: 0x14 }
  - { offsetInCU: 0x4E50B, offset: 0x4E50B, size: 0x8, addend: 0x0, symName: __ZNSt3__14pairINS_6vectorIiNS_9allocatorIiEEEES4_EC2EOS5_, symObjAddr: 0x11D84, symBinAddr: 0x100015880, symSize: 0x48 }
  - { offsetInCU: 0x4E540, offset: 0x4E540, size: 0x8, addend: 0x0, symName: __ZNSt3__16vectorIiNS_9allocatorIiEEEC1B7v160006EOS3_, symObjAddr: 0x11DCC, symBinAddr: 0x1000158C8, symSize: 0x34 }
  - { offsetInCU: 0x4E57B, offset: 0x4E57B, size: 0x8, addend: 0x0, symName: __ZNSt3__16vectorIiNS_9allocatorIiEEEC2B7v160006EOS3_, symObjAddr: 0x11E00, symBinAddr: 0x1000158FC, symSize: 0xE0 }
  - { offsetInCU: 0x4E5B6, offset: 0x4E5B6, size: 0x8, addend: 0x0, symName: __ZNSt3__16vectorIiNS_9allocatorIiEEE7__allocB7v160006Ev, symObjAddr: 0x11EE0, symBinAddr: 0x1000159DC, symSize: 0x28 }
  - { offsetInCU: 0x4E5E2, offset: 0x4E5E2, size: 0x8, addend: 0x0, symName: __ZNSt3__117__compressed_pairIPiNS_9allocatorIiEEEC1B7v160006IDnS3_EEOT_OT0_, symObjAddr: 0x11F08, symBinAddr: 0x100015A04, symSize: 0x3C }
  - { offsetInCU: 0x4E63A, offset: 0x4E63A, size: 0x8, addend: 0x0, symName: __ZNSt3__16vectorIiNS_9allocatorIiEEE9__end_capB7v160006Ev, symObjAddr: 0x11F68, symBinAddr: 0x100015A64, symSize: 0x28 }
  - { offsetInCU: 0x4E660, offset: 0x4E660, size: 0x8, addend: 0x0, symName: __ZNSt3__117__compressed_pairIPiNS_9allocatorIiEEE6secondB7v160006Ev, symObjAddr: 0x11F90, symBinAddr: 0x100015A8C, symSize: 0x24 }
  - { offsetInCU: 0x4E686, offset: 0x4E686, size: 0x8, addend: 0x0, symName: __ZNSt3__122__compressed_pair_elemINS_9allocatorIiEELi1ELb1EE5__getB7v160006Ev, symObjAddr: 0x11FB4, symBinAddr: 0x100015AB0, symSize: 0x14 }
  - { offsetInCU: 0x4E6AC, offset: 0x4E6AC, size: 0x8, addend: 0x0, symName: __ZNSt3__117__compressed_pairIPiNS_9allocatorIiEEEC2B7v160006IDnS3_EEOT_OT0_, symObjAddr: 0x11FC8, symBinAddr: 0x100015AC4, symSize: 0x44 }
  - { offsetInCU: 0x4E704, offset: 0x4E704, size: 0x8, addend: 0x0, symName: __ZNSt3__122__compressed_pair_elemIPiLi0ELb0EEC2B7v160006IDnvEEOT_, symObjAddr: 0x1200C, symBinAddr: 0x100015B08, symSize: 0x1C }
  - { offsetInCU: 0x4E746, offset: 0x4E746, size: 0x8, addend: 0x0, symName: __ZNSt3__122__compressed_pair_elemINS_9allocatorIiEELi1ELb1EEC2B7v160006IS2_vEEOT_, symObjAddr: 0x12028, symBinAddr: 0x100015B24, symSize: 0x18 }
  - { offsetInCU: 0x4E788, offset: 0x4E788, size: 0x8, addend: 0x0, symName: __ZNSt3__117__compressed_pairIPiNS_9allocatorIiEEE5firstB7v160006Ev, symObjAddr: 0x12040, symBinAddr: 0x100015B3C, symSize: 0x24 }
  - { offsetInCU: 0x4E7AE, offset: 0x4E7AE, size: 0x8, addend: 0x0, symName: __ZNSt3__122__compressed_pair_elemIPiLi0ELb0EE5__getB7v160006Ev, symObjAddr: 0x12064, symBinAddr: 0x100015B60, symSize: 0x14 }
  - { offsetInCU: 0x4E7D4, offset: 0x4E7D4, size: 0x8, addend: 0x0, symName: __ZNSt3__14pairINS_6vectorIiNS_9allocatorIiEEEES4_EC1B7v160006IS4_S4_LPv0EEEOT_OT0_, symObjAddr: 0x12078, symBinAddr: 0x100015B74, symSize: 0x3C }
  - { offsetInCU: 0x4E832, offset: 0x4E832, size: 0x8, addend: 0x0, symName: __ZNSt3__14pairINS_6vectorIiNS_9allocatorIiEEEES4_EC2B7v160006IS4_S4_LPv0EEEOT_OT0_, symObjAddr: 0x120B4, symBinAddr: 0x100015BB0, symSize: 0x48 }
  - { offsetInCU: 0x4E890, offset: 0x4E890, size: 0x8, addend: 0x0, symName: __ZNSt3__14pairINS_6vectorINS_12basic_stringIcNS_11char_traitsIcEENS_9allocatorIcEEEENS5_IS7_EEEENS0_INS1_IiNS5_IiEEEESB_EEED2Ev, symObjAddr: 0x120FC, symBinAddr: 0x100015BF8, symSize: 0x38 }
  - { offsetInCU: 0x4E8BC, offset: 0x4E8BC, size: 0x8, addend: 0x0, symName: __ZNSt3__14pairINS_6vectorIiNS_9allocatorIiEEEES4_ED2Ev, symObjAddr: 0x12134, symBinAddr: 0x100015C30, symSize: 0x38 }
  - { offsetInCU: 0x4E8E8, offset: 0x4E8E8, size: 0x8, addend: 0x0, symName: __ZNSt3__18__iom_t6C1B7v160006Ei, symObjAddr: 0x1216C, symBinAddr: 0x100015C68, symSize: 0x34 }
  - { offsetInCU: 0x4E920, offset: 0x4E920, size: 0x8, addend: 0x0, symName: __ZNSt3__18__iom_t6C2B7v160006Ei, symObjAddr: 0x121A0, symBinAddr: 0x100015C9C, symSize: 0x20 }
  - { offsetInCU: 0x4E958, offset: 0x4E958, size: 0x8, addend: 0x0, symName: __ZNSt3__114basic_ofstreamIcNS_11char_traitsIcEEED2Ev, symObjAddr: 0x121C0, symBinAddr: 0x100015CBC, symSize: 0x64 }
  - { offsetInCU: 0x4E992, offset: 0x4E992, size: 0x8, addend: 0x0, symName: __ZTv0_n24_NSt3__114basic_ofstreamIcNS_11char_traitsIcEEED1Ev, symObjAddr: 0x12224, symBinAddr: 0x100015D20, symSize: 0x28 }
  - { offsetInCU: 0x4E9A9, offset: 0x4E9A9, size: 0x8, addend: 0x0, symName: __ZNSt3__114basic_ifstreamIcNS_11char_traitsIcEEED2Ev, symObjAddr: 0x1224C, symBinAddr: 0x100015D48, symSize: 0x64 }
  - { offsetInCU: 0x4E9E3, offset: 0x4E9E3, size: 0x8, addend: 0x0, symName: __ZTv0_n24_NSt3__114basic_ifstreamIcNS_11char_traitsIcEEED1Ev, symObjAddr: 0x122B0, symBinAddr: 0x100015DAC, symSize: 0x28 }
  - { offsetInCU: 0x4E9FA, offset: 0x4E9FA, size: 0x8, addend: 0x0, symName: __ZNSt3__13mapIiiNS_4lessIiEENS_9allocatorINS_4pairIKiiEEEEE4findB7v160006ERS5_, symObjAddr: 0x122D8, symBinAddr: 0x100015DD4, symSize: 0x40 }
  - { offsetInCU: 0x4EA2F, offset: 0x4EA2F, size: 0x8, addend: 0x0, symName: __ZNSt3__13mapIiiNS_4lessIiEENS_9allocatorINS_4pairIKiiEEEEEixERS5_, symObjAddr: 0x12318, symBinAddr: 0x100015E14, symSize: 0x80 }
  - { offsetInCU: 0x4EA66, offset: 0x4EA66, size: 0x8, addend: 0x0, symName: __ZNSt3__13mapIiiNS_4lessIiEENS_9allocatorINS_4pairIKiiEEEEE6insertB7v160006EOS6_, symObjAddr: 0x12398, symBinAddr: 0x100015E94, symSize: 0x4C }
  - { offsetInCU: 0x4EA9B, offset: 0x4EA9B, size: 0x8, addend: 0x0, symName: __ZNSt3__14pairIKiiEC1B7v160006IRiS4_LPv0EEEOT_OT0_, symObjAddr: 0x123E4, symBinAddr: 0x100015EE0, symSize: 0x3C }
  - { offsetInCU: 0x4EAF9, offset: 0x4EAF9, size: 0x8, addend: 0x0, symName: __ZNSt3__16__treeINS_12__value_typeIiiEENS_19__map_value_compareIiS2_NS_4lessIiEELb1EEENS_9allocatorIS2_EEE4findIiEENS_15__tree_iteratorIS2_PNS_11__tree_nodeIS2_PvEElEERKT_, symObjAddr: 0x12420, symBinAddr: 0x100015F1C, symSize: 0xF8 }
  - { offsetInCU: 0x4EB48, offset: 0x4EB48, size: 0x8, addend: 0x0, symName: __ZNSt3__114__map_iteratorINS_15__tree_iteratorINS_12__value_typeIiiEEPNS_11__tree_nodeIS3_PvEElEEEC1B7v160006ES8_, symObjAddr: 0x12518, symBinAddr: 0x100016014, symSize: 0x34 }
  - { offsetInCU: 0x4EB81, offset: 0x4EB81, size: 0x8, addend: 0x0, symName: __ZNSt3__16__treeINS_12__value_typeIiiEENS_19__map_value_compareIiS2_NS_4lessIiEELb1EEENS_9allocatorIS2_EEE13__lower_boundIiEENS_15__tree_iteratorIS2_PNS_11__tree_nodeIS2_PvEElEERKT_SF_PNS_15__tree_end_nodeIPNS_16__tree_node_baseISD_EEEE, symObjAddr: 0x1254C, symBinAddr: 0x100016048, symSize: 0xA4 }
  - { offsetInCU: 0x4EBDF, offset: 0x4EBDF, size: 0x8, addend: 0x0, symName: __ZNKSt3__16__treeINS_12__value_typeIiiEENS_19__map_value_compareIiS2_NS_4lessIiEELb1EEENS_9allocatorIS2_EEE6__rootB7v160006Ev, symObjAddr: 0x125F0, symBinAddr: 0x1000160EC, symSize: 0x28 }
  - { offsetInCU: 0x4EC05, offset: 0x4EC05, size: 0x8, addend: 0x0, symName: __ZNSt3__16__treeINS_12__value_typeIiiEENS_19__map_value_compareIiS2_NS_4lessIiEELb1EEENS_9allocatorIS2_EEE10__end_nodeB7v160006Ev, symObjAddr: 0x12618, symBinAddr: 0x100016114, symSize: 0x2C }
  - { offsetInCU: 0x4EC2B, offset: 0x4EC2B, size: 0x8, addend: 0x0, symName: __ZNSt3__16__treeINS_12__value_typeIiiEENS_19__map_value_compareIiS2_NS_4lessIiEELb1EEENS_9allocatorIS2_EEE3endB7v160006Ev, symObjAddr: 0x12678, symBinAddr: 0x100016174, symSize: 0x34 }
  - { offsetInCU: 0x4EC51, offset: 0x4EC51, size: 0x8, addend: 0x0, symName: __ZNSt3__16__treeINS_12__value_typeIiiEENS_19__map_value_compareIiS2_NS_4lessIiEELb1EEENS_9allocatorIS2_EEE10value_compB7v160006Ev, symObjAddr: 0x126AC, symBinAddr: 0x1000161A8, symSize: 0x28 }
  - { offsetInCU: 0x4EC77, offset: 0x4EC77, size: 0x8, addend: 0x0, symName: __ZNKSt3__119__map_value_compareIiNS_12__value_typeIiiEENS_4lessIiEELb1EEclB7v160006ERKiRKS2_, symObjAddr: 0x126D4, symBinAddr: 0x1000161D0, symSize: 0x50 }
  - { offsetInCU: 0x4ECBB, offset: 0x4ECBB, size: 0x8, addend: 0x0, symName: __ZNKSt3__115__tree_iteratorINS_12__value_typeIiiEEPNS_11__tree_nodeIS2_PvEElEdeB7v160006Ev, symObjAddr: 0x12724, symBinAddr: 0x100016220, symSize: 0x28 }
  - { offsetInCU: 0x4ECE1, offset: 0x4ECE1, size: 0x8, addend: 0x0, symName: __ZNKSt3__119__map_value_compareIiNS_12__value_typeIiiEENS_4lessIiEELb1EEclB7v160006ERKS2_RKi, symObjAddr: 0x1274C, symBinAddr: 0x100016248, symSize: 0x48 }
  - { offsetInCU: 0x4ED25, offset: 0x4ED25, size: 0x8, addend: 0x0, symName: __ZNSt3__115__tree_iteratorINS_12__value_typeIiiEEPNS_11__tree_nodeIS2_PvEElEC1B7v160006EPNS_15__tree_end_nodeIPNS_16__tree_node_baseIS4_EEEE, symObjAddr: 0x12794, symBinAddr: 0x100016290, symSize: 0x34 }
  - { offsetInCU: 0x4ED5E, offset: 0x4ED5E, size: 0x8, addend: 0x0, symName: __ZNKSt3__14lessIiEclB7v160006ERKiS3_, symObjAddr: 0x127C8, symBinAddr: 0x1000162C4, symSize: 0x34 }
  - { offsetInCU: 0x4EDA2, offset: 0x4EDA2, size: 0x8, addend: 0x0, symName: __ZNKSt3__112__value_typeIiiE11__get_valueB7v160006Ev, symObjAddr: 0x127FC, symBinAddr: 0x1000162F8, symSize: 0x14 }
  - { offsetInCU: 0x4EDC8, offset: 0x4EDC8, size: 0x8, addend: 0x0, symName: __ZNSt3__115__tree_iteratorINS_12__value_typeIiiEEPNS_11__tree_nodeIS2_PvEElEC2B7v160006EPNS_15__tree_end_nodeIPNS_16__tree_node_baseIS4_EEEE, symObjAddr: 0x12810, symBinAddr: 0x10001630C, symSize: 0x20 }
  - { offsetInCU: 0x4EE01, offset: 0x4EE01, size: 0x8, addend: 0x0, symName: __ZNKSt3__16__treeINS_12__value_typeIiiEENS_19__map_value_compareIiS2_NS_4lessIiEELb1EEENS_9allocatorIS2_EEE10__end_nodeB7v160006Ev, symObjAddr: 0x12830, symBinAddr: 0x10001632C, symSize: 0x2C }
  - { offsetInCU: 0x4EE27, offset: 0x4EE27, size: 0x8, addend: 0x0, symName: __ZNSt3__114pointer_traitsIPNS_15__tree_end_nodeIPNS_16__tree_node_baseIPvEEEEE10pointer_toB7v160006ERS6_, symObjAddr: 0x1285C, symBinAddr: 0x100016358, symSize: 0x14 }
  - { offsetInCU: 0x4EE4A, offset: 0x4EE4A, size: 0x8, addend: 0x0, symName: __ZNKSt3__117__compressed_pairINS_15__tree_end_nodeIPNS_16__tree_node_baseIPvEEEENS_9allocatorINS_11__tree_nodeINS_12__value_typeIiiEES3_EEEEE5firstB7v160006Ev, symObjAddr: 0x12870, symBinAddr: 0x10001636C, symSize: 0x24 }
  - { offsetInCU: 0x4EE70, offset: 0x4EE70, size: 0x8, addend: 0x0, symName: __ZNKSt3__122__compressed_pair_elemINS_15__tree_end_nodeIPNS_16__tree_node_baseIPvEEEELi0ELb0EE5__getB7v160006Ev, symObjAddr: 0x12894, symBinAddr: 0x100016390, symSize: 0x14 }
  - { offsetInCU: 0x4EE96, offset: 0x4EE96, size: 0x8, addend: 0x0, symName: __ZNSt3__117__compressed_pairINS_15__tree_end_nodeIPNS_16__tree_node_baseIPvEEEENS_9allocatorINS_11__tree_nodeINS_12__value_typeIiiEES3_EEEEE5firstB7v160006Ev, symObjAddr: 0x128A8, symBinAddr: 0x1000163A4, symSize: 0x24 }
  - { offsetInCU: 0x4EEBC, offset: 0x4EEBC, size: 0x8, addend: 0x0, symName: __ZNSt3__122__compressed_pair_elemINS_15__tree_end_nodeIPNS_16__tree_node_baseIPvEEEELi0ELb0EE5__getB7v160006Ev, symObjAddr: 0x128CC, symBinAddr: 0x1000163C8, symSize: 0x14 }
  - { offsetInCU: 0x4EEE2, offset: 0x4EEE2, size: 0x8, addend: 0x0, symName: __ZNSt3__117__compressed_pairImNS_19__map_value_compareIiNS_12__value_typeIiiEENS_4lessIiEELb1EEEE6secondB7v160006Ev, symObjAddr: 0x12910, symBinAddr: 0x10001640C, symSize: 0x24 }
  - { offsetInCU: 0x4EF08, offset: 0x4EF08, size: 0x8, addend: 0x0, symName: __ZNSt3__122__compressed_pair_elemINS_19__map_value_compareIiNS_12__value_typeIiiEENS_4lessIiEELb1EEELi1ELb1EE5__getB7v160006Ev, symObjAddr: 0x12934, symBinAddr: 0x100016430, symSize: 0x14 }
  - { offsetInCU: 0x4EF2E, offset: 0x4EF2E, size: 0x8, addend: 0x0, symName: __ZNKSt3__115__tree_iteratorINS_12__value_typeIiiEEPNS_11__tree_nodeIS2_PvEElE8__get_npB7v160006Ev, symObjAddr: 0x12948, symBinAddr: 0x100016444, symSize: 0x18 }
  - { offsetInCU: 0x4EF54, offset: 0x4EF54, size: 0x8, addend: 0x0, symName: __ZNSt3__114__map_iteratorINS_15__tree_iteratorINS_12__value_typeIiiEEPNS_11__tree_nodeIS3_PvEElEEEC2B7v160006ES8_, symObjAddr: 0x12960, symBinAddr: 0x10001645C, symSize: 0x20 }
  - { offsetInCU: 0x4EFA5, offset: 0x4EFA5, size: 0x8, addend: 0x0, symName: __ZNSt3__16__treeINS_12__value_typeIiiEENS_19__map_value_compareIiS2_NS_4lessIiEELb1EEENS_9allocatorIS2_EEE25__emplace_unique_key_argsIiJRKNS_21piecewise_construct_tENS_5tupleIJRKiEEENSE_IJEEEEEENS_4pairINS_15__tree_iteratorIS2_PNS_11__tree_nodeIS2_PvEElEEbEERKT_DpOT0_, symObjAddr: 0x12980, symBinAddr: 0x10001647C, symSize: 0x100 }
  - { offsetInCU: 0x4F07B, offset: 0x4F07B, size: 0x8, addend: 0x0, symName: __ZNKSt3__115__tree_iteratorINS_12__value_typeIiiEEPNS_11__tree_nodeIS2_PvEElEptB7v160006Ev, symObjAddr: 0x12AB0, symBinAddr: 0x1000165AC, symSize: 0x2C }
  - { offsetInCU: 0x4F0A1, offset: 0x4F0A1, size: 0x8, addend: 0x0, symName: __ZNSt3__112__value_typeIiiE11__get_valueB7v160006Ev, symObjAddr: 0x12ADC, symBinAddr: 0x1000165D8, symSize: 0x14 }
  - { offsetInCU: 0x4F0C7, offset: 0x4F0C7, size: 0x8, addend: 0x0, symName: __ZNSt3__16__treeINS_12__value_typeIiiEENS_19__map_value_compareIiS2_NS_4lessIiEELb1EEENS_9allocatorIS2_EEE12__find_equalIiEERPNS_16__tree_node_baseIPvEERPNS_15__tree_end_nodeISE_EERKT_, symObjAddr: 0x12AF0, symBinAddr: 0x1000165EC, symSize: 0x184 }
  - { offsetInCU: 0x4F134, offset: 0x4F134, size: 0x8, addend: 0x0, symName: __ZNSt3__16__treeINS_12__value_typeIiiEENS_19__map_value_compareIiS2_NS_4lessIiEELb1EEENS_9allocatorIS2_EEE16__construct_nodeIJRKNS_21piecewise_construct_tENS_5tupleIJRKiEEENSE_IJEEEEEENS_10unique_ptrINS_11__tree_nodeIS2_PvEENS_22__tree_node_destructorINS7_ISM_EEEEEEDpOT_, symObjAddr: 0x12C74, symBinAddr: 0x100016770, symSize: 0x120 }
  - { offsetInCU: 0x4F1BD, offset: 0x4F1BD, size: 0x8, addend: 0x0, symName: __ZNSt3__16__treeINS_12__value_typeIiiEENS_19__map_value_compareIiS2_NS_4lessIiEELb1EEENS_9allocatorIS2_EEE16__insert_node_atEPNS_15__tree_end_nodeIPNS_16__tree_node_baseIPvEEEERSE_SE_, symObjAddr: 0x12D94, symBinAddr: 0x100016890, symSize: 0xCC }
  - { offsetInCU: 0x4F212, offset: 0x4F212, size: 0x8, addend: 0x0, symName: __ZNKSt3__110unique_ptrINS_11__tree_nodeINS_12__value_typeIiiEEPvEENS_22__tree_node_destructorINS_9allocatorIS5_EEEEE3getB7v160006Ev, symObjAddr: 0x12E60, symBinAddr: 0x10001695C, symSize: 0x28 }
  - { offsetInCU: 0x4F238, offset: 0x4F238, size: 0x8, addend: 0x0, symName: __ZNSt3__110unique_ptrINS_11__tree_nodeINS_12__value_typeIiiEEPvEENS_22__tree_node_destructorINS_9allocatorIS5_EEEEE7releaseB7v160006Ev, symObjAddr: 0x12E88, symBinAddr: 0x100016984, symSize: 0x44 }
  - { offsetInCU: 0x4F26D, offset: 0x4F26D, size: 0x8, addend: 0x0, symName: __ZNSt3__110unique_ptrINS_11__tree_nodeINS_12__value_typeIiiEEPvEENS_22__tree_node_destructorINS_9allocatorIS5_EEEEED1B7v160006Ev, symObjAddr: 0x12ECC, symBinAddr: 0x1000169C8, symSize: 0x2C }
  - { offsetInCU: 0x4F297, offset: 0x4F297, size: 0x8, addend: 0x0, symName: __ZNSt3__115__tree_iteratorINS_12__value_typeIiiEEPNS_11__tree_nodeIS2_PvEElEC1B7v160006ES6_, symObjAddr: 0x12EF8, symBinAddr: 0x1000169F4, symSize: 0x34 }
  - { offsetInCU: 0x4F2D6, offset: 0x4F2D6, size: 0x8, addend: 0x0, symName: __ZNSt3__14pairINS_15__tree_iteratorINS_12__value_typeIiiEEPNS_11__tree_nodeIS3_PvEElEEbEC1B7v160006IS8_RbLS5_0EEEOT_OT0_, symObjAddr: 0x12F2C, symBinAddr: 0x100016A28, symSize: 0x3C }
  - { offsetInCU: 0x4F334, offset: 0x4F334, size: 0x8, addend: 0x0, symName: __ZNKSt3__16__treeINS_12__value_typeIiiEENS_19__map_value_compareIiS2_NS_4lessIiEELb1EEENS_9allocatorIS2_EEE10__root_ptrEv, symObjAddr: 0x12F68, symBinAddr: 0x100016A64, symSize: 0x24 }
  - { offsetInCU: 0x4F35A, offset: 0x4F35A, size: 0x8, addend: 0x0, symName: __ZNSt3__16__treeINS_12__value_typeIiiEENS_19__map_value_compareIiS2_NS_4lessIiEELb1EEENS_9allocatorIS2_EEE12__node_allocB7v160006Ev, symObjAddr: 0x12F8C, symBinAddr: 0x100016A88, symSize: 0x28 }
  - { offsetInCU: 0x4F380, offset: 0x4F380, size: 0x8, addend: 0x0, symName: __ZNSt3__116allocator_traitsINS_9allocatorINS_11__tree_nodeINS_12__value_typeIiiEEPvEEEEE8allocateB7v160006ERS7_m, symObjAddr: 0x12FB4, symBinAddr: 0x100016AB0, symSize: 0x2C }
  - { offsetInCU: 0x4F3B3, offset: 0x4F3B3, size: 0x8, addend: 0x0, symName: __ZNSt3__122__tree_node_destructorINS_9allocatorINS_11__tree_nodeINS_12__value_typeIiiEEPvEEEEEC1B7v160006ERS7_b, symObjAddr: 0x12FE0, symBinAddr: 0x100016ADC, symSize: 0x48 }
  - { offsetInCU: 0x4F401, offset: 0x4F401, size: 0x8, addend: 0x0, symName: __ZNSt3__110unique_ptrINS_11__tree_nodeINS_12__value_typeIiiEEPvEENS_22__tree_node_destructorINS_9allocatorIS5_EEEEEC1B7v160006ILb1EvEEPS5_NS_16__dependent_typeINS_27__unique_ptr_deleter_sfinaeIS9_EEXT_EE20__good_rval_ref_typeE, symObjAddr: 0x13028, symBinAddr: 0x100016B24, symSize: 0x3C }
  - { offsetInCU: 0x4F452, offset: 0x4F452, size: 0x8, addend: 0x0, symName: __ZNSt3__116allocator_traitsINS_9allocatorINS_11__tree_nodeINS_12__value_typeIiiEEPvEEEEE9constructB7v160006INS_4pairIKiiEEJRKNS_21piecewise_construct_tENS_5tupleIJRSB_EEENSG_IJEEEEvEEvRS7_PT_DpOT0_, symObjAddr: 0x13064, symBinAddr: 0x100016B60, symSize: 0x44 }
  - { offsetInCU: 0x4F4D1, offset: 0x4F4D1, size: 0x8, addend: 0x0, symName: __ZNSt3__122__tree_key_value_typesINS_12__value_typeIiiEEE9__get_ptrB7v160006ERS2_, symObjAddr: 0x130A8, symBinAddr: 0x100016BA4, symSize: 0x24 }
  - { offsetInCU: 0x4F4F5, offset: 0x4F4F5, size: 0x8, addend: 0x0, symName: __ZNKSt3__110unique_ptrINS_11__tree_nodeINS_12__value_typeIiiEEPvEENS_22__tree_node_destructorINS_9allocatorIS5_EEEEEptB7v160006Ev, symObjAddr: 0x130CC, symBinAddr: 0x100016BC8, symSize: 0x28 }
  - { offsetInCU: 0x4F51B, offset: 0x4F51B, size: 0x8, addend: 0x0, symName: __ZNSt3__110unique_ptrINS_11__tree_nodeINS_12__value_typeIiiEEPvEENS_22__tree_node_destructorINS_9allocatorIS5_EEEEE11get_deleterB7v160006Ev, symObjAddr: 0x130F4, symBinAddr: 0x100016BF0, symSize: 0x24 }
  - { offsetInCU: 0x4F541, offset: 0x4F541, size: 0x8, addend: 0x0, symName: __ZNSt3__117__compressed_pairINS_15__tree_end_nodeIPNS_16__tree_node_baseIPvEEEENS_9allocatorINS_11__tree_nodeINS_12__value_typeIiiEES3_EEEEE6secondB7v160006Ev, symObjAddr: 0x13118, symBinAddr: 0x100016C14, symSize: 0x24 }
  - { offsetInCU: 0x4F567, offset: 0x4F567, size: 0x8, addend: 0x0, symName: __ZNSt3__122__compressed_pair_elemINS_9allocatorINS_11__tree_nodeINS_12__value_typeIiiEEPvEEEELi1ELb1EE5__getB7v160006Ev, symObjAddr: 0x1313C, symBinAddr: 0x100016C38, symSize: 0x14 }
  - { offsetInCU: 0x4F58D, offset: 0x4F58D, size: 0x8, addend: 0x0, symName: __ZNSt3__19allocatorINS_11__tree_nodeINS_12__value_typeIiiEEPvEEE8allocateB7v160006Em, symObjAddr: 0x13150, symBinAddr: 0x100016C4C, symSize: 0x5C }
  - { offsetInCU: 0x4F5CC, offset: 0x4F5CC, size: 0x8, addend: 0x0, symName: __ZNSt3__116allocator_traitsINS_9allocatorINS_11__tree_nodeINS_12__value_typeIiiEEPvEEEEE8max_sizeB7v160006IS7_vEEmRKS7_, symObjAddr: 0x131AC, symBinAddr: 0x100016CA8, symSize: 0x24 }
  - { offsetInCU: 0x4F5FA, offset: 0x4F5FA, size: 0x8, addend: 0x0, symName: __ZNKSt3__19allocatorINS_11__tree_nodeINS_12__value_typeIiiEEPvEEE8max_sizeB7v160006Ev, symObjAddr: 0x1322C, symBinAddr: 0x100016D28, symSize: 0x18 }
  - { offsetInCU: 0x4F620, offset: 0x4F620, size: 0x8, addend: 0x0, symName: __ZNSt3__122__tree_node_destructorINS_9allocatorINS_11__tree_nodeINS_12__value_typeIiiEEPvEEEEEC2B7v160006ERS7_b, symObjAddr: 0x13268, symBinAddr: 0x100016D64, symSize: 0x38 }
  - { offsetInCU: 0x4F668, offset: 0x4F668, size: 0x8, addend: 0x0, symName: __ZNSt3__110unique_ptrINS_11__tree_nodeINS_12__value_typeIiiEEPvEENS_22__tree_node_destructorINS_9allocatorIS5_EEEEEC2B7v160006ILb1EvEEPS5_NS_16__dependent_typeINS_27__unique_ptr_deleter_sfinaeIS9_EEXT_EE20__good_rval_ref_typeE, symObjAddr: 0x132A0, symBinAddr: 0x100016D9C, symSize: 0x48 }
  - { offsetInCU: 0x4F6B9, offset: 0x4F6B9, size: 0x8, addend: 0x0, symName: __ZNSt3__117__compressed_pairIPNS_11__tree_nodeINS_12__value_typeIiiEEPvEENS_22__tree_node_destructorINS_9allocatorIS5_EEEEEC1B7v160006IRS6_SA_EEOT_OT0_, symObjAddr: 0x132E8, symBinAddr: 0x100016DE4, symSize: 0x3C }
  - { offsetInCU: 0x4F711, offset: 0x4F711, size: 0x8, addend: 0x0, symName: __ZNSt3__117__compressed_pairIPNS_11__tree_nodeINS_12__value_typeIiiEEPvEENS_22__tree_node_destructorINS_9allocatorIS5_EEEEEC2B7v160006IRS6_SA_EEOT_OT0_, symObjAddr: 0x13324, symBinAddr: 0x100016E20, symSize: 0x48 }
  - { offsetInCU: 0x4F769, offset: 0x4F769, size: 0x8, addend: 0x0, symName: __ZNSt3__122__compressed_pair_elemIPNS_11__tree_nodeINS_12__value_typeIiiEEPvEELi0ELb0EEC2B7v160006IRS6_vEEOT_, symObjAddr: 0x1336C, symBinAddr: 0x100016E68, symSize: 0x24 }
  - { offsetInCU: 0x4F7AB, offset: 0x4F7AB, size: 0x8, addend: 0x0, symName: __ZNSt3__122__compressed_pair_elemINS_22__tree_node_destructorINS_9allocatorINS_11__tree_nodeINS_12__value_typeIiiEEPvEEEEEELi1ELb0EEC2B7v160006IS9_vEEOT_, symObjAddr: 0x13390, symBinAddr: 0x100016E8C, symSize: 0x24 }
  - { offsetInCU: 0x4F7ED, offset: 0x4F7ED, size: 0x8, addend: 0x0, symName: __ZNSt3__19allocatorINS_11__tree_nodeINS_12__value_typeIiiEEPvEEE9constructB7v160006INS_4pairIKiiEEJRKNS_21piecewise_construct_tENS_5tupleIJRS9_EEENSE_IJEEEEEEvPT_DpOT0_, symObjAddr: 0x133B4, symBinAddr: 0x100016EB0, symSize: 0x44 }
  - { offsetInCU: 0x4F869, offset: 0x4F869, size: 0x8, addend: 0x0, symName: __ZNSt3__14pairIKiiEC1B7v160006IJRS1_EJEEENS_21piecewise_construct_tENS_5tupleIJDpT_EEENS6_IJDpT0_EEE, symObjAddr: 0x133F8, symBinAddr: 0x100016EF4, symSize: 0x44 }
  - { offsetInCU: 0x4F8D0, offset: 0x4F8D0, size: 0x8, addend: 0x0, symName: __ZNSt3__14pairIKiiEC1B7v160006IJRS1_EJEJLm0EEJEEENS_21piecewise_construct_tERNS_5tupleIJDpT_EEERNS6_IJDpT0_EEENS_15__tuple_indicesIJXspT1_EEEENSF_IJXspT2_EEEE, symObjAddr: 0x1343C, symBinAddr: 0x100016F38, symSize: 0x3C }
  - { offsetInCU: 0x4F960, offset: 0x4F960, size: 0x8, addend: 0x0, symName: __ZNSt3__14pairIKiiEC2B7v160006IJRS1_EJEJLm0EEJEEENS_21piecewise_construct_tERNS_5tupleIJDpT_EEERNS6_IJDpT0_EEENS_15__tuple_indicesIJXspT1_EEEENSF_IJXspT2_EEEE, symObjAddr: 0x13478, symBinAddr: 0x100016F74, symSize: 0x48 }
  - { offsetInCU: 0x4F9F0, offset: 0x4F9F0, size: 0x8, addend: 0x0, symName: __ZNSt3__112__tuple_leafILm0ERKiLb0EE3getB7v160006Ev, symObjAddr: 0x134E4, symBinAddr: 0x100016FE0, symSize: 0x18 }
  - { offsetInCU: 0x4FA16, offset: 0x4FA16, size: 0x8, addend: 0x0, symName: __ZNKSt3__117__compressed_pairIPNS_11__tree_nodeINS_12__value_typeIiiEEPvEENS_22__tree_node_destructorINS_9allocatorIS5_EEEEE5firstB7v160006Ev, symObjAddr: 0x134FC, symBinAddr: 0x100016FF8, symSize: 0x24 }
  - { offsetInCU: 0x4FA3C, offset: 0x4FA3C, size: 0x8, addend: 0x0, symName: __ZNKSt3__122__compressed_pair_elemIPNS_11__tree_nodeINS_12__value_typeIiiEEPvEELi0ELb0EE5__getB7v160006Ev, symObjAddr: 0x13520, symBinAddr: 0x10001701C, symSize: 0x14 }
  - { offsetInCU: 0x4FA62, offset: 0x4FA62, size: 0x8, addend: 0x0, symName: __ZNSt3__117__compressed_pairIPNS_11__tree_nodeINS_12__value_typeIiiEEPvEENS_22__tree_node_destructorINS_9allocatorIS5_EEEEE6secondB7v160006Ev, symObjAddr: 0x13534, symBinAddr: 0x100017030, symSize: 0x28 }
  - { offsetInCU: 0x4FA88, offset: 0x4FA88, size: 0x8, addend: 0x0, symName: __ZNSt3__122__compressed_pair_elemINS_22__tree_node_destructorINS_9allocatorINS_11__tree_nodeINS_12__value_typeIiiEEPvEEEEEELi1ELb0EE5__getB7v160006Ev, symObjAddr: 0x1355C, symBinAddr: 0x100017058, symSize: 0x14 }
  - { offsetInCU: 0x4FAAE, offset: 0x4FAAE, size: 0x8, addend: 0x0, symName: __ZNSt3__16__treeINS_12__value_typeIiiEENS_19__map_value_compareIiS2_NS_4lessIiEELb1EEENS_9allocatorIS2_EEE12__begin_nodeB7v160006Ev, symObjAddr: 0x13570, symBinAddr: 0x10001706C, symSize: 0x14 }
  - { offsetInCU: 0x4FAD4, offset: 0x4FAD4, size: 0x8, addend: 0x0, symName: __ZNSt3__16__treeINS_12__value_typeIiiEENS_19__map_value_compareIiS2_NS_4lessIiEELb1EEENS_9allocatorIS2_EEE4sizeB7v160006Ev, symObjAddr: 0x138B0, symBinAddr: 0x1000173AC, symSize: 0x28 }
  - { offsetInCU: 0x4FAFA, offset: 0x4FAFA, size: 0x8, addend: 0x0, symName: __ZNKSt3__116__tree_node_baseIPvE15__parent_unsafeB7v160006Ev, symObjAddr: 0x138D8, symBinAddr: 0x1000173D4, symSize: 0x18 }
  - { offsetInCU: 0x4FB20, offset: 0x4FB20, size: 0x8, addend: 0x0, symName: __ZNSt3__116__tree_node_baseIPvE12__set_parentB7v160006EPS2_, symObjAddr: 0x13AC0, symBinAddr: 0x1000175BC, symSize: 0x20 }
  - { offsetInCU: 0x4FB55, offset: 0x4FB55, size: 0x8, addend: 0x0, symName: __ZNSt3__117__compressed_pairImNS_19__map_value_compareIiNS_12__value_typeIiiEENS_4lessIiEELb1EEEE5firstB7v160006Ev, symObjAddr: 0x13AE0, symBinAddr: 0x1000175DC, symSize: 0x24 }
  - { offsetInCU: 0x4FB7B, offset: 0x4FB7B, size: 0x8, addend: 0x0, symName: __ZNSt3__122__compressed_pair_elemImLi0ELb0EE5__getB7v160006Ev, symObjAddr: 0x13B04, symBinAddr: 0x100017600, symSize: 0x14 }
  - { offsetInCU: 0x4FBA1, offset: 0x4FBA1, size: 0x8, addend: 0x0, symName: __ZNSt3__117__compressed_pairIPNS_11__tree_nodeINS_12__value_typeIiiEEPvEENS_22__tree_node_destructorINS_9allocatorIS5_EEEEE5firstB7v160006Ev, symObjAddr: 0x13B18, symBinAddr: 0x100017614, symSize: 0x24 }
  - { offsetInCU: 0x4FBC7, offset: 0x4FBC7, size: 0x8, addend: 0x0, symName: __ZNSt3__122__compressed_pair_elemIPNS_11__tree_nodeINS_12__value_typeIiiEEPvEELi0ELb0EE5__getB7v160006Ev, symObjAddr: 0x13B3C, symBinAddr: 0x100017638, symSize: 0x14 }
  - { offsetInCU: 0x4FBED, offset: 0x4FBED, size: 0x8, addend: 0x0, symName: __ZNSt3__110unique_ptrINS_11__tree_nodeINS_12__value_typeIiiEEPvEENS_22__tree_node_destructorINS_9allocatorIS5_EEEEED2B7v160006Ev, symObjAddr: 0x13B50, symBinAddr: 0x10001764C, symSize: 0x30 }
  - { offsetInCU: 0x4FC17, offset: 0x4FC17, size: 0x8, addend: 0x0, symName: __ZNSt3__110unique_ptrINS_11__tree_nodeINS_12__value_typeIiiEEPvEENS_22__tree_node_destructorINS_9allocatorIS5_EEEEE5resetB7v160006EPS5_, symObjAddr: 0x13B80, symBinAddr: 0x10001767C, symSize: 0x78 }
  - { offsetInCU: 0x4FC5B, offset: 0x4FC5B, size: 0x8, addend: 0x0, symName: __ZNSt3__122__tree_node_destructorINS_9allocatorINS_11__tree_nodeINS_12__value_typeIiiEEPvEEEEEclB7v160006EPS6_, symObjAddr: 0x13BF8, symBinAddr: 0x1000176F4, symSize: 0x98 }
  - { offsetInCU: 0x4FC90, offset: 0x4FC90, size: 0x8, addend: 0x0, symName: __ZNSt3__116allocator_traitsINS_9allocatorINS_11__tree_nodeINS_12__value_typeIiiEEPvEEEEE7destroyB7v160006INS_4pairIKiiEEvvEEvRS7_PT_, symObjAddr: 0x13C90, symBinAddr: 0x10001778C, symSize: 0x14 }
  - { offsetInCU: 0x4FCCB, offset: 0x4FCCB, size: 0x8, addend: 0x0, symName: __ZNSt3__116allocator_traitsINS_9allocatorINS_11__tree_nodeINS_12__value_typeIiiEEPvEEEEE10deallocateB7v160006ERS7_PS6_m, symObjAddr: 0x13CA4, symBinAddr: 0x1000177A0, symSize: 0x34 }
  - { offsetInCU: 0x4FD0D, offset: 0x4FD0D, size: 0x8, addend: 0x0, symName: __ZNSt3__19allocatorINS_11__tree_nodeINS_12__value_typeIiiEEPvEEE10deallocateB7v160006EPS5_m, symObjAddr: 0x13CD8, symBinAddr: 0x1000177D4, symSize: 0x44 }
  - { offsetInCU: 0x4FD4F, offset: 0x4FD4F, size: 0x8, addend: 0x0, symName: __ZNSt3__115__tree_iteratorINS_12__value_typeIiiEEPNS_11__tree_nodeIS2_PvEElEC2B7v160006ES6_, symObjAddr: 0x13D98, symBinAddr: 0x100017894, symSize: 0x20 }
  - { offsetInCU: 0x4FD88, offset: 0x4FD88, size: 0x8, addend: 0x0, symName: __ZNSt3__14pairINS_15__tree_iteratorINS_12__value_typeIiiEEPNS_11__tree_nodeIS3_PvEElEEbEC2B7v160006IS8_RbLS5_0EEEOT_OT0_, symObjAddr: 0x13DB8, symBinAddr: 0x1000178B4, symSize: 0x38 }
  - { offsetInCU: 0x4FDE6, offset: 0x4FDE6, size: 0x8, addend: 0x0, symName: __ZNSt3__15tupleIJRKiEEC1B7v160006INS_4_AndELi0EEES2_, symObjAddr: 0x13DF0, symBinAddr: 0x1000178EC, symSize: 0x34 }
  - { offsetInCU: 0x4FE2E, offset: 0x4FE2E, size: 0x8, addend: 0x0, symName: __ZNSt3__15tupleIJRKiEEC2B7v160006INS_4_AndELi0EEES2_, symObjAddr: 0x13E24, symBinAddr: 0x100017920, symSize: 0x34 }
  - { offsetInCU: 0x4FE76, offset: 0x4FE76, size: 0x8, addend: 0x0, symName: __ZNSt3__112__tuple_implINS_15__tuple_indicesIJLm0EEEEJRKiEEC1B7v160006IJLm0EEJS4_EJEJEJS4_EEENS1_IJXspT_EEEENS_13__tuple_typesIJDpT0_EEENS1_IJXspT1_EEEENS8_IJDpT2_EEEDpOT3_, symObjAddr: 0x13E58, symBinAddr: 0x100017954, symSize: 0x34 }
  - { offsetInCU: 0x4FF0B, offset: 0x4FF0B, size: 0x8, addend: 0x0, symName: __ZNSt3__112__tuple_implINS_15__tuple_indicesIJLm0EEEEJRKiEEC2B7v160006IJLm0EEJS4_EJEJEJS4_EEENS1_IJXspT_EEEENS_13__tuple_typesIJDpT0_EEENS1_IJXspT1_EEEENS8_IJDpT2_EEEDpOT3_, symObjAddr: 0x13E8C, symBinAddr: 0x100017988, symSize: 0x34 }
  - { offsetInCU: 0x4FFA0, offset: 0x4FFA0, size: 0x8, addend: 0x0, symName: __ZNSt3__112__tuple_leafILm0ERKiLb0EEC2B7v160006IS2_vEEOT_, symObjAddr: 0x13EC0, symBinAddr: 0x1000179BC, symSize: 0x20 }
  - { offsetInCU: 0x4FFE3, offset: 0x4FFE3, size: 0x8, addend: 0x0, symName: __ZNSt3__114pointer_traitsIPNS_12__value_typeIiiEEE10pointer_toB7v160006ERS2_, symObjAddr: 0x13EE0, symBinAddr: 0x1000179DC, symSize: 0x14 }
  - { offsetInCU: 0x50006, offset: 0x50006, size: 0x8, addend: 0x0, symName: __ZNSt3__16__treeINS_12__value_typeIiiEENS_19__map_value_compareIiS2_NS_4lessIiEELb1EEENS_9allocatorIS2_EEE15__insert_uniqueB7v160006EONS_4pairIKiiEE, symObjAddr: 0x13EF4, symBinAddr: 0x1000179F0, symSize: 0x50 }
  - { offsetInCU: 0x5003B, offset: 0x5003B, size: 0x8, addend: 0x0, symName: __ZNSt3__14pairINS_14__map_iteratorINS_15__tree_iteratorINS_12__value_typeIiiEEPNS_11__tree_nodeIS4_PvEElEEEEbEC1B7v160006IS9_bLS6_0EEEONS0_IT_T0_EE, symObjAddr: 0x13F44, symBinAddr: 0x100017A40, symSize: 0x34 }
  - { offsetInCU: 0x5008C, offset: 0x5008C, size: 0x8, addend: 0x0, symName: __ZNSt3__16__treeINS_12__value_typeIiiEENS_19__map_value_compareIiS2_NS_4lessIiEELb1EEENS_9allocatorIS2_EEE25__emplace_unique_key_argsIiJNS_4pairIKiiEEEEENSB_INS_15__tree_iteratorIS2_PNS_11__tree_nodeIS2_PvEElEEbEERKT_DpOT0_, symObjAddr: 0x13F78, symBinAddr: 0x100017A74, symSize: 0xF0 }
  - { offsetInCU: 0x50138, offset: 0x50138, size: 0x8, addend: 0x0, symName: __ZNSt3__122__tree_key_value_typesINS_12__value_typeIiiEEE9__get_keyB7v160006INS_4pairIKiiEEEENS_9enable_ifIXsr17__is_same_uncvrefIT_S7_EE5valueERS6_E4typeERS9_, symObjAddr: 0x14068, symBinAddr: 0x100017B64, symSize: 0x14 }
  - { offsetInCU: 0x50165, offset: 0x50165, size: 0x8, addend: 0x0, symName: __ZNSt3__16__treeINS_12__value_typeIiiEENS_19__map_value_compareIiS2_NS_4lessIiEELb1EEENS_9allocatorIS2_EEE16__construct_nodeIJNS_4pairIKiiEEEEENS_10unique_ptrINS_11__tree_nodeIS2_PvEENS_22__tree_node_destructorINS7_ISH_EEEEEEDpOT_, symObjAddr: 0x1407C, symBinAddr: 0x100017B78, symSize: 0x110 }
  - { offsetInCU: 0x501C6, offset: 0x501C6, size: 0x8, addend: 0x0, symName: __ZNSt3__116allocator_traitsINS_9allocatorINS_11__tree_nodeINS_12__value_typeIiiEEPvEEEEE9constructB7v160006INS_4pairIKiiEEJSC_EvEEvRS7_PT_DpOT0_, symObjAddr: 0x1418C, symBinAddr: 0x100017C88, symSize: 0x34 }
  - { offsetInCU: 0x5021D, offset: 0x5021D, size: 0x8, addend: 0x0, symName: __ZNSt3__19allocatorINS_11__tree_nodeINS_12__value_typeIiiEEPvEEE9constructB7v160006INS_4pairIKiiEEJSA_EEEvPT_DpOT0_, symObjAddr: 0x141C0, symBinAddr: 0x100017CBC, symSize: 0x28 }
  - { offsetInCU: 0x50273, offset: 0x50273, size: 0x8, addend: 0x0, symName: __ZNSt3__14pairINS_14__map_iteratorINS_15__tree_iteratorINS_12__value_typeIiiEEPNS_11__tree_nodeIS4_PvEElEEEEbEC2B7v160006IS9_bLS6_0EEEONS0_IT_T0_EE, symObjAddr: 0x141E8, symBinAddr: 0x100017CE4, symSize: 0x50 }
  - { offsetInCU: 0x502C4, offset: 0x502C4, size: 0x8, addend: 0x0, symName: __ZNSt3__14pairIKiiEC2B7v160006IRiS4_LPv0EEEOT_OT0_, symObjAddr: 0x14238, symBinAddr: 0x100017D34, symSize: 0x34 }
  - { offsetInCU: 0x50322, offset: 0x50322, size: 0x8, addend: 0x0, symName: __ZN4Game9InventoryC2EOS0_, symObjAddr: 0x1426C, symBinAddr: 0x100017D68, symSize: 0x34 }
  - { offsetInCU: 0x5035D, offset: 0x5035D, size: 0x8, addend: 0x0, symName: __ZN4Game6PlayerC2EOS0_, symObjAddr: 0x142A0, symBinAddr: 0x100017D9C, symSize: 0x60 }
  - { offsetInCU: 0x50392, offset: 0x50392, size: 0x8, addend: 0x0, symName: __ZNSt3__112basic_stringIcNS_11char_traitsIcEENS_9allocatorIcEEEC1B7v160006EOS5_, symObjAddr: 0x14300, symBinAddr: 0x100017DFC, symSize: 0x34 }
  - { offsetInCU: 0x503CB, offset: 0x503CB, size: 0x8, addend: 0x0, symName: __ZNSt3__112basic_stringIcNS_11char_traitsIcEENS_9allocatorIcEEEC2B7v160006EOS5_, symObjAddr: 0x14334, symBinAddr: 0x100017E30, symSize: 0x88 }
  - { offsetInCU: 0x50404, offset: 0x50404, size: 0x8, addend: 0x0, symName: __ZNSt3__112basic_stringIcNS_11char_traitsIcEENS_9allocatorIcEEE14__default_initB7v160006Ev, symObjAddr: 0x143BC, symBinAddr: 0x100017EB8, symSize: 0x40 }
  - { offsetInCU: 0x5042A, offset: 0x5042A, size: 0x8, addend: 0x0, symName: __ZNKSt3__112basic_stringIcNS_11char_traitsIcEENS_9allocatorIcEEE9__is_longB7v160006Ev, symObjAddr: 0x1440C, symBinAddr: 0x100017F08, symSize: 0x38 }
  - { offsetInCU: 0x50450, offset: 0x50450, size: 0x8, addend: 0x0, symName: __ZNSt3__117__compressed_pairINS_12basic_stringIcNS_11char_traitsIcEENS_9allocatorIcEEE5__repES5_E5firstB7v160006Ev, symObjAddr: 0x14458, symBinAddr: 0x100017F54, symSize: 0x24 }
  - { offsetInCU: 0x50476, offset: 0x50476, size: 0x8, addend: 0x0, symName: __ZNSt3__122__compressed_pair_elemINS_12basic_stringIcNS_11char_traitsIcEENS_9allocatorIcEEE5__repELi0ELb0EE5__getB7v160006Ev, symObjAddr: 0x1447C, symBinAddr: 0x100017F78, symSize: 0x14 }
  - { offsetInCU: 0x5049C, offset: 0x5049C, size: 0x8, addend: 0x0, symName: __ZNKSt3__117__compressed_pairINS_12basic_stringIcNS_11char_traitsIcEENS_9allocatorIcEEE5__repES5_E5firstB7v160006Ev, symObjAddr: 0x14490, symBinAddr: 0x100017F8C, symSize: 0x24 }
  - { offsetInCU: 0x504C2, offset: 0x504C2, size: 0x8, addend: 0x0, symName: __ZNKSt3__122__compressed_pair_elemINS_12basic_stringIcNS_11char_traitsIcEENS_9allocatorIcEEE5__repELi0ELb0EE5__getB7v160006Ev, symObjAddr: 0x144B4, symBinAddr: 0x100017FB0, symSize: 0x14 }
  - { offsetInCU: 0x504E8, offset: 0x504E8, size: 0x8, addend: 0x0, symName: __ZNSt3__14pairINS_12basic_stringIcNS_11char_traitsIcEENS_9allocatorIcEEEENS0_INS_6vectorIfNS4_IfEEEENS7_IiNS4_IiEEEEEEED2Ev, symObjAddr: 0x144C8, symBinAddr: 0x100017FC4, symSize: 0x38 }
  - { offsetInCU: 0x50514, offset: 0x50514, size: 0x8, addend: 0x0, symName: __ZNSt3__14pairINS_12basic_stringIcNS_11char_traitsIcEENS_9allocatorIcEEEENS0_INS_6vectorIfNS4_IfEEEENS7_IiNS4_IiEEEEEEEC1B7v160006IRS6_SC_LPv0EEEOT_OT0_, symObjAddr: 0x14500, symBinAddr: 0x100017FFC, symSize: 0x3C }
  - { offsetInCU: 0x50572, offset: 0x50572, size: 0x8, addend: 0x0, symName: __ZNSt3__14pairINS_12basic_stringIcNS_11char_traitsIcEENS_9allocatorIcEEEENS0_INS_6vectorIfNS4_IfEEEENS7_IiNS4_IiEEEEEEEC2B7v160006IRS6_SC_LPv0EEEOT_OT0_, symObjAddr: 0x1453C, symBinAddr: 0x100018038, symSize: 0x48 }
  - { offsetInCU: 0x505D0, offset: 0x505D0, size: 0x8, addend: 0x0, symName: __ZNSt3__14pairINS_6vectorIfNS_9allocatorIfEEEENS1_IiNS2_IiEEEEEC1EOS7_, symObjAddr: 0x14584, symBinAddr: 0x100018080, symSize: 0x34 }
  - { offsetInCU: 0x50605, offset: 0x50605, size: 0x8, addend: 0x0, symName: __ZNSt3__14pairINS_6vectorIfNS_9allocatorIfEEEENS1_IiNS2_IiEEEEEC2EOS7_, symObjAddr: 0x145B8, symBinAddr: 0x1000180B4, symSize: 0x48 }
  - { offsetInCU: 0x5063A, offset: 0x5063A, size: 0x8, addend: 0x0, symName: __ZNSt3__16vectorIfNS_9allocatorIfEEEC1B7v160006EOS3_, symObjAddr: 0x14600, symBinAddr: 0x1000180FC, symSize: 0x34 }
  - { offsetInCU: 0x50675, offset: 0x50675, size: 0x8, addend: 0x0, symName: __ZNSt3__16vectorIfNS_9allocatorIfEEEC2B7v160006EOS3_, symObjAddr: 0x14634, symBinAddr: 0x100018130, symSize: 0xE0 }
  - { offsetInCU: 0x506B0, offset: 0x506B0, size: 0x8, addend: 0x0, symName: __ZNSt3__16vectorIfNS_9allocatorIfEEE7__allocB7v160006Ev, symObjAddr: 0x14714, symBinAddr: 0x100018210, symSize: 0x28 }
  - { offsetInCU: 0x506DC, offset: 0x506DC, size: 0x8, addend: 0x0, symName: __ZNSt3__117__compressed_pairIPfNS_9allocatorIfEEEC1B7v160006IDnS3_EEOT_OT0_, symObjAddr: 0x1473C, symBinAddr: 0x100018238, symSize: 0x3C }
  - { offsetInCU: 0x50734, offset: 0x50734, size: 0x8, addend: 0x0, symName: __ZNSt3__16vectorIfNS_9allocatorIfEEE9__end_capB7v160006Ev, symObjAddr: 0x1479C, symBinAddr: 0x100018298, symSize: 0x28 }
  - { offsetInCU: 0x5075A, offset: 0x5075A, size: 0x8, addend: 0x0, symName: __ZNSt3__117__compressed_pairIPfNS_9allocatorIfEEE6secondB7v160006Ev, symObjAddr: 0x147C4, symBinAddr: 0x1000182C0, symSize: 0x24 }
  - { offsetInCU: 0x50780, offset: 0x50780, size: 0x8, addend: 0x0, symName: __ZNSt3__122__compressed_pair_elemINS_9allocatorIfEELi1ELb1EE5__getB7v160006Ev, symObjAddr: 0x147E8, symBinAddr: 0x1000182E4, symSize: 0x14 }
  - { offsetInCU: 0x507A6, offset: 0x507A6, size: 0x8, addend: 0x0, symName: __ZNSt3__117__compressed_pairIPfNS_9allocatorIfEEEC2B7v160006IDnS3_EEOT_OT0_, symObjAddr: 0x147FC, symBinAddr: 0x1000182F8, symSize: 0x44 }
  - { offsetInCU: 0x507FE, offset: 0x507FE, size: 0x8, addend: 0x0, symName: __ZNSt3__122__compressed_pair_elemIPfLi0ELb0EEC2B7v160006IDnvEEOT_, symObjAddr: 0x14840, symBinAddr: 0x10001833C, symSize: 0x1C }
  - { offsetInCU: 0x50840, offset: 0x50840, size: 0x8, addend: 0x0, symName: __ZNSt3__122__compressed_pair_elemINS_9allocatorIfEELi1ELb1EEC2B7v160006IS2_vEEOT_, symObjAddr: 0x1485C, symBinAddr: 0x100018358, symSize: 0x18 }
  - { offsetInCU: 0x50882, offset: 0x50882, size: 0x8, addend: 0x0, symName: __ZNSt3__117__compressed_pairIPfNS_9allocatorIfEEE5firstB7v160006Ev, symObjAddr: 0x14874, symBinAddr: 0x100018370, symSize: 0x24 }
  - { offsetInCU: 0x508A8, offset: 0x508A8, size: 0x8, addend: 0x0, symName: __ZNSt3__122__compressed_pair_elemIPfLi0ELb0EE5__getB7v160006Ev, symObjAddr: 0x14898, symBinAddr: 0x100018394, symSize: 0x14 }
  - { offsetInCU: 0x508CE, offset: 0x508CE, size: 0x8, addend: 0x0, symName: __ZNSt3__14pairINS_6vectorIfNS_9allocatorIfEEEENS1_IiNS2_IiEEEEEC1B7v160006IS4_S6_LPv0EEEOT_OT0_, symObjAddr: 0x148AC, symBinAddr: 0x1000183A8, symSize: 0x3C }
  - { offsetInCU: 0x5092C, offset: 0x5092C, size: 0x8, addend: 0x0, symName: __ZNSt3__14pairINS_6vectorIfNS_9allocatorIfEEEENS1_IiNS2_IiEEEEEC2B7v160006IS4_S6_LPv0EEEOT_OT0_, symObjAddr: 0x148E8, symBinAddr: 0x1000183E4, symSize: 0x48 }
  - { offsetInCU: 0x5098A, offset: 0x5098A, size: 0x8, addend: 0x0, symName: __ZNSt3__14pairINS_6vectorIfNS_9allocatorIfEEEENS1_IiNS2_IiEEEEED2Ev, symObjAddr: 0x14930, symBinAddr: 0x10001842C, symSize: 0x38 }
  - { offsetInCU: 0x509B6, offset: 0x509B6, size: 0x8, addend: 0x0, symName: __ZN4Game5EnemyC2EiNSt3__112basic_stringIcNS1_11char_traitsIcEENS1_9allocatorIcEEEENS1_6vectorIfNS5_IfEEEEii, symObjAddr: 0x14968, symBinAddr: 0x100018464, symSize: 0x418 }
  - { offsetInCU: 0x50A2E, offset: 0x50A2E, size: 0x8, addend: 0x0, symName: __ZNSt3__13mapIiNS_4pairINS_12basic_stringIcNS_11char_traitsIcEENS_9allocatorIcEEEENS1_INS_6vectorIfNS5_IfEEEENS8_IiNS5_IiEEEEEEEENS_4lessIiEENS5_INS1_IKiSE_EEEEE6insertB7v160006EOSI_, symObjAddr: 0x14D80, symBinAddr: 0x10001887C, symSize: 0x4C }
  - { offsetInCU: 0x50A63, offset: 0x50A63, size: 0x8, addend: 0x0, symName: __ZNSt3__14pairIKiNS0_INS_12basic_stringIcNS_11char_traitsIcEENS_9allocatorIcEEEENS0_INS_6vectorIfNS5_IfEEEENS8_IiNS5_IiEEEEEEEEEC1B7v160006IRiSE_LPv0EEEOT_OT0_, symObjAddr: 0x14DCC, symBinAddr: 0x1000188C8, symSize: 0x3C }
  - { offsetInCU: 0x50AC1, offset: 0x50AC1, size: 0x8, addend: 0x0, symName: __ZNSt3__14pairIKiNS0_INS_12basic_stringIcNS_11char_traitsIcEENS_9allocatorIcEEEENS0_INS_6vectorIfNS5_IfEEEENS8_IiNS5_IiEEEEEEEEED1Ev, symObjAddr: 0x14E08, symBinAddr: 0x100018904, symSize: 0x2C }
  - { offsetInCU: 0x50AED, offset: 0x50AED, size: 0x8, addend: 0x0, symName: __ZNSt3__16__treeINS_12__value_typeIiNS_4pairINS_12basic_stringIcNS_11char_traitsIcEENS_9allocatorIcEEEENS2_INS_6vectorIfNS6_IfEEEENS9_IiNS6_IiEEEEEEEEEENS_19__map_value_compareIiSG_NS_4lessIiEELb1EEENS6_ISG_EEE15__insert_uniqueB7v160006EONS2_IKiSF_EE, symObjAddr: 0x14E34, symBinAddr: 0x100018930, symSize: 0x50 }
  - { offsetInCU: 0x50B22, offset: 0x50B22, size: 0x8, addend: 0x0, symName: __ZNSt3__14pairINS_14__map_iteratorINS_15__tree_iteratorINS_12__value_typeIiNS0_INS_12basic_stringIcNS_11char_traitsIcEENS_9allocatorIcEEEENS0_INS_6vectorIfNS7_IfEEEENSA_IiNS7_IiEEEEEEEEEEPNS_11__tree_nodeISH_PvEElEEEEbEC1B7v160006ISM_bLSJ_0EEEONS0_IT_T0_EE, symObjAddr: 0x14E84, symBinAddr: 0x100018980, symSize: 0x34 }
  - { offsetInCU: 0x50B73, offset: 0x50B73, size: 0x8, addend: 0x0, symName: __ZNSt3__16__treeINS_12__value_typeIiNS_4pairINS_12basic_stringIcNS_11char_traitsIcEENS_9allocatorIcEEEENS2_INS_6vectorIfNS6_IfEEEENS9_IiNS6_IiEEEEEEEEEENS_19__map_value_compareIiSG_NS_4lessIiEELb1EEENS6_ISG_EEE25__emplace_unique_key_argsIiJNS2_IKiSF_EEEEENS2_INS_15__tree_iteratorISG_PNS_11__tree_nodeISG_PvEElEEbEERKT_DpOT0_, symObjAddr: 0x14EB8, symBinAddr: 0x1000189B4, symSize: 0xF0 }
  - { offsetInCU: 0x50C1F, offset: 0x50C1F, size: 0x8, addend: 0x0, symName: __ZNSt3__122__tree_key_value_typesINS_12__value_typeIiNS_4pairINS_12basic_stringIcNS_11char_traitsIcEENS_9allocatorIcEEEENS2_INS_6vectorIfNS6_IfEEEENS9_IiNS6_IiEEEEEEEEEEE9__get_keyB7v160006INS2_IKiSF_EEEENS_9enable_ifIXsr17__is_same_uncvrefIT_SK_EE5valueERSJ_E4typeERSM_, symObjAddr: 0x14FA8, symBinAddr: 0x100018AA4, symSize: 0x14 }
  - { offsetInCU: 0x50C4C, offset: 0x50C4C, size: 0x8, addend: 0x0, symName: __ZNSt3__16__treeINS_12__value_typeIiNS_4pairINS_12basic_stringIcNS_11char_traitsIcEENS_9allocatorIcEEEENS2_INS_6vectorIfNS6_IfEEEENS9_IiNS6_IiEEEEEEEEEENS_19__map_value_compareIiSG_NS_4lessIiEELb1EEENS6_ISG_EEE12__find_equalIiEERPNS_16__tree_node_baseIPvEERPNS_15__tree_end_nodeISR_EERKT_, symObjAddr: 0x14FBC, symBinAddr: 0x100018AB8, symSize: 0x184 }
  - { offsetInCU: 0x50CB9, offset: 0x50CB9, size: 0x8, addend: 0x0, symName: __ZNSt3__16__treeINS_12__value_typeIiNS_4pairINS_12basic_stringIcNS_11char_traitsIcEENS_9allocatorIcEEEENS2_INS_6vectorIfNS6_IfEEEENS9_IiNS6_IiEEEEEEEEEENS_19__map_value_compareIiSG_NS_4lessIiEELb1EEENS6_ISG_EEE16__construct_nodeIJNS2_IKiSF_EEEEENS_10unique_ptrINS_11__tree_nodeISG_PvEENS_22__tree_node_destructorINS6_IST_EEEEEEDpOT_, symObjAddr: 0x15140, symBinAddr: 0x100018C3C, symSize: 0x110 }
  - { offsetInCU: 0x50D1A, offset: 0x50D1A, size: 0x8, addend: 0x0, symName: __ZNSt3__16__treeINS_12__value_typeIiNS_4pairINS_12basic_stringIcNS_11char_traitsIcEENS_9allocatorIcEEEENS2_INS_6vectorIfNS6_IfEEEENS9_IiNS6_IiEEEEEEEEEENS_19__map_value_compareIiSG_NS_4lessIiEELb1EEENS6_ISG_EEE16__insert_node_atEPNS_15__tree_end_nodeIPNS_16__tree_node_baseIPvEEEERSR_SR_, symObjAddr: 0x15250, symBinAddr: 0x100018D4C, symSize: 0xCC }
  - { offsetInCU: 0x50D6F, offset: 0x50D6F, size: 0x8, addend: 0x0, symName: __ZNKSt3__110unique_ptrINS_11__tree_nodeINS_12__value_typeIiNS_4pairINS_12basic_stringIcNS_11char_traitsIcEENS_9allocatorIcEEEENS3_INS_6vectorIfNS7_IfEEEENSA_IiNS7_IiEEEEEEEEEEPvEENS_22__tree_node_destructorINS7_ISJ_EEEEE3getB7v160006Ev, symObjAddr: 0x1531C, symBinAddr: 0x100018E18, symSize: 0x28 }
  - { offsetInCU: 0x50D95, offset: 0x50D95, size: 0x8, addend: 0x0, symName: __ZNSt3__110unique_ptrINS_11__tree_nodeINS_12__value_typeIiNS_4pairINS_12basic_stringIcNS_11char_traitsIcEENS_9allocatorIcEEEENS3_INS_6vectorIfNS7_IfEEEENSA_IiNS7_IiEEEEEEEEEEPvEENS_22__tree_node_destructorINS7_ISJ_EEEEE7releaseB7v160006Ev, symObjAddr: 0x15344, symBinAddr: 0x100018E40, symSize: 0x44 }
  - { offsetInCU: 0x50DCA, offset: 0x50DCA, size: 0x8, addend: 0x0, symName: __ZNSt3__110unique_ptrINS_11__tree_nodeINS_12__value_typeIiNS_4pairINS_12basic_stringIcNS_11char_traitsIcEENS_9allocatorIcEEEENS3_INS_6vectorIfNS7_IfEEEENSA_IiNS7_IiEEEEEEEEEEPvEENS_22__tree_node_destructorINS7_ISJ_EEEEED1B7v160006Ev, symObjAddr: 0x15388, symBinAddr: 0x100018E84, symSize: 0x2C }
  - { offsetInCU: 0x50DF4, offset: 0x50DF4, size: 0x8, addend: 0x0, symName: __ZNSt3__115__tree_iteratorINS_12__value_typeIiNS_4pairINS_12basic_stringIcNS_11char_traitsIcEENS_9allocatorIcEEEENS2_INS_6vectorIfNS6_IfEEEENS9_IiNS6_IiEEEEEEEEEEPNS_11__tree_nodeISG_PvEElEC1B7v160006ESK_, symObjAddr: 0x153B4, symBinAddr: 0x100018EB0, symSize: 0x34 }
  - { offsetInCU: 0x50E33, offset: 0x50E33, size: 0x8, addend: 0x0, symName: __ZNSt3__14pairINS_15__tree_iteratorINS_12__value_typeIiNS0_INS_12basic_stringIcNS_11char_traitsIcEENS_9allocatorIcEEEENS0_INS_6vectorIfNS6_IfEEEENS9_IiNS6_IiEEEEEEEEEEPNS_11__tree_nodeISG_PvEElEEbEC1B7v160006ISL_RbLSI_0EEEOT_OT0_, symObjAddr: 0x153E8, symBinAddr: 0x100018EE4, symSize: 0x3C }
  - { offsetInCU: 0x50E91, offset: 0x50E91, size: 0x8, addend: 0x0, symName: __ZNKSt3__16__treeINS_12__value_typeIiNS_4pairINS_12basic_stringIcNS_11char_traitsIcEENS_9allocatorIcEEEENS2_INS_6vectorIfNS6_IfEEEENS9_IiNS6_IiEEEEEEEEEENS_19__map_value_compareIiSG_NS_4lessIiEELb1EEENS6_ISG_EEE6__rootB7v160006Ev, symObjAddr: 0x15424, symBinAddr: 0x100018F20, symSize: 0x28 }
  - { offsetInCU: 0x50EB7, offset: 0x50EB7, size: 0x8, addend: 0x0, symName: __ZNKSt3__16__treeINS_12__value_typeIiNS_4pairINS_12basic_stringIcNS_11char_traitsIcEENS_9allocatorIcEEEENS2_INS_6vectorIfNS6_IfEEEENS9_IiNS6_IiEEEEEEEEEENS_19__map_value_compareIiSG_NS_4lessIiEELb1EEENS6_ISG_EEE10__root_ptrEv, symObjAddr: 0x1544C, symBinAddr: 0x100018F48, symSize: 0x24 }
  - { offsetInCU: 0x50EDD, offset: 0x50EDD, size: 0x8, addend: 0x0, symName: __ZNSt3__16__treeINS_12__value_typeIiNS_4pairINS_12basic_stringIcNS_11char_traitsIcEENS_9allocatorIcEEEENS2_INS_6vectorIfNS6_IfEEEENS9_IiNS6_IiEEEEEEEEEENS_19__map_value_compareIiSG_NS_4lessIiEELb1EEENS6_ISG_EEE10value_compB7v160006Ev, symObjAddr: 0x15470, symBinAddr: 0x100018F6C, symSize: 0x28 }
  - { offsetInCU: 0x50F03, offset: 0x50F03, size: 0x8, addend: 0x0, symName: __ZNKSt3__119__map_value_compareIiNS_12__value_typeIiNS_4pairINS_12basic_stringIcNS_11char_traitsIcEENS_9allocatorIcEEEENS2_INS_6vectorIfNS6_IfEEEENS9_IiNS6_IiEEEEEEEEEENS_4lessIiEELb1EEclB7v160006ERKiRKSG_, symObjAddr: 0x15498, symBinAddr: 0x100018F94, symSize: 0x50 }
  - { offsetInCU: 0x50F47, offset: 0x50F47, size: 0x8, addend: 0x0, symName: __ZNKSt3__119__map_value_compareIiNS_12__value_typeIiNS_4pairINS_12basic_stringIcNS_11char_traitsIcEENS_9allocatorIcEEEENS2_INS_6vectorIfNS6_IfEEEENS9_IiNS6_IiEEEEEEEEEENS_4lessIiEELb1EEclB7v160006ERKSG_RKi, symObjAddr: 0x154E8, symBinAddr: 0x100018FE4, symSize: 0x48 }
  - { offsetInCU: 0x50F8B, offset: 0x50F8B, size: 0x8, addend: 0x0, symName: __ZNSt3__16__treeINS_12__value_typeIiNS_4pairINS_12basic_stringIcNS_11char_traitsIcEENS_9allocatorIcEEEENS2_INS_6vectorIfNS6_IfEEEENS9_IiNS6_IiEEEEEEEEEENS_19__map_value_compareIiSG_NS_4lessIiEELb1EEENS6_ISG_EEE10__end_nodeB7v160006Ev, symObjAddr: 0x15530, symBinAddr: 0x10001902C, symSize: 0x2C }
  - { offsetInCU: 0x50FB1, offset: 0x50FB1, size: 0x8, addend: 0x0, symName: __ZNKSt3__16__treeINS_12__value_typeIiNS_4pairINS_12basic_stringIcNS_11char_traitsIcEENS_9allocatorIcEEEENS2_INS_6vectorIfNS6_IfEEEENS9_IiNS6_IiEEEEEEEEEENS_19__map_value_compareIiSG_NS_4lessIiEELb1EEENS6_ISG_EEE10__end_nodeB7v160006Ev, symObjAddr: 0x1555C, symBinAddr: 0x100019058, symSize: 0x2C }
  - { offsetInCU: 0x50FD7, offset: 0x50FD7, size: 0x8, addend: 0x0, symName: __ZNKSt3__117__compressed_pairINS_15__tree_end_nodeIPNS_16__tree_node_baseIPvEEEENS_9allocatorINS_11__tree_nodeINS_12__value_typeIiNS_4pairINS_12basic_stringIcNS_11char_traitsIcEENS7_IcEEEENSA_INS_6vectorIfNS7_IfEEEENSG_IiNS7_IiEEEEEEEEEES3_EEEEE5firstB7v160006Ev, symObjAddr: 0x15588, symBinAddr: 0x100019084, symSize: 0x24 }
  - { offsetInCU: 0x50FFD, offset: 0x50FFD, size: 0x8, addend: 0x0, symName: __ZNSt3__117__compressed_pairImNS_19__map_value_compareIiNS_12__value_typeIiNS_4pairINS_12basic_stringIcNS_11char_traitsIcEENS_9allocatorIcEEEENS3_INS_6vectorIfNS7_IfEEEENSA_IiNS7_IiEEEEEEEEEENS_4lessIiEELb1EEEE6secondB7v160006Ev, symObjAddr: 0x155AC, symBinAddr: 0x1000190A8, symSize: 0x24 }
  - { offsetInCU: 0x51023, offset: 0x51023, size: 0x8, addend: 0x0, symName: __ZNSt3__122__compressed_pair_elemINS_19__map_value_compareIiNS_12__value_typeIiNS_4pairINS_12basic_stringIcNS_11char_traitsIcEENS_9allocatorIcEEEENS3_INS_6vectorIfNS7_IfEEEENSA_IiNS7_IiEEEEEEEEEENS_4lessIiEELb1EEELi1ELb1EE5__getB7v160006Ev, symObjAddr: 0x155D0, symBinAddr: 0x1000190CC, symSize: 0x14 }
  - { offsetInCU: 0x51049, offset: 0x51049, size: 0x8, addend: 0x0, symName: __ZNKSt3__112__value_typeIiNS_4pairINS_12basic_stringIcNS_11char_traitsIcEENS_9allocatorIcEEEENS1_INS_6vectorIfNS5_IfEEEENS8_IiNS5_IiEEEEEEEEE11__get_valueB7v160006Ev, symObjAddr: 0x155E4, symBinAddr: 0x1000190E0, symSize: 0x14 }
  - { offsetInCU: 0x5106F, offset: 0x5106F, size: 0x8, addend: 0x0, symName: __ZNSt3__117__compressed_pairINS_15__tree_end_nodeIPNS_16__tree_node_baseIPvEEEENS_9allocatorINS_11__tree_nodeINS_12__value_typeIiNS_4pairINS_12basic_stringIcNS_11char_traitsIcEENS7_IcEEEENSA_INS_6vectorIfNS7_IfEEEENSG_IiNS7_IiEEEEEEEEEES3_EEEEE5firstB7v160006Ev, symObjAddr: 0x155F8, symBinAddr: 0x1000190F4, symSize: 0x24 }
  - { offsetInCU: 0x51095, offset: 0x51095, size: 0x8, addend: 0x0, symName: __ZNSt3__16__treeINS_12__value_typeIiNS_4pairINS_12basic_stringIcNS_11char_traitsIcEENS_9allocatorIcEEEENS2_INS_6vectorIfNS6_IfEEEENS9_IiNS6_IiEEEEEEEEEENS_19__map_value_compareIiSG_NS_4lessIiEELb1EEENS6_ISG_EEE12__node_allocB7v160006Ev, symObjAddr: 0x1561C, symBinAddr: 0x100019118, symSize: 0x28 }
  - { offsetInCU: 0x510BB, offset: 0x510BB, size: 0x8, addend: 0x0, symName: __ZNSt3__116allocator_traitsINS_9allocatorINS_11__tree_nodeINS_12__value_typeIiNS_4pairINS_12basic_stringIcNS_11char_traitsIcEENS1_IcEEEENS4_INS_6vectorIfNS1_IfEEEENSA_IiNS1_IiEEEEEEEEEEPvEEEEE8allocateB7v160006ERSK_m, symObjAddr: 0x15644, symBinAddr: 0x100019140, symSize: 0x2C }
  - { offsetInCU: 0x510EE, offset: 0x510EE, size: 0x8, addend: 0x0, symName: __ZNSt3__122__tree_node_destructorINS_9allocatorINS_11__tree_nodeINS_12__value_typeIiNS_4pairINS_12basic_stringIcNS_11char_traitsIcEENS1_IcEEEENS4_INS_6vectorIfNS1_IfEEEENSA_IiNS1_IiEEEEEEEEEEPvEEEEEC1B7v160006ERSK_b, symObjAddr: 0x15670, symBinAddr: 0x10001916C, symSize: 0x48 }
  - { offsetInCU: 0x5113C, offset: 0x5113C, size: 0x8, addend: 0x0, symName: __ZNSt3__110unique_ptrINS_11__tree_nodeINS_12__value_typeIiNS_4pairINS_12basic_stringIcNS_11char_traitsIcEENS_9allocatorIcEEEENS3_INS_6vectorIfNS7_IfEEEENSA_IiNS7_IiEEEEEEEEEEPvEENS_22__tree_node_destructorINS7_ISJ_EEEEEC1B7v160006ILb1EvEEPSJ_NS_16__dependent_typeINS_27__unique_ptr_deleter_sfinaeISM_EEXT_EE20__good_rval_ref_typeE, symObjAddr: 0x156B8, symBinAddr: 0x1000191B4, symSize: 0x3C }
  - { offsetInCU: 0x5118D, offset: 0x5118D, size: 0x8, addend: 0x0, symName: __ZNSt3__116allocator_traitsINS_9allocatorINS_11__tree_nodeINS_12__value_typeIiNS_4pairINS_12basic_stringIcNS_11char_traitsIcEENS1_IcEEEENS4_INS_6vectorIfNS1_IfEEEENSA_IiNS1_IiEEEEEEEEEEPvEEEEE9constructB7v160006INS4_IKiSG_EEJSO_EvEEvRSK_PT_DpOT0_, symObjAddr: 0x156F4, symBinAddr: 0x1000191F0, symSize: 0x34 }
  - { offsetInCU: 0x511E4, offset: 0x511E4, size: 0x8, addend: 0x0, symName: __ZNSt3__122__tree_key_value_typesINS_12__value_typeIiNS_4pairINS_12basic_stringIcNS_11char_traitsIcEENS_9allocatorIcEEEENS2_INS_6vectorIfNS6_IfEEEENS9_IiNS6_IiEEEEEEEEEEE9__get_ptrB7v160006ERSG_, symObjAddr: 0x15728, symBinAddr: 0x100019224, symSize: 0x24 }
  - { offsetInCU: 0x51208, offset: 0x51208, size: 0x8, addend: 0x0, symName: __ZNKSt3__110unique_ptrINS_11__tree_nodeINS_12__value_typeIiNS_4pairINS_12basic_stringIcNS_11char_traitsIcEENS_9allocatorIcEEEENS3_INS_6vectorIfNS7_IfEEEENSA_IiNS7_IiEEEEEEEEEEPvEENS_22__tree_node_destructorINS7_ISJ_EEEEEptB7v160006Ev, symObjAddr: 0x1574C, symBinAddr: 0x100019248, symSize: 0x28 }
  - { offsetInCU: 0x5122E, offset: 0x5122E, size: 0x8, addend: 0x0, symName: __ZNSt3__110unique_ptrINS_11__tree_nodeINS_12__value_typeIiNS_4pairINS_12basic_stringIcNS_11char_traitsIcEENS_9allocatorIcEEEENS3_INS_6vectorIfNS7_IfEEEENSA_IiNS7_IiEEEEEEEEEEPvEENS_22__tree_node_destructorINS7_ISJ_EEEEE11get_deleterB7v160006Ev, symObjAddr: 0x15774, symBinAddr: 0x100019270, symSize: 0x24 }
  - { offsetInCU: 0x51254, offset: 0x51254, size: 0x8, addend: 0x0, symName: __ZNSt3__117__compressed_pairINS_15__tree_end_nodeIPNS_16__tree_node_baseIPvEEEENS_9allocatorINS_11__tree_nodeINS_12__value_typeIiNS_4pairINS_12basic_stringIcNS_11char_traitsIcEENS7_IcEEEENSA_INS_6vectorIfNS7_IfEEEENSG_IiNS7_IiEEEEEEEEEES3_EEEEE6secondB7v160006Ev, symObjAddr: 0x15798, symBinAddr: 0x100019294, symSize: 0x24 }
  - { offsetInCU: 0x5127A, offset: 0x5127A, size: 0x8, addend: 0x0, symName: __ZNSt3__122__compressed_pair_elemINS_9allocatorINS_11__tree_nodeINS_12__value_typeIiNS_4pairINS_12basic_stringIcNS_11char_traitsIcEENS1_IcEEEENS4_INS_6vectorIfNS1_IfEEEENSA_IiNS1_IiEEEEEEEEEEPvEEEELi1ELb1EE5__getB7v160006Ev, symObjAddr: 0x157BC, symBinAddr: 0x1000192B8, symSize: 0x14 }
  - { offsetInCU: 0x512A0, offset: 0x512A0, size: 0x8, addend: 0x0, symName: __ZNSt3__19allocatorINS_11__tree_nodeINS_12__value_typeIiNS_4pairINS_12basic_stringIcNS_11char_traitsIcEENS0_IcEEEENS3_INS_6vectorIfNS0_IfEEEENS9_IiNS0_IiEEEEEEEEEEPvEEE8allocateB7v160006Em, symObjAddr: 0x157D0, symBinAddr: 0x1000192CC, symSize: 0x5C }
  - { offsetInCU: 0x512DF, offset: 0x512DF, size: 0x8, addend: 0x0, symName: __ZNSt3__116allocator_traitsINS_9allocatorINS_11__tree_nodeINS_12__value_typeIiNS_4pairINS_12basic_stringIcNS_11char_traitsIcEENS1_IcEEEENS4_INS_6vectorIfNS1_IfEEEENSA_IiNS1_IiEEEEEEEEEEPvEEEEE8max_sizeB7v160006ISK_vEEmRKSK_, symObjAddr: 0x1582C, symBinAddr: 0x100019328, symSize: 0x24 }
  - { offsetInCU: 0x5130D, offset: 0x5130D, size: 0x8, addend: 0x0, symName: __ZNKSt3__19allocatorINS_11__tree_nodeINS_12__value_typeIiNS_4pairINS_12basic_stringIcNS_11char_traitsIcEENS0_IcEEEENS3_INS_6vectorIfNS0_IfEEEENS9_IiNS0_IiEEEEEEEEEEPvEEE8max_sizeB7v160006Ev, symObjAddr: 0x15850, symBinAddr: 0x10001934C, symSize: 0x20 }
  - { offsetInCU: 0x51333, offset: 0x51333, size: 0x8, addend: 0x0, symName: __ZNSt3__122__tree_node_destructorINS_9allocatorINS_11__tree_nodeINS_12__value_typeIiNS_4pairINS_12basic_stringIcNS_11char_traitsIcEENS1_IcEEEENS4_INS_6vectorIfNS1_IfEEEENSA_IiNS1_IiEEEEEEEEEEPvEEEEEC2B7v160006ERSK_b, symObjAddr: 0x15870, symBinAddr: 0x10001936C, symSize: 0x38 }
  - { offsetInCU: 0x5137B, offset: 0x5137B, size: 0x8, addend: 0x0, symName: __ZNSt3__110unique_ptrINS_11__tree_nodeINS_12__value_typeIiNS_4pairINS_12basic_stringIcNS_11char_traitsIcEENS_9allocatorIcEEEENS3_INS_6vectorIfNS7_IfEEEENSA_IiNS7_IiEEEEEEEEEEPvEENS_22__tree_node_destructorINS7_ISJ_EEEEEC2B7v160006ILb1EvEEPSJ_NS_16__dependent_typeINS_27__unique_ptr_deleter_sfinaeISM_EEXT_EE20__good_rval_ref_typeE, symObjAddr: 0x158A8, symBinAddr: 0x1000193A4, symSize: 0x48 }
  - { offsetInCU: 0x513CC, offset: 0x513CC, size: 0x8, addend: 0x0, symName: __ZNSt3__117__compressed_pairIPNS_11__tree_nodeINS_12__value_typeIiNS_4pairINS_12basic_stringIcNS_11char_traitsIcEENS_9allocatorIcEEEENS3_INS_6vectorIfNS7_IfEEEENSA_IiNS7_IiEEEEEEEEEEPvEENS_22__tree_node_destructorINS7_ISJ_EEEEEC1B7v160006IRSK_SN_EEOT_OT0_, symObjAddr: 0x158F0, symBinAddr: 0x1000193EC, symSize: 0x3C }
  - { offsetInCU: 0x51424, offset: 0x51424, size: 0x8, addend: 0x0, symName: __ZNSt3__117__compressed_pairIPNS_11__tree_nodeINS_12__value_typeIiNS_4pairINS_12basic_stringIcNS_11char_traitsIcEENS_9allocatorIcEEEENS3_INS_6vectorIfNS7_IfEEEENSA_IiNS7_IiEEEEEEEEEEPvEENS_22__tree_node_destructorINS7_ISJ_EEEEEC2B7v160006IRSK_SN_EEOT_OT0_, symObjAddr: 0x1592C, symBinAddr: 0x100019428, symSize: 0x48 }
  - { offsetInCU: 0x5147C, offset: 0x5147C, size: 0x8, addend: 0x0, symName: __ZNSt3__122__compressed_pair_elemIPNS_11__tree_nodeINS_12__value_typeIiNS_4pairINS_12basic_stringIcNS_11char_traitsIcEENS_9allocatorIcEEEENS3_INS_6vectorIfNS7_IfEEEENSA_IiNS7_IiEEEEEEEEEEPvEELi0ELb0EEC2B7v160006IRSK_vEEOT_, symObjAddr: 0x15974, symBinAddr: 0x100019470, symSize: 0x24 }
  - { offsetInCU: 0x514BE, offset: 0x514BE, size: 0x8, addend: 0x0, symName: __ZNSt3__122__compressed_pair_elemINS_22__tree_node_destructorINS_9allocatorINS_11__tree_nodeINS_12__value_typeIiNS_4pairINS_12basic_stringIcNS_11char_traitsIcEENS2_IcEEEENS5_INS_6vectorIfNS2_IfEEEENSB_IiNS2_IiEEEEEEEEEEPvEEEEEELi1ELb0EEC2B7v160006ISM_vEEOT_, symObjAddr: 0x15998, symBinAddr: 0x100019494, symSize: 0x24 }
  - { offsetInCU: 0x51500, offset: 0x51500, size: 0x8, addend: 0x0, symName: __ZNSt3__19allocatorINS_11__tree_nodeINS_12__value_typeIiNS_4pairINS_12basic_stringIcNS_11char_traitsIcEENS0_IcEEEENS3_INS_6vectorIfNS0_IfEEEENS9_IiNS0_IiEEEEEEEEEEPvEEE9constructB7v160006INS3_IKiSF_EEJSM_EEEvPT_DpOT0_, symObjAddr: 0x159BC, symBinAddr: 0x1000194B8, symSize: 0x30 }
  - { offsetInCU: 0x51556, offset: 0x51556, size: 0x8, addend: 0x0, symName: __ZNSt3__14pairIKiNS0_INS_12basic_stringIcNS_11char_traitsIcEENS_9allocatorIcEEEENS0_INS_6vectorIfNS5_IfEEEENS8_IiNS5_IiEEEEEEEEEC1EOSF_, symObjAddr: 0x159EC, symBinAddr: 0x1000194E8, symSize: 0x34 }
  - { offsetInCU: 0x5158B, offset: 0x5158B, size: 0x8, addend: 0x0, symName: __ZNSt3__14pairIKiNS0_INS_12basic_stringIcNS_11char_traitsIcEENS_9allocatorIcEEEENS0_INS_6vectorIfNS5_IfEEEENS8_IiNS5_IiEEEEEEEEEC2EOSF_, symObjAddr: 0x15A20, symBinAddr: 0x10001951C, symSize: 0x48 }
  - { offsetInCU: 0x515C0, offset: 0x515C0, size: 0x8, addend: 0x0, symName: __ZNSt3__14pairINS_12basic_stringIcNS_11char_traitsIcEENS_9allocatorIcEEEENS0_INS_6vectorIfNS4_IfEEEENS7_IiNS4_IiEEEEEEEC1EOSD_, symObjAddr: 0x15A68, symBinAddr: 0x100019564, symSize: 0x34 }
  - { offsetInCU: 0x515F5, offset: 0x515F5, size: 0x8, addend: 0x0, symName: __ZNSt3__14pairINS_12basic_stringIcNS_11char_traitsIcEENS_9allocatorIcEEEENS0_INS_6vectorIfNS4_IfEEEENS7_IiNS4_IiEEEEEEEC2EOSD_, symObjAddr: 0x15A9C, symBinAddr: 0x100019598, symSize: 0x48 }
  - { offsetInCU: 0x5162A, offset: 0x5162A, size: 0x8, addend: 0x0, symName: __ZNSt3__112__value_typeIiNS_4pairINS_12basic_stringIcNS_11char_traitsIcEENS_9allocatorIcEEEENS1_INS_6vectorIfNS5_IfEEEENS8_IiNS5_IiEEEEEEEEE11__get_valueB7v160006Ev, symObjAddr: 0x15AE4, symBinAddr: 0x1000195E0, symSize: 0x14 }
  - { offsetInCU: 0x51650, offset: 0x51650, size: 0x8, addend: 0x0, symName: __ZNKSt3__117__compressed_pairIPNS_11__tree_nodeINS_12__value_typeIiNS_4pairINS_12basic_stringIcNS_11char_traitsIcEENS_9allocatorIcEEEENS3_INS_6vectorIfNS7_IfEEEENSA_IiNS7_IiEEEEEEEEEEPvEENS_22__tree_node_destructorINS7_ISJ_EEEEE5firstB7v160006Ev, symObjAddr: 0x15AF8, symBinAddr: 0x1000195F4, symSize: 0x24 }
  - { offsetInCU: 0x51676, offset: 0x51676, size: 0x8, addend: 0x0, symName: __ZNKSt3__122__compressed_pair_elemIPNS_11__tree_nodeINS_12__value_typeIiNS_4pairINS_12basic_stringIcNS_11char_traitsIcEENS_9allocatorIcEEEENS3_INS_6vectorIfNS7_IfEEEENSA_IiNS7_IiEEEEEEEEEEPvEELi0ELb0EE5__getB7v160006Ev, symObjAddr: 0x15B1C, symBinAddr: 0x100019618, symSize: 0x14 }
  - { offsetInCU: 0x5169C, offset: 0x5169C, size: 0x8, addend: 0x0, symName: __ZNSt3__117__compressed_pairIPNS_11__tree_nodeINS_12__value_typeIiNS_4pairINS_12basic_stringIcNS_11char_traitsIcEENS_9allocatorIcEEEENS3_INS_6vectorIfNS7_IfEEEENSA_IiNS7_IiEEEEEEEEEEPvEENS_22__tree_node_destructorINS7_ISJ_EEEEE6secondB7v160006Ev, symObjAddr: 0x15B30, symBinAddr: 0x10001962C, symSize: 0x28 }
  - { offsetInCU: 0x516C2, offset: 0x516C2, size: 0x8, addend: 0x0, symName: __ZNSt3__122__compressed_pair_elemINS_22__tree_node_destructorINS_9allocatorINS_11__tree_nodeINS_12__value_typeIiNS_4pairINS_12basic_stringIcNS_11char_traitsIcEENS2_IcEEEENS5_INS_6vectorIfNS2_IfEEEENSB_IiNS2_IiEEEEEEEEEEPvEEEEEELi1ELb0EE5__getB7v160006Ev, symObjAddr: 0x15B58, symBinAddr: 0x100019654, symSize: 0x14 }
  - { offsetInCU: 0x516E8, offset: 0x516E8, size: 0x8, addend: 0x0, symName: __ZNSt3__16__treeINS_12__value_typeIiNS_4pairINS_12basic_stringIcNS_11char_traitsIcEENS_9allocatorIcEEEENS2_INS_6vectorIfNS6_IfEEEENS9_IiNS6_IiEEEEEEEEEENS_19__map_value_compareIiSG_NS_4lessIiEELb1EEENS6_ISG_EEE12__begin_nodeB7v160006Ev, symObjAddr: 0x15B6C, symBinAddr: 0x100019668, symSize: 0x14 }
  - { offsetInCU: 0x5170E, offset: 0x5170E, size: 0x8, addend: 0x0, symName: __ZNSt3__16__treeINS_12__value_typeIiNS_4pairINS_12basic_stringIcNS_11char_traitsIcEENS_9allocatorIcEEEENS2_INS_6vectorIfNS6_IfEEEENS9_IiNS6_IiEEEEEEEEEENS_19__map_value_compareIiSG_NS_4lessIiEELb1EEENS6_ISG_EEE4sizeB7v160006Ev, symObjAddr: 0x15B80, symBinAddr: 0x10001967C, symSize: 0x28 }
  - { offsetInCU: 0x51734, offset: 0x51734, size: 0x8, addend: 0x0, symName: __ZNSt3__117__compressed_pairImNS_19__map_value_compareIiNS_12__value_typeIiNS_4pairINS_12basic_stringIcNS_11char_traitsIcEENS_9allocatorIcEEEENS3_INS_6vectorIfNS7_IfEEEENSA_IiNS7_IiEEEEEEEEEENS_4lessIiEELb1EEEE5firstB7v160006Ev, symObjAddr: 0x15BA8, symBinAddr: 0x1000196A4, symSize: 0x24 }
  - { offsetInCU: 0x5175A, offset: 0x5175A, size: 0x8, addend: 0x0, symName: __ZNSt3__117__compressed_pairIPNS_11__tree_nodeINS_12__value_typeIiNS_4pairINS_12basic_stringIcNS_11char_traitsIcEENS_9allocatorIcEEEENS3_INS_6vectorIfNS7_IfEEEENSA_IiNS7_IiEEEEEEEEEEPvEENS_22__tree_node_destructorINS7_ISJ_EEEEE5firstB7v160006Ev, symObjAddr: 0x15BCC, symBinAddr: 0x1000196C8, symSize: 0x24 }
  - { offsetInCU: 0x51780, offset: 0x51780, size: 0x8, addend: 0x0, symName: __ZNSt3__122__compressed_pair_elemIPNS_11__tree_nodeINS_12__value_typeIiNS_4pairINS_12basic_stringIcNS_11char_traitsIcEENS_9allocatorIcEEEENS3_INS_6vectorIfNS7_IfEEEENSA_IiNS7_IiEEEEEEEEEEPvEELi0ELb0EE5__getB7v160006Ev, symObjAddr: 0x15BF0, symBinAddr: 0x1000196EC, symSize: 0x14 }
  - { offsetInCU: 0x517A6, offset: 0x517A6, size: 0x8, addend: 0x0, symName: __ZNSt3__110unique_ptrINS_11__tree_nodeINS_12__value_typeIiNS_4pairINS_12basic_stringIcNS_11char_traitsIcEENS_9allocatorIcEEEENS3_INS_6vectorIfNS7_IfEEEENSA_IiNS7_IiEEEEEEEEEEPvEENS_22__tree_node_destructorINS7_ISJ_EEEEED2B7v160006Ev, symObjAddr: 0x15C04, symBinAddr: 0x100019700, symSize: 0x30 }
  - { offsetInCU: 0x517D0, offset: 0x517D0, size: 0x8, addend: 0x0, symName: __ZNSt3__110unique_ptrINS_11__tree_nodeINS_12__value_typeIiNS_4pairINS_12basic_stringIcNS_11char_traitsIcEENS_9allocatorIcEEEENS3_INS_6vectorIfNS7_IfEEEENSA_IiNS7_IiEEEEEEEEEEPvEENS_22__tree_node_destructorINS7_ISJ_EEEEE5resetB7v160006EPSJ_, symObjAddr: 0x15C34, symBinAddr: 0x100019730, symSize: 0x78 }
  - { offsetInCU: 0x51814, offset: 0x51814, size: 0x8, addend: 0x0, symName: __ZNSt3__122__tree_node_destructorINS_9allocatorINS_11__tree_nodeINS_12__value_typeIiNS_4pairINS_12basic_stringIcNS_11char_traitsIcEENS1_IcEEEENS4_INS_6vectorIfNS1_IfEEEENSA_IiNS1_IiEEEEEEEEEEPvEEEEEclB7v160006EPSJ_, symObjAddr: 0x15CAC, symBinAddr: 0x1000197A8, symSize: 0x98 }
  - { offsetInCU: 0x51849, offset: 0x51849, size: 0x8, addend: 0x0, symName: __ZNSt3__116allocator_traitsINS_9allocatorINS_11__tree_nodeINS_12__value_typeIiNS_4pairINS_12basic_stringIcNS_11char_traitsIcEENS1_IcEEEENS4_INS_6vectorIfNS1_IfEEEENSA_IiNS1_IiEEEEEEEEEEPvEEEEE7destroyB7v160006INS4_IKiSG_EEvvEEvRSK_PT_, symObjAddr: 0x15D44, symBinAddr: 0x100019840, symSize: 0x28 }
  - { offsetInCU: 0x51884, offset: 0x51884, size: 0x8, addend: 0x0, symName: __ZNSt3__116allocator_traitsINS_9allocatorINS_11__tree_nodeINS_12__value_typeIiNS_4pairINS_12basic_stringIcNS_11char_traitsIcEENS1_IcEEEENS4_INS_6vectorIfNS1_IfEEEENSA_IiNS1_IiEEEEEEEEEEPvEEEEE10deallocateB7v160006ERSK_PSJ_m, symObjAddr: 0x15D6C, symBinAddr: 0x100019868, symSize: 0x34 }
  - { offsetInCU: 0x518C6, offset: 0x518C6, size: 0x8, addend: 0x0, symName: __ZNSt3__19allocatorINS_11__tree_nodeINS_12__value_typeIiNS_4pairINS_12basic_stringIcNS_11char_traitsIcEENS0_IcEEEENS3_INS_6vectorIfNS0_IfEEEENS9_IiNS0_IiEEEEEEEEEEPvEEE10deallocateB7v160006EPSI_m, symObjAddr: 0x15DA0, symBinAddr: 0x10001989C, symSize: 0x44 }
  - { offsetInCU: 0x51908, offset: 0x51908, size: 0x8, addend: 0x0, symName: __ZNSt3__115__tree_iteratorINS_12__value_typeIiNS_4pairINS_12basic_stringIcNS_11char_traitsIcEENS_9allocatorIcEEEENS2_INS_6vectorIfNS6_IfEEEENS9_IiNS6_IiEEEEEEEEEEPNS_11__tree_nodeISG_PvEElEC2B7v160006ESK_, symObjAddr: 0x15DE4, symBinAddr: 0x1000198E0, symSize: 0x20 }
  - { offsetInCU: 0x51941, offset: 0x51941, size: 0x8, addend: 0x0, symName: __ZNSt3__14pairINS_15__tree_iteratorINS_12__value_typeIiNS0_INS_12basic_stringIcNS_11char_traitsIcEENS_9allocatorIcEEEENS0_INS_6vectorIfNS6_IfEEEENS9_IiNS6_IiEEEEEEEEEEPNS_11__tree_nodeISG_PvEElEEbEC2B7v160006ISL_RbLSI_0EEEOT_OT0_, symObjAddr: 0x15E04, symBinAddr: 0x100019900, symSize: 0x38 }
  - { offsetInCU: 0x5199F, offset: 0x5199F, size: 0x8, addend: 0x0, symName: __ZNSt3__14pairINS_14__map_iteratorINS_15__tree_iteratorINS_12__value_typeIiNS0_INS_12basic_stringIcNS_11char_traitsIcEENS_9allocatorIcEEEENS0_INS_6vectorIfNS7_IfEEEENSA_IiNS7_IiEEEEEEEEEEPNS_11__tree_nodeISH_PvEElEEEEbEC2B7v160006ISM_bLSJ_0EEEONS0_IT_T0_EE, symObjAddr: 0x15E3C, symBinAddr: 0x100019938, symSize: 0x50 }
  - { offsetInCU: 0x519F0, offset: 0x519F0, size: 0x8, addend: 0x0, symName: __ZNSt3__114__map_iteratorINS_15__tree_iteratorINS_12__value_typeIiNS_4pairINS_12basic_stringIcNS_11char_traitsIcEENS_9allocatorIcEEEENS3_INS_6vectorIfNS7_IfEEEENSA_IiNS7_IiEEEEEEEEEEPNS_11__tree_nodeISH_PvEElEEEC1B7v160006ESM_, symObjAddr: 0x15E8C, symBinAddr: 0x100019988, symSize: 0x34 }
  - { offsetInCU: 0x51A29, offset: 0x51A29, size: 0x8, addend: 0x0, symName: __ZNSt3__114__map_iteratorINS_15__tree_iteratorINS_12__value_typeIiNS_4pairINS_12basic_stringIcNS_11char_traitsIcEENS_9allocatorIcEEEENS3_INS_6vectorIfNS7_IfEEEENSA_IiNS7_IiEEEEEEEEEEPNS_11__tree_nodeISH_PvEElEEEC2B7v160006ESM_, symObjAddr: 0x15EC0, symBinAddr: 0x1000199BC, symSize: 0x20 }
  - { offsetInCU: 0x51A62, offset: 0x51A62, size: 0x8, addend: 0x0, symName: __ZNSt3__14pairIKiNS0_INS_12basic_stringIcNS_11char_traitsIcEENS_9allocatorIcEEEENS0_INS_6vectorIfNS5_IfEEEENS8_IiNS5_IiEEEEEEEEEC2B7v160006IRiSE_LPv0EEEOT_OT0_, symObjAddr: 0x15EE0, symBinAddr: 0x1000199DC, symSize: 0x48 }
  - { offsetInCU: 0x51AC0, offset: 0x51AC0, size: 0x8, addend: 0x0, symName: __ZNSt3__14pairIKiNS0_INS_12basic_stringIcNS_11char_traitsIcEENS_9allocatorIcEEEENS0_INS_6vectorIfNS5_IfEEEENS8_IiNS5_IiEEEEEEEEED2Ev, symObjAddr: 0x15F28, symBinAddr: 0x100019A24, symSize: 0x30 }
  - { offsetInCU: 0x51AEC, offset: 0x51AEC, size: 0x8, addend: 0x0, symName: __ZN4Game5EnemyD2Ev, symObjAddr: 0x15F58, symBinAddr: 0x100019A54, symSize: 0x30 }
  - { offsetInCU: 0x51B18, offset: 0x51B18, size: 0x8, addend: 0x0, symName: __ZNSt3__14pairINS_12basic_stringIcNS_11char_traitsIcEENS_9allocatorIcEEEENS0_INS_6vectorIiNS4_IiEEEENS7_IfNS4_IfEEEEEEEC1B7v160006IRS6_SC_LPv0EEEOT_OT0_, symObjAddr: 0x15F88, symBinAddr: 0x100019A84, symSize: 0x3C }
  - { offsetInCU: 0x51B76, offset: 0x51B76, size: 0x8, addend: 0x0, symName: __ZNSt3__14pairINS_12basic_stringIcNS_11char_traitsIcEENS_9allocatorIcEEEENS0_INS_6vectorIiNS4_IiEEEENS7_IfNS4_IfEEEEEEEC2B7v160006IRS6_SC_LPv0EEEOT_OT0_, symObjAddr: 0x15FC4, symBinAddr: 0x100019AC0, symSize: 0x48 }
  - { offsetInCU: 0x51BD4, offset: 0x51BD4, size: 0x8, addend: 0x0, symName: __ZNSt3__14pairINS_6vectorIiNS_9allocatorIiEEEENS1_IfNS2_IfEEEEEC1EOS7_, symObjAddr: 0x1600C, symBinAddr: 0x100019B08, symSize: 0x34 }
  - { offsetInCU: 0x51C09, offset: 0x51C09, size: 0x8, addend: 0x0, symName: __ZNSt3__14pairINS_6vectorIiNS_9allocatorIiEEEENS1_IfNS2_IfEEEEEC2EOS7_, symObjAddr: 0x16040, symBinAddr: 0x100019B3C, symSize: 0x48 }
  - { offsetInCU: 0x51C3E, offset: 0x51C3E, size: 0x8, addend: 0x0, symName: __ZNSt3__14pairINS_6vectorIiNS_9allocatorIiEEEENS1_IfNS2_IfEEEEEC1B7v160006IS4_S6_LPv0EEEOT_OT0_, symObjAddr: 0x16088, symBinAddr: 0x100019B84, symSize: 0x3C }
  - { offsetInCU: 0x51C9C, offset: 0x51C9C, size: 0x8, addend: 0x0, symName: __ZNSt3__14pairINS_6vectorIiNS_9allocatorIiEEEENS1_IfNS2_IfEEEEEC2B7v160006IS4_S6_LPv0EEEOT_OT0_, symObjAddr: 0x160C4, symBinAddr: 0x100019BC0, symSize: 0x48 }
  - { offsetInCU: 0x51CFA, offset: 0x51CFA, size: 0x8, addend: 0x0, symName: __ZNSt3__14pairINS_12basic_stringIcNS_11char_traitsIcEENS_9allocatorIcEEEENS0_INS_6vectorIiNS4_IiEEEENS7_IfNS4_IfEEEEEEED2Ev, symObjAddr: 0x1610C, symBinAddr: 0x100019C08, symSize: 0x38 }
  - { offsetInCU: 0x51D26, offset: 0x51D26, size: 0x8, addend: 0x0, symName: __ZNSt3__14pairINS_6vectorIiNS_9allocatorIiEEEENS1_IfNS2_IfEEEEED2Ev, symObjAddr: 0x16144, symBinAddr: 0x100019C40, symSize: 0x38 }
  - { offsetInCU: 0x51D52, offset: 0x51D52, size: 0x8, addend: 0x0, symName: __ZN4Game5SkillC2EiiNSt3__112basic_stringIcNS1_11char_traitsIcEENS1_9allocatorIcEEEES7_iiiNS1_6vectorIfNS5_IfEEEE, symObjAddr: 0x1617C, symBinAddr: 0x100019C78, symSize: 0x420 }
  - { offsetInCU: 0x51E0D, offset: 0x51E0D, size: 0x8, addend: 0x0, symName: __ZNSt3__13mapIiNS_4pairINS_6vectorINS_12basic_stringIcNS_11char_traitsIcEENS_9allocatorIcEEEENS6_IS8_EEEENS1_INS2_IiNS6_IiEEEENS2_IfNS6_IfEEEEEEEENS_4lessIiEENS6_INS1_IKiSG_EEEEE6insertB7v160006EOSK_, symObjAddr: 0x1659C, symBinAddr: 0x10001A098, symSize: 0x4C }
  - { offsetInCU: 0x51E42, offset: 0x51E42, size: 0x8, addend: 0x0, symName: __ZNSt3__14pairIKiNS0_INS_6vectorINS_12basic_stringIcNS_11char_traitsIcEENS_9allocatorIcEEEENS6_IS8_EEEENS0_INS2_IiNS6_IiEEEENS2_IfNS6_IfEEEEEEEEEC1B7v160006IRiSG_LPv0EEEOT_OT0_, symObjAddr: 0x16628, symBinAddr: 0x10001A124, symSize: 0x3C }
  - { offsetInCU: 0x51EA0, offset: 0x51EA0, size: 0x8, addend: 0x0, symName: __ZNSt3__14pairIKiNS0_INS_6vectorINS_12basic_stringIcNS_11char_traitsIcEENS_9allocatorIcEEEENS6_IS8_EEEENS0_INS2_IiNS6_IiEEEENS2_IfNS6_IfEEEEEEEEED1Ev, symObjAddr: 0x16664, symBinAddr: 0x10001A160, symSize: 0x2C }
  - { offsetInCU: 0x51ECC, offset: 0x51ECC, size: 0x8, addend: 0x0, symName: __ZNSt3__14pairINS_6vectorINS_12basic_stringIcNS_11char_traitsIcEENS_9allocatorIcEEEENS5_IS7_EEEENS0_INS1_IiNS5_IiEEEENS1_IfNS5_IfEEEEEEED1Ev, symObjAddr: 0x16690, symBinAddr: 0x10001A18C, symSize: 0x2C }
  - { offsetInCU: 0x51EF8, offset: 0x51EF8, size: 0x8, addend: 0x0, symName: __ZNSt3__16__treeINS_12__value_typeIiNS_4pairINS_6vectorINS_12basic_stringIcNS_11char_traitsIcEENS_9allocatorIcEEEENS7_IS9_EEEENS2_INS3_IiNS7_IiEEEENS3_IfNS7_IfEEEEEEEEEENS_19__map_value_compareIiSI_NS_4lessIiEELb1EEENS7_ISI_EEE15__insert_uniqueB7v160006EONS2_IKiSH_EE, symObjAddr: 0x166BC, symBinAddr: 0x10001A1B8, symSize: 0x50 }
  - { offsetInCU: 0x51F2D, offset: 0x51F2D, size: 0x8, addend: 0x0, symName: __ZNSt3__14pairINS_14__map_iteratorINS_15__tree_iteratorINS_12__value_typeIiNS0_INS_6vectorINS_12basic_stringIcNS_11char_traitsIcEENS_9allocatorIcEEEENS8_ISA_EEEENS0_INS4_IiNS8_IiEEEENS4_IfNS8_IfEEEEEEEEEEPNS_11__tree_nodeISJ_PvEElEEEEbEC1B7v160006ISO_bLSL_0EEEONS0_IT_T0_EE, symObjAddr: 0x1670C, symBinAddr: 0x10001A208, symSize: 0x34 }
  - { offsetInCU: 0x51F7E, offset: 0x51F7E, size: 0x8, addend: 0x0, symName: __ZNSt3__16__treeINS_12__value_typeIiNS_4pairINS_6vectorINS_12basic_stringIcNS_11char_traitsIcEENS_9allocatorIcEEEENS7_IS9_EEEENS2_INS3_IiNS7_IiEEEENS3_IfNS7_IfEEEEEEEEEENS_19__map_value_compareIiSI_NS_4lessIiEELb1EEENS7_ISI_EEE25__emplace_unique_key_argsIiJNS2_IKiSH_EEEEENS2_INS_15__tree_iteratorISI_PNS_11__tree_nodeISI_PvEElEEbEERKT_DpOT0_, symObjAddr: 0x16740, symBinAddr: 0x10001A23C, symSize: 0xF0 }
  - { offsetInCU: 0x5202A, offset: 0x5202A, size: 0x8, addend: 0x0, symName: __ZNSt3__122__tree_key_value_typesINS_12__value_typeIiNS_4pairINS_6vectorINS_12basic_stringIcNS_11char_traitsIcEENS_9allocatorIcEEEENS7_IS9_EEEENS2_INS3_IiNS7_IiEEEENS3_IfNS7_IfEEEEEEEEEEE9__get_keyB7v160006INS2_IKiSH_EEEENS_9enable_ifIXsr17__is_same_uncvrefIT_SM_EE5valueERSL_E4typeERSO_, symObjAddr: 0x16830, symBinAddr: 0x10001A32C, symSize: 0x14 }
  - { offsetInCU: 0x52057, offset: 0x52057, size: 0x8, addend: 0x0, symName: __ZNSt3__16__treeINS_12__value_typeIiNS_4pairINS_6vectorINS_12basic_stringIcNS_11char_traitsIcEENS_9allocatorIcEEEENS7_IS9_EEEENS2_INS3_IiNS7_IiEEEENS3_IfNS7_IfEEEEEEEEEENS_19__map_value_compareIiSI_NS_4lessIiEELb1EEENS7_ISI_EEE12__find_equalIiEERPNS_16__tree_node_baseIPvEERPNS_15__tree_end_nodeIST_EERKT_, symObjAddr: 0x16844, symBinAddr: 0x10001A340, symSize: 0x184 }
  - { offsetInCU: 0x520C4, offset: 0x520C4, size: 0x8, addend: 0x0, symName: __ZNSt3__16__treeINS_12__value_typeIiNS_4pairINS_6vectorINS_12basic_stringIcNS_11char_traitsIcEENS_9allocatorIcEEEENS7_IS9_EEEENS2_INS3_IiNS7_IiEEEENS3_IfNS7_IfEEEEEEEEEENS_19__map_value_compareIiSI_NS_4lessIiEELb1EEENS7_ISI_EEE16__construct_nodeIJNS2_IKiSH_EEEEENS_10unique_ptrINS_11__tree_nodeISI_PvEENS_22__tree_node_destructorINS7_ISV_EEEEEEDpOT_, symObjAddr: 0x169C8, symBinAddr: 0x10001A4C4, symSize: 0x110 }
  - { offsetInCU: 0x52125, offset: 0x52125, size: 0x8, addend: 0x0, symName: __ZNSt3__16__treeINS_12__value_typeIiNS_4pairINS_6vectorINS_12basic_stringIcNS_11char_traitsIcEENS_9allocatorIcEEEENS7_IS9_EEEENS2_INS3_IiNS7_IiEEEENS3_IfNS7_IfEEEEEEEEEENS_19__map_value_compareIiSI_NS_4lessIiEELb1EEENS7_ISI_EEE16__insert_node_atEPNS_15__tree_end_nodeIPNS_16__tree_node_baseIPvEEEERST_ST_, symObjAddr: 0x16AD8, symBinAddr: 0x10001A5D4, symSize: 0xCC }
  - { offsetInCU: 0x5217A, offset: 0x5217A, size: 0x8, addend: 0x0, symName: __ZNKSt3__110unique_ptrINS_11__tree_nodeINS_12__value_typeIiNS_4pairINS_6vectorINS_12basic_stringIcNS_11char_traitsIcEENS_9allocatorIcEEEENS8_ISA_EEEENS3_INS4_IiNS8_IiEEEENS4_IfNS8_IfEEEEEEEEEEPvEENS_22__tree_node_destructorINS8_ISL_EEEEE3getB7v160006Ev, symObjAddr: 0x16BA4, symBinAddr: 0x10001A6A0, symSize: 0x28 }
  - { offsetInCU: 0x521A0, offset: 0x521A0, size: 0x8, addend: 0x0, symName: __ZNSt3__110unique_ptrINS_11__tree_nodeINS_12__value_typeIiNS_4pairINS_6vectorINS_12basic_stringIcNS_11char_traitsIcEENS_9allocatorIcEEEENS8_ISA_EEEENS3_INS4_IiNS8_IiEEEENS4_IfNS8_IfEEEEEEEEEEPvEENS_22__tree_node_destructorINS8_ISL_EEEEE7releaseB7v160006Ev, symObjAddr: 0x16BCC, symBinAddr: 0x10001A6C8, symSize: 0x44 }
  - { offsetInCU: 0x521D5, offset: 0x521D5, size: 0x8, addend: 0x0, symName: __ZNSt3__110unique_ptrINS_11__tree_nodeINS_12__value_typeIiNS_4pairINS_6vectorINS_12basic_stringIcNS_11char_traitsIcEENS_9allocatorIcEEEENS8_ISA_EEEENS3_INS4_IiNS8_IiEEEENS4_IfNS8_IfEEEEEEEEEEPvEENS_22__tree_node_destructorINS8_ISL_EEEEED1B7v160006Ev, symObjAddr: 0x16C10, symBinAddr: 0x10001A70C, symSize: 0x2C }
  - { offsetInCU: 0x521FF, offset: 0x521FF, size: 0x8, addend: 0x0, symName: __ZNSt3__115__tree_iteratorINS_12__value_typeIiNS_4pairINS_6vectorINS_12basic_stringIcNS_11char_traitsIcEENS_9allocatorIcEEEENS7_IS9_EEEENS2_INS3_IiNS7_IiEEEENS3_IfNS7_IfEEEEEEEEEEPNS_11__tree_nodeISI_PvEElEC1B7v160006ESM_, symObjAddr: 0x16C3C, symBinAddr: 0x10001A738, symSize: 0x34 }
  - { offsetInCU: 0x5223E, offset: 0x5223E, size: 0x8, addend: 0x0, symName: __ZNSt3__14pairINS_15__tree_iteratorINS_12__value_typeIiNS0_INS_6vectorINS_12basic_stringIcNS_11char_traitsIcEENS_9allocatorIcEEEENS7_IS9_EEEENS0_INS3_IiNS7_IiEEEENS3_IfNS7_IfEEEEEEEEEEPNS_11__tree_nodeISI_PvEElEEbEC1B7v160006ISN_RbLSK_0EEEOT_OT0_, symObjAddr: 0x16C70, symBinAddr: 0x10001A76C, symSize: 0x3C }
  - { offsetInCU: 0x5229C, offset: 0x5229C, size: 0x8, addend: 0x0, symName: __ZNKSt3__16__treeINS_12__value_typeIiNS_4pairINS_6vectorINS_12basic_stringIcNS_11char_traitsIcEENS_9allocatorIcEEEENS7_IS9_EEEENS2_INS3_IiNS7_IiEEEENS3_IfNS7_IfEEEEEEEEEENS_19__map_value_compareIiSI_NS_4lessIiEELb1EEENS7_ISI_EEE6__rootB7v160006Ev, symObjAddr: 0x16CAC, symBinAddr: 0x10001A7A8, symSize: 0x28 }
  - { offsetInCU: 0x522C2, offset: 0x522C2, size: 0x8, addend: 0x0, symName: __ZNKSt3__16__treeINS_12__value_typeIiNS_4pairINS_6vectorINS_12basic_stringIcNS_11char_traitsIcEENS_9allocatorIcEEEENS7_IS9_EEEENS2_INS3_IiNS7_IiEEEENS3_IfNS7_IfEEEEEEEEEENS_19__map_value_compareIiSI_NS_4lessIiEELb1EEENS7_ISI_EEE10__root_ptrEv, symObjAddr: 0x16CD4, symBinAddr: 0x10001A7D0, symSize: 0x24 }
  - { offsetInCU: 0x522E8, offset: 0x522E8, size: 0x8, addend: 0x0, symName: __ZNSt3__16__treeINS_12__value_typeIiNS_4pairINS_6vectorINS_12basic_stringIcNS_11char_traitsIcEENS_9allocatorIcEEEENS7_IS9_EEEENS2_INS3_IiNS7_IiEEEENS3_IfNS7_IfEEEEEEEEEENS_19__map_value_compareIiSI_NS_4lessIiEELb1EEENS7_ISI_EEE10value_compB7v160006Ev, symObjAddr: 0x16CF8, symBinAddr: 0x10001A7F4, symSize: 0x28 }
  - { offsetInCU: 0x5230E, offset: 0x5230E, size: 0x8, addend: 0x0, symName: __ZNKSt3__119__map_value_compareIiNS_12__value_typeIiNS_4pairINS_6vectorINS_12basic_stringIcNS_11char_traitsIcEENS_9allocatorIcEEEENS7_IS9_EEEENS2_INS3_IiNS7_IiEEEENS3_IfNS7_IfEEEEEEEEEENS_4lessIiEELb1EEclB7v160006ERKiRKSI_, symObjAddr: 0x16D20, symBinAddr: 0x10001A81C, symSize: 0x50 }
  - { offsetInCU: 0x52352, offset: 0x52352, size: 0x8, addend: 0x0, symName: __ZNKSt3__119__map_value_compareIiNS_12__value_typeIiNS_4pairINS_6vectorINS_12basic_stringIcNS_11char_traitsIcEENS_9allocatorIcEEEENS7_IS9_EEEENS2_INS3_IiNS7_IiEEEENS3_IfNS7_IfEEEEEEEEEENS_4lessIiEELb1EEclB7v160006ERKSI_RKi, symObjAddr: 0x16D70, symBinAddr: 0x10001A86C, symSize: 0x48 }
  - { offsetInCU: 0x52396, offset: 0x52396, size: 0x8, addend: 0x0, symName: __ZNSt3__16__treeINS_12__value_typeIiNS_4pairINS_6vectorINS_12basic_stringIcNS_11char_traitsIcEENS_9allocatorIcEEEENS7_IS9_EEEENS2_INS3_IiNS7_IiEEEENS3_IfNS7_IfEEEEEEEEEENS_19__map_value_compareIiSI_NS_4lessIiEELb1EEENS7_ISI_EEE10__end_nodeB7v160006Ev, symObjAddr: 0x16DB8, symBinAddr: 0x10001A8B4, symSize: 0x2C }
  - { offsetInCU: 0x523BC, offset: 0x523BC, size: 0x8, addend: 0x0, symName: __ZNKSt3__16__treeINS_12__value_typeIiNS_4pairINS_6vectorINS_12basic_stringIcNS_11char_traitsIcEENS_9allocatorIcEEEENS7_IS9_EEEENS2_INS3_IiNS7_IiEEEENS3_IfNS7_IfEEEEEEEEEENS_19__map_value_compareIiSI_NS_4lessIiEELb1EEENS7_ISI_EEE10__end_nodeB7v160006Ev, symObjAddr: 0x16DE4, symBinAddr: 0x10001A8E0, symSize: 0x2C }
  - { offsetInCU: 0x523E2, offset: 0x523E2, size: 0x8, addend: 0x0, symName: __ZNKSt3__117__compressed_pairINS_15__tree_end_nodeIPNS_16__tree_node_baseIPvEEEENS_9allocatorINS_11__tree_nodeINS_12__value_typeIiNS_4pairINS_6vectorINS_12basic_stringIcNS_11char_traitsIcEENS7_IcEEEENS7_ISG_EEEENSA_INSB_IiNS7_IiEEEENSB_IfNS7_IfEEEEEEEEEES3_EEEEE5firstB7v160006Ev, symObjAddr: 0x16E10, symBinAddr: 0x10001A90C, symSize: 0x24 }
  - { offsetInCU: 0x52408, offset: 0x52408, size: 0x8, addend: 0x0, symName: __ZNSt3__117__compressed_pairImNS_19__map_value_compareIiNS_12__value_typeIiNS_4pairINS_6vectorINS_12basic_stringIcNS_11char_traitsIcEENS_9allocatorIcEEEENS8_ISA_EEEENS3_INS4_IiNS8_IiEEEENS4_IfNS8_IfEEEEEEEEEENS_4lessIiEELb1EEEE6secondB7v160006Ev, symObjAddr: 0x16E34, symBinAddr: 0x10001A930, symSize: 0x24 }
  - { offsetInCU: 0x5242E, offset: 0x5242E, size: 0x8, addend: 0x0, symName: __ZNSt3__122__compressed_pair_elemINS_19__map_value_compareIiNS_12__value_typeIiNS_4pairINS_6vectorINS_12basic_stringIcNS_11char_traitsIcEENS_9allocatorIcEEEENS8_ISA_EEEENS3_INS4_IiNS8_IiEEEENS4_IfNS8_IfEEEEEEEEEENS_4lessIiEELb1EEELi1ELb1EE5__getB7v160006Ev, symObjAddr: 0x16E58, symBinAddr: 0x10001A954, symSize: 0x14 }
  - { offsetInCU: 0x52454, offset: 0x52454, size: 0x8, addend: 0x0, symName: __ZNKSt3__112__value_typeIiNS_4pairINS_6vectorINS_12basic_stringIcNS_11char_traitsIcEENS_9allocatorIcEEEENS6_IS8_EEEENS1_INS2_IiNS6_IiEEEENS2_IfNS6_IfEEEEEEEEE11__get_valueB7v160006Ev, symObjAddr: 0x16E6C, symBinAddr: 0x10001A968, symSize: 0x14 }
  - { offsetInCU: 0x5247A, offset: 0x5247A, size: 0x8, addend: 0x0, symName: __ZNSt3__117__compressed_pairINS_15__tree_end_nodeIPNS_16__tree_node_baseIPvEEEENS_9allocatorINS_11__tree_nodeINS_12__value_typeIiNS_4pairINS_6vectorINS_12basic_stringIcNS_11char_traitsIcEENS7_IcEEEENS7_ISG_EEEENSA_INSB_IiNS7_IiEEEENSB_IfNS7_IfEEEEEEEEEES3_EEEEE5firstB7v160006Ev, symObjAddr: 0x16E80, symBinAddr: 0x10001A97C, symSize: 0x24 }
  - { offsetInCU: 0x524A0, offset: 0x524A0, size: 0x8, addend: 0x0, symName: __ZNSt3__16__treeINS_12__value_typeIiNS_4pairINS_6vectorINS_12basic_stringIcNS_11char_traitsIcEENS_9allocatorIcEEEENS7_IS9_EEEENS2_INS3_IiNS7_IiEEEENS3_IfNS7_IfEEEEEEEEEENS_19__map_value_compareIiSI_NS_4lessIiEELb1EEENS7_ISI_EEE12__node_allocB7v160006Ev, symObjAddr: 0x16EA4, symBinAddr: 0x10001A9A0, symSize: 0x28 }
  - { offsetInCU: 0x524C6, offset: 0x524C6, size: 0x8, addend: 0x0, symName: __ZNSt3__116allocator_traitsINS_9allocatorINS_11__tree_nodeINS_12__value_typeIiNS_4pairINS_6vectorINS_12basic_stringIcNS_11char_traitsIcEENS1_IcEEEENS1_ISA_EEEENS4_INS5_IiNS1_IiEEEENS5_IfNS1_IfEEEEEEEEEEPvEEEEE8allocateB7v160006ERSM_m, symObjAddr: 0x16ECC, symBinAddr: 0x10001A9C8, symSize: 0x2C }
  - { offsetInCU: 0x524F9, offset: 0x524F9, size: 0x8, addend: 0x0, symName: __ZNSt3__122__tree_node_destructorINS_9allocatorINS_11__tree_nodeINS_12__value_typeIiNS_4pairINS_6vectorINS_12basic_stringIcNS_11char_traitsIcEENS1_IcEEEENS1_ISA_EEEENS4_INS5_IiNS1_IiEEEENS5_IfNS1_IfEEEEEEEEEEPvEEEEEC1B7v160006ERSM_b, symObjAddr: 0x16EF8, symBinAddr: 0x10001A9F4, symSize: 0x48 }
  - { offsetInCU: 0x52547, offset: 0x52547, size: 0x8, addend: 0x0, symName: __ZNSt3__110unique_ptrINS_11__tree_nodeINS_12__value_typeIiNS_4pairINS_6vectorINS_12basic_stringIcNS_11char_traitsIcEENS_9allocatorIcEEEENS8_ISA_EEEENS3_INS4_IiNS8_IiEEEENS4_IfNS8_IfEEEEEEEEEEPvEENS_22__tree_node_destructorINS8_ISL_EEEEEC1B7v160006ILb1EvEEPSL_NS_16__dependent_typeINS_27__unique_ptr_deleter_sfinaeISO_EEXT_EE20__good_rval_ref_typeE, symObjAddr: 0x16F40, symBinAddr: 0x10001AA3C, symSize: 0x3C }
  - { offsetInCU: 0x52598, offset: 0x52598, size: 0x8, addend: 0x0, symName: __ZNSt3__116allocator_traitsINS_9allocatorINS_11__tree_nodeINS_12__value_typeIiNS_4pairINS_6vectorINS_12basic_stringIcNS_11char_traitsIcEENS1_IcEEEENS1_ISA_EEEENS4_INS5_IiNS1_IiEEEENS5_IfNS1_IfEEEEEEEEEEPvEEEEE9constructB7v160006INS4_IKiSI_EEJSQ_EvEEvRSM_PT_DpOT0_, symObjAddr: 0x16F7C, symBinAddr: 0x10001AA78, symSize: 0x34 }
  - { offsetInCU: 0x525EF, offset: 0x525EF, size: 0x8, addend: 0x0, symName: __ZNSt3__122__tree_key_value_typesINS_12__value_typeIiNS_4pairINS_6vectorINS_12basic_stringIcNS_11char_traitsIcEENS_9allocatorIcEEEENS7_IS9_EEEENS2_INS3_IiNS7_IiEEEENS3_IfNS7_IfEEEEEEEEEEE9__get_ptrB7v160006ERSI_, symObjAddr: 0x16FB0, symBinAddr: 0x10001AAAC, symSize: 0x24 }
  - { offsetInCU: 0x52613, offset: 0x52613, size: 0x8, addend: 0x0, symName: __ZNKSt3__110unique_ptrINS_11__tree_nodeINS_12__value_typeIiNS_4pairINS_6vectorINS_12basic_stringIcNS_11char_traitsIcEENS_9allocatorIcEEEENS8_ISA_EEEENS3_INS4_IiNS8_IiEEEENS4_IfNS8_IfEEEEEEEEEEPvEENS_22__tree_node_destructorINS8_ISL_EEEEEptB7v160006Ev, symObjAddr: 0x16FD4, symBinAddr: 0x10001AAD0, symSize: 0x28 }
  - { offsetInCU: 0x52639, offset: 0x52639, size: 0x8, addend: 0x0, symName: __ZNSt3__110unique_ptrINS_11__tree_nodeINS_12__value_typeIiNS_4pairINS_6vectorINS_12basic_stringIcNS_11char_traitsIcEENS_9allocatorIcEEEENS8_ISA_EEEENS3_INS4_IiNS8_IiEEEENS4_IfNS8_IfEEEEEEEEEEPvEENS_22__tree_node_destructorINS8_ISL_EEEEE11get_deleterB7v160006Ev, symObjAddr: 0x16FFC, symBinAddr: 0x10001AAF8, symSize: 0x24 }
  - { offsetInCU: 0x5265F, offset: 0x5265F, size: 0x8, addend: 0x0, symName: __ZNSt3__117__compressed_pairINS_15__tree_end_nodeIPNS_16__tree_node_baseIPvEEEENS_9allocatorINS_11__tree_nodeINS_12__value_typeIiNS_4pairINS_6vectorINS_12basic_stringIcNS_11char_traitsIcEENS7_IcEEEENS7_ISG_EEEENSA_INSB_IiNS7_IiEEEENSB_IfNS7_IfEEEEEEEEEES3_EEEEE6secondB7v160006Ev, symObjAddr: 0x17020, symBinAddr: 0x10001AB1C, symSize: 0x24 }
  - { offsetInCU: 0x52685, offset: 0x52685, size: 0x8, addend: 0x0, symName: __ZNSt3__122__compressed_pair_elemINS_9allocatorINS_11__tree_nodeINS_12__value_typeIiNS_4pairINS_6vectorINS_12basic_stringIcNS_11char_traitsIcEENS1_IcEEEENS1_ISA_EEEENS4_INS5_IiNS1_IiEEEENS5_IfNS1_IfEEEEEEEEEEPvEEEELi1ELb1EE5__getB7v160006Ev, symObjAddr: 0x17044, symBinAddr: 0x10001AB40, symSize: 0x14 }
  - { offsetInCU: 0x526AB, offset: 0x526AB, size: 0x8, addend: 0x0, symName: __ZNSt3__19allocatorINS_11__tree_nodeINS_12__value_typeIiNS_4pairINS_6vectorINS_12basic_stringIcNS_11char_traitsIcEENS0_IcEEEENS0_IS9_EEEENS3_INS4_IiNS0_IiEEEENS4_IfNS0_IfEEEEEEEEEEPvEEE8allocateB7v160006Em, symObjAddr: 0x17058, symBinAddr: 0x10001AB54, symSize: 0x5C }
  - { offsetInCU: 0x526EA, offset: 0x526EA, size: 0x8, addend: 0x0, symName: __ZNSt3__116allocator_traitsINS_9allocatorINS_11__tree_nodeINS_12__value_typeIiNS_4pairINS_6vectorINS_12basic_stringIcNS_11char_traitsIcEENS1_IcEEEENS1_ISA_EEEENS4_INS5_IiNS1_IiEEEENS5_IfNS1_IfEEEEEEEEEEPvEEEEE8max_sizeB7v160006ISM_vEEmRKSM_, symObjAddr: 0x170B4, symBinAddr: 0x10001ABB0, symSize: 0x24 }
  - { offsetInCU: 0x52718, offset: 0x52718, size: 0x8, addend: 0x0, symName: __ZNKSt3__19allocatorINS_11__tree_nodeINS_12__value_typeIiNS_4pairINS_6vectorINS_12basic_stringIcNS_11char_traitsIcEENS0_IcEEEENS0_IS9_EEEENS3_INS4_IiNS0_IiEEEENS4_IfNS0_IfEEEEEEEEEEPvEEE8max_sizeB7v160006Ev, symObjAddr: 0x170D8, symBinAddr: 0x10001ABD4, symSize: 0x20 }
  - { offsetInCU: 0x5273E, offset: 0x5273E, size: 0x8, addend: 0x0, symName: __ZNSt3__122__tree_node_destructorINS_9allocatorINS_11__tree_nodeINS_12__value_typeIiNS_4pairINS_6vectorINS_12basic_stringIcNS_11char_traitsIcEENS1_IcEEEENS1_ISA_EEEENS4_INS5_IiNS1_IiEEEENS5_IfNS1_IfEEEEEEEEEEPvEEEEEC2B7v160006ERSM_b, symObjAddr: 0x170F8, symBinAddr: 0x10001ABF4, symSize: 0x38 }
  - { offsetInCU: 0x52786, offset: 0x52786, size: 0x8, addend: 0x0, symName: __ZNSt3__110unique_ptrINS_11__tree_nodeINS_12__value_typeIiNS_4pairINS_6vectorINS_12basic_stringIcNS_11char_traitsIcEENS_9allocatorIcEEEENS8_ISA_EEEENS3_INS4_IiNS8_IiEEEENS4_IfNS8_IfEEEEEEEEEEPvEENS_22__tree_node_destructorINS8_ISL_EEEEEC2B7v160006ILb1EvEEPSL_NS_16__dependent_typeINS_27__unique_ptr_deleter_sfinaeISO_EEXT_EE20__good_rval_ref_typeE, symObjAddr: 0x17130, symBinAddr: 0x10001AC2C, symSize: 0x48 }
  - { offsetInCU: 0x527D7, offset: 0x527D7, size: 0x8, addend: 0x0, symName: __ZNSt3__117__compressed_pairIPNS_11__tree_nodeINS_12__value_typeIiNS_4pairINS_6vectorINS_12basic_stringIcNS_11char_traitsIcEENS_9allocatorIcEEEENS8_ISA_EEEENS3_INS4_IiNS8_IiEEEENS4_IfNS8_IfEEEEEEEEEEPvEENS_22__tree_node_destructorINS8_ISL_EEEEEC1B7v160006IRSM_SP_EEOT_OT0_, symObjAddr: 0x17178, symBinAddr: 0x10001AC74, symSize: 0x3C }
  - { offsetInCU: 0x5282F, offset: 0x5282F, size: 0x8, addend: 0x0, symName: __ZNSt3__117__compressed_pairIPNS_11__tree_nodeINS_12__value_typeIiNS_4pairINS_6vectorINS_12basic_stringIcNS_11char_traitsIcEENS_9allocatorIcEEEENS8_ISA_EEEENS3_INS4_IiNS8_IiEEEENS4_IfNS8_IfEEEEEEEEEEPvEENS_22__tree_node_destructorINS8_ISL_EEEEEC2B7v160006IRSM_SP_EEOT_OT0_, symObjAddr: 0x171B4, symBinAddr: 0x10001ACB0, symSize: 0x48 }
  - { offsetInCU: 0x52887, offset: 0x52887, size: 0x8, addend: 0x0, symName: __ZNSt3__122__compressed_pair_elemIPNS_11__tree_nodeINS_12__value_typeIiNS_4pairINS_6vectorINS_12basic_stringIcNS_11char_traitsIcEENS_9allocatorIcEEEENS8_ISA_EEEENS3_INS4_IiNS8_IiEEEENS4_IfNS8_IfEEEEEEEEEEPvEELi0ELb0EEC2B7v160006IRSM_vEEOT_, symObjAddr: 0x171FC, symBinAddr: 0x10001ACF8, symSize: 0x24 }
  - { offsetInCU: 0x528C9, offset: 0x528C9, size: 0x8, addend: 0x0, symName: __ZNSt3__122__compressed_pair_elemINS_22__tree_node_destructorINS_9allocatorINS_11__tree_nodeINS_12__value_typeIiNS_4pairINS_6vectorINS_12basic_stringIcNS_11char_traitsIcEENS2_IcEEEENS2_ISB_EEEENS5_INS6_IiNS2_IiEEEENS6_IfNS2_IfEEEEEEEEEEPvEEEEEELi1ELb0EEC2B7v160006ISO_vEEOT_, symObjAddr: 0x17220, symBinAddr: 0x10001AD1C, symSize: 0x24 }
  - { offsetInCU: 0x5290B, offset: 0x5290B, size: 0x8, addend: 0x0, symName: __ZNSt3__19allocatorINS_11__tree_nodeINS_12__value_typeIiNS_4pairINS_6vectorINS_12basic_stringIcNS_11char_traitsIcEENS0_IcEEEENS0_IS9_EEEENS3_INS4_IiNS0_IiEEEENS4_IfNS0_IfEEEEEEEEEEPvEEE9constructB7v160006INS3_IKiSH_EEJSO_EEEvPT_DpOT0_, symObjAddr: 0x17244, symBinAddr: 0x10001AD40, symSize: 0x30 }
  - { offsetInCU: 0x52961, offset: 0x52961, size: 0x8, addend: 0x0, symName: __ZNSt3__14pairIKiNS0_INS_6vectorINS_12basic_stringIcNS_11char_traitsIcEENS_9allocatorIcEEEENS6_IS8_EEEENS0_INS2_IiNS6_IiEEEENS2_IfNS6_IfEEEEEEEEEC1EOSH_, symObjAddr: 0x17274, symBinAddr: 0x10001AD70, symSize: 0x34 }
  - { offsetInCU: 0x52996, offset: 0x52996, size: 0x8, addend: 0x0, symName: __ZNSt3__14pairIKiNS0_INS_6vectorINS_12basic_stringIcNS_11char_traitsIcEENS_9allocatorIcEEEENS6_IS8_EEEENS0_INS2_IiNS6_IiEEEENS2_IfNS6_IfEEEEEEEEEC2EOSH_, symObjAddr: 0x172A8, symBinAddr: 0x10001ADA4, symSize: 0x48 }
  - { offsetInCU: 0x529CB, offset: 0x529CB, size: 0x8, addend: 0x0, symName: __ZNSt3__14pairINS_6vectorINS_12basic_stringIcNS_11char_traitsIcEENS_9allocatorIcEEEENS5_IS7_EEEENS0_INS1_IiNS5_IiEEEENS1_IfNS5_IfEEEEEEEC1EOSF_, symObjAddr: 0x172F0, symBinAddr: 0x10001ADEC, symSize: 0x34 }
  - { offsetInCU: 0x52A00, offset: 0x52A00, size: 0x8, addend: 0x0, symName: __ZNSt3__14pairINS_6vectorINS_12basic_stringIcNS_11char_traitsIcEENS_9allocatorIcEEEENS5_IS7_EEEENS0_INS1_IiNS5_IiEEEENS1_IfNS5_IfEEEEEEEC2EOSF_, symObjAddr: 0x17324, symBinAddr: 0x10001AE20, symSize: 0x48 }
  - { offsetInCU: 0x52A35, offset: 0x52A35, size: 0x8, addend: 0x0, symName: __ZNSt3__112__value_typeIiNS_4pairINS_6vectorINS_12basic_stringIcNS_11char_traitsIcEENS_9allocatorIcEEEENS6_IS8_EEEENS1_INS2_IiNS6_IiEEEENS2_IfNS6_IfEEEEEEEEE11__get_valueB7v160006Ev, symObjAddr: 0x1736C, symBinAddr: 0x10001AE68, symSize: 0x14 }
  - { offsetInCU: 0x52A5B, offset: 0x52A5B, size: 0x8, addend: 0x0, symName: __ZNKSt3__117__compressed_pairIPNS_11__tree_nodeINS_12__value_typeIiNS_4pairINS_6vectorINS_12basic_stringIcNS_11char_traitsIcEENS_9allocatorIcEEEENS8_ISA_EEEENS3_INS4_IiNS8_IiEEEENS4_IfNS8_IfEEEEEEEEEEPvEENS_22__tree_node_destructorINS8_ISL_EEEEE5firstB7v160006Ev, symObjAddr: 0x17380, symBinAddr: 0x10001AE7C, symSize: 0x24 }
  - { offsetInCU: 0x52A81, offset: 0x52A81, size: 0x8, addend: 0x0, symName: __ZNKSt3__122__compressed_pair_elemIPNS_11__tree_nodeINS_12__value_typeIiNS_4pairINS_6vectorINS_12basic_stringIcNS_11char_traitsIcEENS_9allocatorIcEEEENS8_ISA_EEEENS3_INS4_IiNS8_IiEEEENS4_IfNS8_IfEEEEEEEEEEPvEELi0ELb0EE5__getB7v160006Ev, symObjAddr: 0x173A4, symBinAddr: 0x10001AEA0, symSize: 0x14 }
  - { offsetInCU: 0x52AA7, offset: 0x52AA7, size: 0x8, addend: 0x0, symName: __ZNSt3__117__compressed_pairIPNS_11__tree_nodeINS_12__value_typeIiNS_4pairINS_6vectorINS_12basic_stringIcNS_11char_traitsIcEENS_9allocatorIcEEEENS8_ISA_EEEENS3_INS4_IiNS8_IiEEEENS4_IfNS8_IfEEEEEEEEEEPvEENS_22__tree_node_destructorINS8_ISL_EEEEE6secondB7v160006Ev, symObjAddr: 0x173B8, symBinAddr: 0x10001AEB4, symSize: 0x28 }
  - { offsetInCU: 0x52ACD, offset: 0x52ACD, size: 0x8, addend: 0x0, symName: __ZNSt3__122__compressed_pair_elemINS_22__tree_node_destructorINS_9allocatorINS_11__tree_nodeINS_12__value_typeIiNS_4pairINS_6vectorINS_12basic_stringIcNS_11char_traitsIcEENS2_IcEEEENS2_ISB_EEEENS5_INS6_IiNS2_IiEEEENS6_IfNS2_IfEEEEEEEEEEPvEEEEEELi1ELb0EE5__getB7v160006Ev, symObjAddr: 0x173E0, symBinAddr: 0x10001AEDC, symSize: 0x14 }
  - { offsetInCU: 0x52AF3, offset: 0x52AF3, size: 0x8, addend: 0x0, symName: __ZNSt3__16__treeINS_12__value_typeIiNS_4pairINS_6vectorINS_12basic_stringIcNS_11char_traitsIcEENS_9allocatorIcEEEENS7_IS9_EEEENS2_INS3_IiNS7_IiEEEENS3_IfNS7_IfEEEEEEEEEENS_19__map_value_compareIiSI_NS_4lessIiEELb1EEENS7_ISI_EEE12__begin_nodeB7v160006Ev, symObjAddr: 0x173F4, symBinAddr: 0x10001AEF0, symSize: 0x14 }
  - { offsetInCU: 0x52B19, offset: 0x52B19, size: 0x8, addend: 0x0, symName: __ZNSt3__16__treeINS_12__value_typeIiNS_4pairINS_6vectorINS_12basic_stringIcNS_11char_traitsIcEENS_9allocatorIcEEEENS7_IS9_EEEENS2_INS3_IiNS7_IiEEEENS3_IfNS7_IfEEEEEEEEEENS_19__map_value_compareIiSI_NS_4lessIiEELb1EEENS7_ISI_EEE4sizeB7v160006Ev, symObjAddr: 0x17408, symBinAddr: 0x10001AF04, symSize: 0x28 }
  - { offsetInCU: 0x52B3F, offset: 0x52B3F, size: 0x8, addend: 0x0, symName: __ZNSt3__117__compressed_pairImNS_19__map_value_compareIiNS_12__value_typeIiNS_4pairINS_6vectorINS_12basic_stringIcNS_11char_traitsIcEENS_9allocatorIcEEEENS8_ISA_EEEENS3_INS4_IiNS8_IiEEEENS4_IfNS8_IfEEEEEEEEEENS_4lessIiEELb1EEEE5firstB7v160006Ev, symObjAddr: 0x17430, symBinAddr: 0x10001AF2C, symSize: 0x24 }
  - { offsetInCU: 0x52B65, offset: 0x52B65, size: 0x8, addend: 0x0, symName: __ZNSt3__117__compressed_pairIPNS_11__tree_nodeINS_12__value_typeIiNS_4pairINS_6vectorINS_12basic_stringIcNS_11char_traitsIcEENS_9allocatorIcEEEENS8_ISA_EEEENS3_INS4_IiNS8_IiEEEENS4_IfNS8_IfEEEEEEEEEEPvEENS_22__tree_node_destructorINS8_ISL_EEEEE5firstB7v160006Ev, symObjAddr: 0x17454, symBinAddr: 0x10001AF50, symSize: 0x24 }
  - { offsetInCU: 0x52B8B, offset: 0x52B8B, size: 0x8, addend: 0x0, symName: __ZNSt3__122__compressed_pair_elemIPNS_11__tree_nodeINS_12__value_typeIiNS_4pairINS_6vectorINS_12basic_stringIcNS_11char_traitsIcEENS_9allocatorIcEEEENS8_ISA_EEEENS3_INS4_IiNS8_IiEEEENS4_IfNS8_IfEEEEEEEEEEPvEELi0ELb0EE5__getB7v160006Ev, symObjAddr: 0x17478, symBinAddr: 0x10001AF74, symSize: 0x14 }
  - { offsetInCU: 0x52BB1, offset: 0x52BB1, size: 0x8, addend: 0x0, symName: __ZNSt3__110unique_ptrINS_11__tree_nodeINS_12__value_typeIiNS_4pairINS_6vectorINS_12basic_stringIcNS_11char_traitsIcEENS_9allocatorIcEEEENS8_ISA_EEEENS3_INS4_IiNS8_IiEEEENS4_IfNS8_IfEEEEEEEEEEPvEENS_22__tree_node_destructorINS8_ISL_EEEEED2B7v160006Ev, symObjAddr: 0x1748C, symBinAddr: 0x10001AF88, symSize: 0x30 }
  - { offsetInCU: 0x52BDB, offset: 0x52BDB, size: 0x8, addend: 0x0, symName: __ZNSt3__110unique_ptrINS_11__tree_nodeINS_12__value_typeIiNS_4pairINS_6vectorINS_12basic_stringIcNS_11char_traitsIcEENS_9allocatorIcEEEENS8_ISA_EEEENS3_INS4_IiNS8_IiEEEENS4_IfNS8_IfEEEEEEEEEEPvEENS_22__tree_node_destructorINS8_ISL_EEEEE5resetB7v160006EPSL_, symObjAddr: 0x174BC, symBinAddr: 0x10001AFB8, symSize: 0x78 }
  - { offsetInCU: 0x52C1F, offset: 0x52C1F, size: 0x8, addend: 0x0, symName: __ZNSt3__122__tree_node_destructorINS_9allocatorINS_11__tree_nodeINS_12__value_typeIiNS_4pairINS_6vectorINS_12basic_stringIcNS_11char_traitsIcEENS1_IcEEEENS1_ISA_EEEENS4_INS5_IiNS1_IiEEEENS5_IfNS1_IfEEEEEEEEEEPvEEEEEclB7v160006EPSL_, symObjAddr: 0x17534, symBinAddr: 0x10001B030, symSize: 0x98 }
  - { offsetInCU: 0x52C54, offset: 0x52C54, size: 0x8, addend: 0x0, symName: __ZNSt3__116allocator_traitsINS_9allocatorINS_11__tree_nodeINS_12__value_typeIiNS_4pairINS_6vectorINS_12basic_stringIcNS_11char_traitsIcEENS1_IcEEEENS1_ISA_EEEENS4_INS5_IiNS1_IiEEEENS5_IfNS1_IfEEEEEEEEEEPvEEEEE7destroyB7v160006INS4_IKiSI_EEvvEEvRSM_PT_, symObjAddr: 0x175CC, symBinAddr: 0x10001B0C8, symSize: 0x28 }
  - { offsetInCU: 0x52C8F, offset: 0x52C8F, size: 0x8, addend: 0x0, symName: __ZNSt3__116allocator_traitsINS_9allocatorINS_11__tree_nodeINS_12__value_typeIiNS_4pairINS_6vectorINS_12basic_stringIcNS_11char_traitsIcEENS1_IcEEEENS1_ISA_EEEENS4_INS5_IiNS1_IiEEEENS5_IfNS1_IfEEEEEEEEEEPvEEEEE10deallocateB7v160006ERSM_PSL_m, symObjAddr: 0x175F4, symBinAddr: 0x10001B0F0, symSize: 0x34 }
  - { offsetInCU: 0x52CD1, offset: 0x52CD1, size: 0x8, addend: 0x0, symName: __ZNSt3__19allocatorINS_11__tree_nodeINS_12__value_typeIiNS_4pairINS_6vectorINS_12basic_stringIcNS_11char_traitsIcEENS0_IcEEEENS0_IS9_EEEENS3_INS4_IiNS0_IiEEEENS4_IfNS0_IfEEEEEEEEEEPvEEE10deallocateB7v160006EPSK_m, symObjAddr: 0x17628, symBinAddr: 0x10001B124, symSize: 0x44 }
  - { offsetInCU: 0x52D13, offset: 0x52D13, size: 0x8, addend: 0x0, symName: __ZNSt3__115__tree_iteratorINS_12__value_typeIiNS_4pairINS_6vectorINS_12basic_stringIcNS_11char_traitsIcEENS_9allocatorIcEEEENS7_IS9_EEEENS2_INS3_IiNS7_IiEEEENS3_IfNS7_IfEEEEEEEEEEPNS_11__tree_nodeISI_PvEElEC2B7v160006ESM_, symObjAddr: 0x1766C, symBinAddr: 0x10001B168, symSize: 0x20 }
  - { offsetInCU: 0x52D4C, offset: 0x52D4C, size: 0x8, addend: 0x0, symName: __ZNSt3__14pairINS_15__tree_iteratorINS_12__value_typeIiNS0_INS_6vectorINS_12basic_stringIcNS_11char_traitsIcEENS_9allocatorIcEEEENS7_IS9_EEEENS0_INS3_IiNS7_IiEEEENS3_IfNS7_IfEEEEEEEEEEPNS_11__tree_nodeISI_PvEElEEbEC2B7v160006ISN_RbLSK_0EEEOT_OT0_, symObjAddr: 0x1768C, symBinAddr: 0x10001B188, symSize: 0x38 }
  - { offsetInCU: 0x52DAA, offset: 0x52DAA, size: 0x8, addend: 0x0, symName: __ZNSt3__14pairINS_14__map_iteratorINS_15__tree_iteratorINS_12__value_typeIiNS0_INS_6vectorINS_12basic_stringIcNS_11char_traitsIcEENS_9allocatorIcEEEENS8_ISA_EEEENS0_INS4_IiNS8_IiEEEENS4_IfNS8_IfEEEEEEEEEEPNS_11__tree_nodeISJ_PvEElEEEEbEC2B7v160006ISO_bLSL_0EEEONS0_IT_T0_EE, symObjAddr: 0x176C4, symBinAddr: 0x10001B1C0, symSize: 0x50 }
  - { offsetInCU: 0x52DFB, offset: 0x52DFB, size: 0x8, addend: 0x0, symName: __ZNSt3__114__map_iteratorINS_15__tree_iteratorINS_12__value_typeIiNS_4pairINS_6vectorINS_12basic_stringIcNS_11char_traitsIcEENS_9allocatorIcEEEENS8_ISA_EEEENS3_INS4_IiNS8_IiEEEENS4_IfNS8_IfEEEEEEEEEEPNS_11__tree_nodeISJ_PvEElEEEC1B7v160006ESO_, symObjAddr: 0x17714, symBinAddr: 0x10001B210, symSize: 0x34 }
  - { offsetInCU: 0x52E34, offset: 0x52E34, size: 0x8, addend: 0x0, symName: __ZNSt3__114__map_iteratorINS_15__tree_iteratorINS_12__value_typeIiNS_4pairINS_6vectorINS_12basic_stringIcNS_11char_traitsIcEENS_9allocatorIcEEEENS8_ISA_EEEENS3_INS4_IiNS8_IiEEEENS4_IfNS8_IfEEEEEEEEEEPNS_11__tree_nodeISJ_PvEElEEEC2B7v160006ESO_, symObjAddr: 0x17748, symBinAddr: 0x10001B244, symSize: 0x20 }
  - { offsetInCU: 0x52E6D, offset: 0x52E6D, size: 0x8, addend: 0x0, symName: __ZNSt3__14pairINS_6vectorINS_12basic_stringIcNS_11char_traitsIcEENS_9allocatorIcEEEENS5_IS7_EEEENS0_INS1_IiNS5_IiEEEENS1_IfNS5_IfEEEEEEEC1B7v160006IS9_SE_LPv0EEEOT_OT0_, symObjAddr: 0x17768, symBinAddr: 0x10001B264, symSize: 0x3C }
  - { offsetInCU: 0x52ECB, offset: 0x52ECB, size: 0x8, addend: 0x0, symName: __ZNSt3__14pairINS_6vectorINS_12basic_stringIcNS_11char_traitsIcEENS_9allocatorIcEEEENS5_IS7_EEEENS0_INS1_IiNS5_IiEEEENS1_IfNS5_IfEEEEEEEC2B7v160006IS9_SE_LPv0EEEOT_OT0_, symObjAddr: 0x177A4, symBinAddr: 0x10001B2A0, symSize: 0x48 }
  - { offsetInCU: 0x52F29, offset: 0x52F29, size: 0x8, addend: 0x0, symName: __ZNSt3__14pairIKiNS0_INS_6vectorINS_12basic_stringIcNS_11char_traitsIcEENS_9allocatorIcEEEENS6_IS8_EEEENS0_INS2_IiNS6_IiEEEENS2_IfNS6_IfEEEEEEEEEC2B7v160006IRiSG_LPv0EEEOT_OT0_, symObjAddr: 0x177EC, symBinAddr: 0x10001B2E8, symSize: 0x48 }
  - { offsetInCU: 0x52F87, offset: 0x52F87, size: 0x8, addend: 0x0, symName: __ZNSt3__14pairIKiNS0_INS_6vectorINS_12basic_stringIcNS_11char_traitsIcEENS_9allocatorIcEEEENS6_IS8_EEEENS0_INS2_IiNS6_IiEEEENS2_IfNS6_IfEEEEEEEEED2Ev, symObjAddr: 0x17834, symBinAddr: 0x10001B330, symSize: 0x30 }
  - { offsetInCU: 0x52FB3, offset: 0x52FB3, size: 0x8, addend: 0x0, symName: __ZNSt3__14pairINS_6vectorINS_12basic_stringIcNS_11char_traitsIcEENS_9allocatorIcEEEENS5_IS7_EEEENS0_INS1_IiNS5_IiEEEENS1_IfNS5_IfEEEEEEED2Ev, symObjAddr: 0x17864, symBinAddr: 0x10001B360, symSize: 0x38 }
  - { offsetInCU: 0x52FDF, offset: 0x52FDF, size: 0x8, addend: 0x0, symName: __ZN4Game5SkillD2Ev, symObjAddr: 0x1789C, symBinAddr: 0x10001B398, symSize: 0x48 }
  - { offsetInCU: 0x5300B, offset: 0x5300B, size: 0x8, addend: 0x0, symName: __ZNSt3__13mapIiNS_4pairINS_12basic_stringIcNS_11char_traitsIcEENS_9allocatorIcEEEENS1_INS_6vectorIfNS5_IfEEEENS8_IiNS5_IiEEEEEEEENS_4lessIiEENS5_INS1_IKiSE_EEEEEC1B7v160006ERKSK_, symObjAddr: 0x178E4, symBinAddr: 0x10001B3E0, symSize: 0x34 }
  - { offsetInCU: 0x53044, offset: 0x53044, size: 0x8, addend: 0x0, symName: __ZNSt3__13mapIiNS_4pairINS_12basic_stringIcNS_11char_traitsIcEENS_9allocatorIcEEEENS1_INS_6vectorIfNS5_IfEEEENS8_IiNS5_IiEEEEEEEENS_4lessIiEENS5_INS1_IKiSE_EEEEEC2B7v160006ERKSK_, symObjAddr: 0x17918, symBinAddr: 0x10001B414, symSize: 0x88 }
  - { offsetInCU: 0x5307D, offset: 0x5307D, size: 0x8, addend: 0x0, symName: __ZNSt3__16__treeINS_12__value_typeIiNS_4pairINS_12basic_stringIcNS_11char_traitsIcEENS_9allocatorIcEEEENS2_INS_6vectorIfNS6_IfEEEENS9_IiNS6_IiEEEEEEEEEENS_19__map_value_compareIiSG_NS_4lessIiEELb1EEENS6_ISG_EEEC1ERKSM_, symObjAddr: 0x179A0, symBinAddr: 0x10001B49C, symSize: 0x34 }
  - { offsetInCU: 0x530B8, offset: 0x530B8, size: 0x8, addend: 0x0, symName: __ZNSt3__13mapIiNS_4pairINS_12basic_stringIcNS_11char_traitsIcEENS_9allocatorIcEEEENS1_INS_6vectorIfNS5_IfEEEENS8_IiNS5_IiEEEEEEEENS_4lessIiEENS5_INS1_IKiSE_EEEEE6insertB7v160006INS_20__map_const_iteratorINS_21__tree_const_iteratorINS_12__value_typeIiSE_EEPNS_11__tree_nodeISP_PvEElEEEEEEvT_SW_, symObjAddr: 0x179D4, symBinAddr: 0x10001B4D0, symSize: 0x8C }
  - { offsetInCU: 0x53122, offset: 0x53122, size: 0x8, addend: 0x0, symName: __ZNKSt3__13mapIiNS_4pairINS_12basic_stringIcNS_11char_traitsIcEENS_9allocatorIcEEEENS1_INS_6vectorIfNS5_IfEEEENS8_IiNS5_IiEEEEEEEENS_4lessIiEENS5_INS1_IKiSE_EEEEE5beginB7v160006Ev, symObjAddr: 0x17A60, symBinAddr: 0x10001B55C, symSize: 0x38 }
  - { offsetInCU: 0x53148, offset: 0x53148, size: 0x8, addend: 0x0, symName: __ZNKSt3__13mapIiNS_4pairINS_12basic_stringIcNS_11char_traitsIcEENS_9allocatorIcEEEENS1_INS_6vectorIfNS5_IfEEEENS8_IiNS5_IiEEEEEEEENS_4lessIiEENS5_INS1_IKiSE_EEEEE3endB7v160006Ev, symObjAddr: 0x17A98, symBinAddr: 0x10001B594, symSize: 0x38 }
  - { offsetInCU: 0x5316E, offset: 0x5316E, size: 0x8, addend: 0x0, symName: __ZNSt3__16__treeINS_12__value_typeIiNS_4pairINS_12basic_stringIcNS_11char_traitsIcEENS_9allocatorIcEEEENS2_INS_6vectorIfNS6_IfEEEENS9_IiNS6_IiEEEEEEEEEENS_19__map_value_compareIiSG_NS_4lessIiEELb1EEENS6_ISG_EEED1Ev, symObjAddr: 0x17AD0, symBinAddr: 0x10001B5CC, symSize: 0x2C }
  - { offsetInCU: 0x5319A, offset: 0x5319A, size: 0x8, addend: 0x0, symName: __ZNSt3__16__treeINS_12__value_typeIiNS_4pairINS_12basic_stringIcNS_11char_traitsIcEENS_9allocatorIcEEEENS2_INS_6vectorIfNS6_IfEEEENS9_IiNS6_IiEEEEEEEEEENS_19__map_value_compareIiSG_NS_4lessIiEELb1EEENS6_ISG_EEEC2ERKSM_, symObjAddr: 0x17AFC, symBinAddr: 0x10001B5F8, symSize: 0x9C }
  - { offsetInCU: 0x531D5, offset: 0x531D5, size: 0x8, addend: 0x0, symName: __ZNSt3__116allocator_traitsINS_9allocatorINS_11__tree_nodeINS_12__value_typeIiNS_4pairINS_12basic_stringIcNS_11char_traitsIcEENS1_IcEEEENS4_INS_6vectorIfNS1_IfEEEENSA_IiNS1_IiEEEEEEEEEEPvEEEEE37select_on_container_copy_constructionB7v160006ISK_vvEESK_RKSK_, symObjAddr: 0x17B98, symBinAddr: 0x10001B694, symSize: 0x10 }
  - { offsetInCU: 0x53204, offset: 0x53204, size: 0x8, addend: 0x0, symName: __ZNKSt3__16__treeINS_12__value_typeIiNS_4pairINS_12basic_stringIcNS_11char_traitsIcEENS_9allocatorIcEEEENS2_INS_6vectorIfNS6_IfEEEENS9_IiNS6_IiEEEEEEEEEENS_19__map_value_compareIiSG_NS_4lessIiEELb1EEENS6_ISG_EEE12__node_allocB7v160006Ev, symObjAddr: 0x17BA8, symBinAddr: 0x10001B6A4, symSize: 0x28 }
  - { offsetInCU: 0x53236, offset: 0x53236, size: 0x8, addend: 0x0, symName: __ZNSt3__117__compressed_pairINS_15__tree_end_nodeIPNS_16__tree_node_baseIPvEEEENS_9allocatorINS_11__tree_nodeINS_12__value_typeIiNS_4pairINS_12basic_stringIcNS_11char_traitsIcEENS7_IcEEEENSA_INS_6vectorIfNS7_IfEEEENSG_IiNS7_IiEEEEEEEEEES3_EEEEEC1B7v160006INS_18__default_init_tagESP_EEOT_OT0_, symObjAddr: 0x17BD0, symBinAddr: 0x10001B6CC, symSize: 0x3C }
  - { offsetInCU: 0x5328E, offset: 0x5328E, size: 0x8, addend: 0x0, symName: __ZNKSt3__16__treeINS_12__value_typeIiNS_4pairINS_12basic_stringIcNS_11char_traitsIcEENS_9allocatorIcEEEENS2_INS_6vectorIfNS6_IfEEEENS9_IiNS6_IiEEEEEEEEEENS_19__map_value_compareIiSG_NS_4lessIiEELb1EEENS6_ISG_EEE10value_compB7v160006Ev, symObjAddr: 0x17C0C, symBinAddr: 0x10001B708, symSize: 0x28 }
  - { offsetInCU: 0x532B4, offset: 0x532B4, size: 0x8, addend: 0x0, symName: __ZNSt3__117__compressed_pairImNS_19__map_value_compareIiNS_12__value_typeIiNS_4pairINS_12basic_stringIcNS_11char_traitsIcEENS_9allocatorIcEEEENS3_INS_6vectorIfNS7_IfEEEENSA_IiNS7_IiEEEEEEEEEENS_4lessIiEELb1EEEEC1B7v160006IiRKSK_EEOT_OT0_, symObjAddr: 0x17C34, symBinAddr: 0x10001B730, symSize: 0x3C }
  - { offsetInCU: 0x5330C, offset: 0x5330C, size: 0x8, addend: 0x0, symName: __ZNKSt3__117__compressed_pairINS_15__tree_end_nodeIPNS_16__tree_node_baseIPvEEEENS_9allocatorINS_11__tree_nodeINS_12__value_typeIiNS_4pairINS_12basic_stringIcNS_11char_traitsIcEENS7_IcEEEENSA_INS_6vectorIfNS7_IfEEEENSG_IiNS7_IiEEEEEEEEEES3_EEEEE6secondB7v160006Ev, symObjAddr: 0x17C70, symBinAddr: 0x10001B76C, symSize: 0x24 }
  - { offsetInCU: 0x53332, offset: 0x53332, size: 0x8, addend: 0x0, symName: __ZNKSt3__122__compressed_pair_elemINS_9allocatorINS_11__tree_nodeINS_12__value_typeIiNS_4pairINS_12basic_stringIcNS_11char_traitsIcEENS1_IcEEEENS4_INS_6vectorIfNS1_IfEEEENSA_IiNS1_IiEEEEEEEEEEPvEEEELi1ELb1EE5__getB7v160006Ev, symObjAddr: 0x17C94, symBinAddr: 0x10001B790, symSize: 0x14 }
  - { offsetInCU: 0x53358, offset: 0x53358, size: 0x8, addend: 0x0, symName: __ZNSt3__117__compressed_pairINS_15__tree_end_nodeIPNS_16__tree_node_baseIPvEEEENS_9allocatorINS_11__tree_nodeINS_12__value_typeIiNS_4pairINS_12basic_stringIcNS_11char_traitsIcEENS7_IcEEEENSA_INS_6vectorIfNS7_IfEEEENSG_IiNS7_IiEEEEEEEEEES3_EEEEEC2B7v160006INS_18__default_init_tagESP_EEOT_OT0_, symObjAddr: 0x17CA8, symBinAddr: 0x10001B7A4, symSize: 0x40 }
  - { offsetInCU: 0x533B0, offset: 0x533B0, size: 0x8, addend: 0x0, symName: __ZNSt3__122__compressed_pair_elemINS_15__tree_end_nodeIPNS_16__tree_node_baseIPvEEEELi0ELb0EEC2B7v160006ENS_18__default_init_tagE, symObjAddr: 0x17CE8, symBinAddr: 0x10001B7E4, symSize: 0x2C }
  - { offsetInCU: 0x533E5, offset: 0x533E5, size: 0x8, addend: 0x0, symName: __ZNSt3__122__compressed_pair_elemINS_9allocatorINS_11__tree_nodeINS_12__value_typeIiNS_4pairINS_12basic_stringIcNS_11char_traitsIcEENS1_IcEEEENS4_INS_6vectorIfNS1_IfEEEENSA_IiNS1_IiEEEEEEEEEEPvEEEELi1ELb1EEC2B7v160006ISK_vEEOT_, symObjAddr: 0x17D14, symBinAddr: 0x10001B810, symSize: 0x18 }
  - { offsetInCU: 0x53427, offset: 0x53427, size: 0x8, addend: 0x0, symName: __ZNSt3__115__tree_end_nodeIPNS_16__tree_node_baseIPvEEEC1B7v160006Ev, symObjAddr: 0x17D2C, symBinAddr: 0x10001B828, symSize: 0x2C }
  - { offsetInCU: 0x53451, offset: 0x53451, size: 0x8, addend: 0x0, symName: __ZNSt3__115__tree_end_nodeIPNS_16__tree_node_baseIPvEEEC2B7v160006Ev, symObjAddr: 0x17D58, symBinAddr: 0x10001B854, symSize: 0x18 }
  - { offsetInCU: 0x5347B, offset: 0x5347B, size: 0x8, addend: 0x0, symName: __ZNKSt3__117__compressed_pairImNS_19__map_value_compareIiNS_12__value_typeIiNS_4pairINS_12basic_stringIcNS_11char_traitsIcEENS_9allocatorIcEEEENS3_INS_6vectorIfNS7_IfEEEENSA_IiNS7_IiEEEEEEEEEENS_4lessIiEELb1EEEE6secondB7v160006Ev, symObjAddr: 0x17D70, symBinAddr: 0x10001B86C, symSize: 0x24 }
  - { offsetInCU: 0x534A1, offset: 0x534A1, size: 0x8, addend: 0x0, symName: __ZNKSt3__122__compressed_pair_elemINS_19__map_value_compareIiNS_12__value_typeIiNS_4pairINS_12basic_stringIcNS_11char_traitsIcEENS_9allocatorIcEEEENS3_INS_6vectorIfNS7_IfEEEENSA_IiNS7_IiEEEEEEEEEENS_4lessIiEELb1EEELi1ELb1EE5__getB7v160006Ev, symObjAddr: 0x17D94, symBinAddr: 0x10001B890, symSize: 0x14 }
  - { offsetInCU: 0x534C7, offset: 0x534C7, size: 0x8, addend: 0x0, symName: __ZNSt3__117__compressed_pairImNS_19__map_value_compareIiNS_12__value_typeIiNS_4pairINS_12basic_stringIcNS_11char_traitsIcEENS_9allocatorIcEEEENS3_INS_6vectorIfNS7_IfEEEENSA_IiNS7_IiEEEEEEEEEENS_4lessIiEELb1EEEEC2B7v160006IiRKSK_EEOT_OT0_, symObjAddr: 0x17DA8, symBinAddr: 0x10001B8A4, symSize: 0x44 }
  - { offsetInCU: 0x5351F, offset: 0x5351F, size: 0x8, addend: 0x0, symName: __ZNSt3__122__compressed_pair_elemImLi0ELb0EEC2B7v160006IivEEOT_, symObjAddr: 0x17DEC, symBinAddr: 0x10001B8E8, symSize: 0x24 }
  - { offsetInCU: 0x53561, offset: 0x53561, size: 0x8, addend: 0x0, symName: __ZNSt3__122__compressed_pair_elemINS_19__map_value_compareIiNS_12__value_typeIiNS_4pairINS_12basic_stringIcNS_11char_traitsIcEENS_9allocatorIcEEEENS3_INS_6vectorIfNS7_IfEEEENSA_IiNS7_IiEEEEEEEEEENS_4lessIiEELb1EEELi1ELb1EEC2B7v160006IRKSK_vEEOT_, symObjAddr: 0x17E10, symBinAddr: 0x10001B90C, symSize: 0x18 }
  - { offsetInCU: 0x535A3, offset: 0x535A3, size: 0x8, addend: 0x0, symName: __ZNKSt3__13mapIiNS_4pairINS_12basic_stringIcNS_11char_traitsIcEENS_9allocatorIcEEEENS1_INS_6vectorIfNS5_IfEEEENS8_IiNS5_IiEEEEEEEENS_4lessIiEENS5_INS1_IKiSE_EEEEE4cendB7v160006Ev, symObjAddr: 0x17E28, symBinAddr: 0x10001B924, symSize: 0x2C }
  - { offsetInCU: 0x535C9, offset: 0x535C9, size: 0x8, addend: 0x0, symName: __ZNSt3__13mapIiNS_4pairINS_12basic_stringIcNS_11char_traitsIcEENS_9allocatorIcEEEENS1_INS_6vectorIfNS5_IfEEEENS8_IiNS5_IiEEEEEEEENS_4lessIiEENS5_INS1_IKiSE_EEEEE6insertB7v160006ENS_20__map_const_iteratorINS_21__tree_const_iteratorINS_12__value_typeIiSE_EEPNS_11__tree_nodeISO_PvEElEEEERKSI_, symObjAddr: 0x17E84, symBinAddr: 0x10001B980, symSize: 0x50 }
  - { offsetInCU: 0x5360D, offset: 0x5360D, size: 0x8, addend: 0x0, symName: __ZNSt3__120__map_const_iteratorINS_21__tree_const_iteratorINS_12__value_typeIiNS_4pairINS_12basic_stringIcNS_11char_traitsIcEENS_9allocatorIcEEEENS3_INS_6vectorIfNS7_IfEEEENSA_IiNS7_IiEEEEEEEEEEPNS_11__tree_nodeISH_PvEElEEEC1B7v160006ESM_, symObjAddr: 0x17ED4, symBinAddr: 0x10001B9D0, symSize: 0x34 }
  - { offsetInCU: 0x53646, offset: 0x53646, size: 0x8, addend: 0x0, symName: __ZNKSt3__120__map_const_iteratorINS_21__tree_const_iteratorINS_12__value_typeIiNS_4pairINS_12basic_stringIcNS_11char_traitsIcEENS_9allocatorIcEEEENS3_INS_6vectorIfNS7_IfEEEENSA_IiNS7_IiEEEEEEEEEEPNS_11__tree_nodeISH_PvEElEEEdeB7v160006Ev, symObjAddr: 0x17F08, symBinAddr: 0x10001BA04, symSize: 0x28 }
  - { offsetInCU: 0x5366C, offset: 0x5366C, size: 0x8, addend: 0x0, symName: __ZNSt3__120__map_const_iteratorINS_21__tree_const_iteratorINS_12__value_typeIiNS_4pairINS_12basic_stringIcNS_11char_traitsIcEENS_9allocatorIcEEEENS3_INS_6vectorIfNS7_IfEEEENSA_IiNS7_IiEEEEEEEEEEPNS_11__tree_nodeISH_PvEElEEEppB7v160006Ev, symObjAddr: 0x17F30, symBinAddr: 0x10001BA2C, symSize: 0x2C }
  - { offsetInCU: 0x53692, offset: 0x53692, size: 0x8, addend: 0x0, symName: __ZNSt3__16__treeINS_12__value_typeIiNS_4pairINS_12basic_stringIcNS_11char_traitsIcEENS_9allocatorIcEEEENS2_INS_6vectorIfNS6_IfEEEENS9_IiNS6_IiEEEEEEEEEENS_19__map_value_compareIiSG_NS_4lessIiEELb1EEENS6_ISG_EEE15__insert_uniqueB7v160006ENS_21__tree_const_iteratorISG_PNS_11__tree_nodeISG_PvEElEERKNS2_IKiSF_EE, symObjAddr: 0x17FC0, symBinAddr: 0x10001BABC, symSize: 0x64 }
  - { offsetInCU: 0x536D6, offset: 0x536D6, size: 0x8, addend: 0x0, symName: __ZNSt3__16__treeINS_12__value_typeIiNS_4pairINS_12basic_stringIcNS_11char_traitsIcEENS_9allocatorIcEEEENS2_INS_6vectorIfNS6_IfEEEENS9_IiNS6_IiEEEEEEEEEENS_19__map_value_compareIiSG_NS_4lessIiEELb1EEENS6_ISG_EEE30__emplace_hint_unique_key_argsIiJRKNS2_IKiSF_EEEEENS2_INS_15__tree_iteratorISG_PNS_11__tree_nodeISG_PvEElEEbEENS_21__tree_const_iteratorISG_SW_lEERKT_DpOT0_, symObjAddr: 0x18024, symBinAddr: 0x10001BB20, symSize: 0x104 }
  - { offsetInCU: 0x537A2, offset: 0x537A2, size: 0x8, addend: 0x0, symName: __ZNSt3__122__tree_key_value_typesINS_12__value_typeIiNS_4pairINS_12basic_stringIcNS_11char_traitsIcEENS_9allocatorIcEEEENS2_INS_6vectorIfNS6_IfEEEENS9_IiNS6_IiEEEEEEEEEEE9__get_keyB7v160006IKNS2_IKiSF_EEEENS_9enable_ifIXsr17__is_same_uncvrefIT_SK_EE5valueERSJ_E4typeERSN_, symObjAddr: 0x18128, symBinAddr: 0x10001BC24, symSize: 0x14 }
  - { offsetInCU: 0x537CF, offset: 0x537CF, size: 0x8, addend: 0x0, symName: __ZNSt3__16__treeINS_12__value_typeIiNS_4pairINS_12basic_stringIcNS_11char_traitsIcEENS_9allocatorIcEEEENS2_INS_6vectorIfNS6_IfEEEENS9_IiNS6_IiEEEEEEEEEENS_19__map_value_compareIiSG_NS_4lessIiEELb1EEENS6_ISG_EEE12__find_equalIiEERPNS_16__tree_node_baseIPvEENS_21__tree_const_iteratorISG_PNS_11__tree_nodeISG_SP_EElEERPNS_15__tree_end_nodeISR_EESS_RKT_, symObjAddr: 0x1813C, symBinAddr: 0x10001BC38, symSize: 0x304 }
  - { offsetInCU: 0x53878, offset: 0x53878, size: 0x8, addend: 0x0, symName: __ZNSt3__16__treeINS_12__value_typeIiNS_4pairINS_12basic_stringIcNS_11char_traitsIcEENS_9allocatorIcEEEENS2_INS_6vectorIfNS6_IfEEEENS9_IiNS6_IiEEEEEEEEEENS_19__map_value_compareIiSG_NS_4lessIiEELb1EEENS6_ISG_EEE16__construct_nodeIJRKNS2_IKiSF_EEEEENS_10unique_ptrINS_11__tree_nodeISG_PvEENS_22__tree_node_destructorINS6_ISV_EEEEEEDpOT_, symObjAddr: 0x18440, symBinAddr: 0x10001BF3C, symSize: 0x110 }
  - { offsetInCU: 0x538D9, offset: 0x538D9, size: 0x8, addend: 0x0, symName: __ZNSt3__16__treeINS_12__value_typeIiNS_4pairINS_12basic_stringIcNS_11char_traitsIcEENS_9allocatorIcEEEENS2_INS_6vectorIfNS6_IfEEEENS9_IiNS6_IiEEEEEEEEEENS_19__map_value_compareIiSG_NS_4lessIiEELb1EEENS6_ISG_EEE3endB7v160006Ev, symObjAddr: 0x18550, symBinAddr: 0x10001C04C, symSize: 0x34 }
  - { offsetInCU: 0x538FF, offset: 0x538FF, size: 0x8, addend: 0x0, symName: __ZNSt3__121__tree_const_iteratorINS_12__value_typeIiNS_4pairINS_12basic_stringIcNS_11char_traitsIcEENS_9allocatorIcEEEENS2_INS_6vectorIfNS6_IfEEEENS9_IiNS6_IiEEEEEEEEEEPNS_11__tree_nodeISG_PvEElEC1B7v160006ENS_15__tree_iteratorISG_SK_lEE, symObjAddr: 0x18584, symBinAddr: 0x10001C080, symSize: 0x34 }
  - { offsetInCU: 0x53938, offset: 0x53938, size: 0x8, addend: 0x0, symName: __ZNKSt3__121__tree_const_iteratorINS_12__value_typeIiNS_4pairINS_12basic_stringIcNS_11char_traitsIcEENS_9allocatorIcEEEENS2_INS_6vectorIfNS6_IfEEEENS9_IiNS6_IiEEEEEEEEEEPNS_11__tree_nodeISG_PvEElEdeB7v160006Ev, symObjAddr: 0x185B8, symBinAddr: 0x10001C0B4, symSize: 0x28 }
  - { offsetInCU: 0x5395E, offset: 0x5395E, size: 0x8, addend: 0x0, symName: __ZNSt3__16__treeINS_12__value_typeIiNS_4pairINS_12basic_stringIcNS_11char_traitsIcEENS_9allocatorIcEEEENS2_INS_6vectorIfNS6_IfEEEENS9_IiNS6_IiEEEEEEEEEENS_19__map_value_compareIiSG_NS_4lessIiEELb1EEENS6_ISG_EEE5beginB7v160006Ev, symObjAddr: 0x185E0, symBinAddr: 0x10001C0DC, symSize: 0x34 }
  - { offsetInCU: 0x53984, offset: 0x53984, size: 0x8, addend: 0x0, symName: __ZNSt3__121__tree_const_iteratorINS_12__value_typeIiNS_4pairINS_12basic_stringIcNS_11char_traitsIcEENS_9allocatorIcEEEENS2_INS_6vectorIfNS6_IfEEEENS9_IiNS6_IiEEEEEEEEEEPNS_11__tree_nodeISG_PvEElEmmB7v160006Ev, symObjAddr: 0x18614, symBinAddr: 0x10001C110, symSize: 0x38 }
  - { offsetInCU: 0x539AA, offset: 0x539AA, size: 0x8, addend: 0x0, symName: __ZNKSt3__121__tree_const_iteratorINS_12__value_typeIiNS_4pairINS_12basic_stringIcNS_11char_traitsIcEENS_9allocatorIcEEEENS2_INS_6vectorIfNS6_IfEEEENS9_IiNS6_IiEEEEEEEEEEPNS_11__tree_nodeISG_PvEElE8__get_npB7v160006Ev, symObjAddr: 0x1869C, symBinAddr: 0x10001C198, symSize: 0x18 }
  - { offsetInCU: 0x539D0, offset: 0x539D0, size: 0x8, addend: 0x0, symName: __ZNSt3__115__tree_iteratorINS_12__value_typeIiNS_4pairINS_12basic_stringIcNS_11char_traitsIcEENS_9allocatorIcEEEENS2_INS_6vectorIfNS6_IfEEEENS9_IiNS6_IiEEEEEEEEEEPNS_11__tree_nodeISG_PvEElEC1B7v160006EPNS_15__tree_end_nodeIPNS_16__tree_node_baseISI_EEEE, symObjAddr: 0x186B4, symBinAddr: 0x10001C1B0, symSize: 0x34 }
  - { offsetInCU: 0x53A09, offset: 0x53A09, size: 0x8, addend: 0x0, symName: __ZNSt3__115__tree_iteratorINS_12__value_typeIiNS_4pairINS_12basic_stringIcNS_11char_traitsIcEENS_9allocatorIcEEEENS2_INS_6vectorIfNS6_IfEEEENS9_IiNS6_IiEEEEEEEEEEPNS_11__tree_nodeISG_PvEElEC2B7v160006EPNS_15__tree_end_nodeIPNS_16__tree_node_baseISI_EEEE, symObjAddr: 0x186E8, symBinAddr: 0x10001C1E4, symSize: 0x20 }
  - { offsetInCU: 0x53A42, offset: 0x53A42, size: 0x8, addend: 0x0, symName: __ZNSt3__121__tree_const_iteratorINS_12__value_typeIiNS_4pairINS_12basic_stringIcNS_11char_traitsIcEENS_9allocatorIcEEEENS2_INS_6vectorIfNS6_IfEEEENS9_IiNS6_IiEEEEEEEEEEPNS_11__tree_nodeISG_PvEElEC2B7v160006ENS_15__tree_iteratorISG_SK_lEE, symObjAddr: 0x18708, symBinAddr: 0x10001C204, symSize: 0x20 }
  - { offsetInCU: 0x53A7B, offset: 0x53A7B, size: 0x8, addend: 0x0, symName: __ZNSt3__121__tree_const_iteratorINS_12__value_typeIiNS_4pairINS_12basic_stringIcNS_11char_traitsIcEENS_9allocatorIcEEEENS2_INS_6vectorIfNS6_IfEEEENS9_IiNS6_IiEEEEEEEEEEPNS_11__tree_nodeISG_PvEElEppB7v160006Ev, symObjAddr: 0x188F8, symBinAddr: 0x10001C3F4, symSize: 0x38 }
  - { offsetInCU: 0x53AA1, offset: 0x53AA1, size: 0x8, addend: 0x0, symName: __ZNSt3__116allocator_traitsINS_9allocatorINS_11__tree_nodeINS_12__value_typeIiNS_4pairINS_12basic_stringIcNS_11char_traitsIcEENS1_IcEEEENS4_INS_6vectorIfNS1_IfEEEENSA_IiNS1_IiEEEEEEEEEEPvEEEEE9constructB7v160006INS4_IKiSG_EEJRKSO_EvEEvRSK_PT_DpOT0_, symObjAddr: 0x189F0, symBinAddr: 0x10001C4EC, symSize: 0x34 }
  - { offsetInCU: 0x53AF8, offset: 0x53AF8, size: 0x8, addend: 0x0, symName: __ZNSt3__19allocatorINS_11__tree_nodeINS_12__value_typeIiNS_4pairINS_12basic_stringIcNS_11char_traitsIcEENS0_IcEEEENS3_INS_6vectorIfNS0_IfEEEENS9_IiNS0_IiEEEEEEEEEEPvEEE9constructB7v160006INS3_IKiSF_EEJRKSM_EEEvPT_DpOT0_, symObjAddr: 0x18A24, symBinAddr: 0x10001C520, symSize: 0x30 }
  - { offsetInCU: 0x53B4E, offset: 0x53B4E, size: 0x8, addend: 0x0, symName: __ZNSt3__14pairIKiNS0_INS_12basic_stringIcNS_11char_traitsIcEENS_9allocatorIcEEEENS0_INS_6vectorIfNS5_IfEEEENS8_IiNS5_IiEEEEEEEEEC1ERKSF_, symObjAddr: 0x18A54, symBinAddr: 0x10001C550, symSize: 0x34 }
  - { offsetInCU: 0x53B83, offset: 0x53B83, size: 0x8, addend: 0x0, symName: __ZNSt3__14pairIKiNS0_INS_12basic_stringIcNS_11char_traitsIcEENS_9allocatorIcEEEENS0_INS_6vectorIfNS5_IfEEEENS8_IiNS5_IiEEEEEEEEEC2ERKSF_, symObjAddr: 0x18A88, symBinAddr: 0x10001C584, symSize: 0x48 }
  - { offsetInCU: 0x53BB8, offset: 0x53BB8, size: 0x8, addend: 0x0, symName: __ZNSt3__14pairINS_12basic_stringIcNS_11char_traitsIcEENS_9allocatorIcEEEENS0_INS_6vectorIfNS4_IfEEEENS7_IiNS4_IiEEEEEEEC1ERKSD_, symObjAddr: 0x18AD0, symBinAddr: 0x10001C5CC, symSize: 0x34 }
  - { offsetInCU: 0x53BED, offset: 0x53BED, size: 0x8, addend: 0x0, symName: __ZNSt3__14pairINS_12basic_stringIcNS_11char_traitsIcEENS_9allocatorIcEEEENS0_INS_6vectorIfNS4_IfEEEENS7_IiNS4_IiEEEEEEEC2ERKSD_, symObjAddr: 0x18B04, symBinAddr: 0x10001C600, symSize: 0x70 }
  - { offsetInCU: 0x53C22, offset: 0x53C22, size: 0x8, addend: 0x0, symName: __ZNSt3__14pairINS_6vectorIfNS_9allocatorIfEEEENS1_IiNS2_IiEEEEEC1ERKS7_, symObjAddr: 0x18B74, symBinAddr: 0x10001C670, symSize: 0x34 }
  - { offsetInCU: 0x53C57, offset: 0x53C57, size: 0x8, addend: 0x0, symName: __ZNSt3__14pairINS_6vectorIfNS_9allocatorIfEEEENS1_IiNS2_IiEEEEEC2ERKS7_, symObjAddr: 0x18BA8, symBinAddr: 0x10001C6A4, symSize: 0x70 }
  - { offsetInCU: 0x53C8C, offset: 0x53C8C, size: 0x8, addend: 0x0, symName: __ZNSt3__120__map_const_iteratorINS_21__tree_const_iteratorINS_12__value_typeIiNS_4pairINS_12basic_stringIcNS_11char_traitsIcEENS_9allocatorIcEEEENS3_INS_6vectorIfNS7_IfEEEENSA_IiNS7_IiEEEEEEEEEEPNS_11__tree_nodeISH_PvEElEEEC2B7v160006ESM_, symObjAddr: 0x18C18, symBinAddr: 0x10001C714, symSize: 0x20 }
  - { offsetInCU: 0x53CC5, offset: 0x53CC5, size: 0x8, addend: 0x0, symName: __ZNKSt3__121__tree_const_iteratorINS_12__value_typeIiNS_4pairINS_12basic_stringIcNS_11char_traitsIcEENS_9allocatorIcEEEENS2_INS_6vectorIfNS6_IfEEEENS9_IiNS6_IiEEEEEEEEEEPNS_11__tree_nodeISG_PvEElEptB7v160006Ev, symObjAddr: 0x18C38, symBinAddr: 0x10001C734, symSize: 0x2C }
  - { offsetInCU: 0x53CEB, offset: 0x53CEB, size: 0x8, addend: 0x0, symName: __ZNSt3__114pointer_traitsIPKNS_12__value_typeIiNS_4pairINS_12basic_stringIcNS_11char_traitsIcEENS_9allocatorIcEEEENS2_INS_6vectorIfNS6_IfEEEENS9_IiNS6_IiEEEEEEEEEEE10pointer_toB7v160006ERSH_, symObjAddr: 0x18C64, symBinAddr: 0x10001C760, symSize: 0x14 }
  - { offsetInCU: 0x53D0E, offset: 0x53D0E, size: 0x8, addend: 0x0, symName: __ZNKSt3__16__treeINS_12__value_typeIiNS_4pairINS_12basic_stringIcNS_11char_traitsIcEENS_9allocatorIcEEEENS2_INS_6vectorIfNS6_IfEEEENS9_IiNS6_IiEEEEEEEEEENS_19__map_value_compareIiSG_NS_4lessIiEELb1EEENS6_ISG_EEE5beginB7v160006Ev, symObjAddr: 0x18C78, symBinAddr: 0x10001C774, symSize: 0x34 }
  - { offsetInCU: 0x53D34, offset: 0x53D34, size: 0x8, addend: 0x0, symName: __ZNKSt3__16__treeINS_12__value_typeIiNS_4pairINS_12basic_stringIcNS_11char_traitsIcEENS_9allocatorIcEEEENS2_INS_6vectorIfNS6_IfEEEENS9_IiNS6_IiEEEEEEEEEENS_19__map_value_compareIiSG_NS_4lessIiEELb1EEENS6_ISG_EEE12__begin_nodeB7v160006Ev, symObjAddr: 0x18CAC, symBinAddr: 0x10001C7A8, symSize: 0x14 }
  - { offsetInCU: 0x53D5A, offset: 0x53D5A, size: 0x8, addend: 0x0, symName: __ZNSt3__121__tree_const_iteratorINS_12__value_typeIiNS_4pairINS_12basic_stringIcNS_11char_traitsIcEENS_9allocatorIcEEEENS2_INS_6vectorIfNS6_IfEEEENS9_IiNS6_IiEEEEEEEEEEPNS_11__tree_nodeISG_PvEElEC1B7v160006EPNS_15__tree_end_nodeIPNS_16__tree_node_baseISI_EEEE, symObjAddr: 0x18CC0, symBinAddr: 0x10001C7BC, symSize: 0x34 }
  - { offsetInCU: 0x53D93, offset: 0x53D93, size: 0x8, addend: 0x0, symName: __ZNSt3__121__tree_const_iteratorINS_12__value_typeIiNS_4pairINS_12basic_stringIcNS_11char_traitsIcEENS_9allocatorIcEEEENS2_INS_6vectorIfNS6_IfEEEENS9_IiNS6_IiEEEEEEEEEEPNS_11__tree_nodeISG_PvEElEC2B7v160006EPNS_15__tree_end_nodeIPNS_16__tree_node_baseISI_EEEE, symObjAddr: 0x18CF4, symBinAddr: 0x10001C7F0, symSize: 0x20 }
  - { offsetInCU: 0x53DCC, offset: 0x53DCC, size: 0x8, addend: 0x0, symName: __ZNKSt3__16__treeINS_12__value_typeIiNS_4pairINS_12basic_stringIcNS_11char_traitsIcEENS_9allocatorIcEEEENS2_INS_6vectorIfNS6_IfEEEENS9_IiNS6_IiEEEEEEEEEENS_19__map_value_compareIiSG_NS_4lessIiEELb1EEENS6_ISG_EEE3endB7v160006Ev, symObjAddr: 0x18D14, symBinAddr: 0x10001C810, symSize: 0x34 }
  - { offsetInCU: 0x53DF2, offset: 0x53DF2, size: 0x8, addend: 0x0, symName: __ZNSt3__16__treeINS_12__value_typeIiNS_4pairINS_12basic_stringIcNS_11char_traitsIcEENS_9allocatorIcEEEENS2_INS_6vectorIfNS6_IfEEEENS9_IiNS6_IiEEEEEEEEEENS_19__map_value_compareIiSG_NS_4lessIiEELb1EEENS6_ISG_EEED2Ev, symObjAddr: 0x18D48, symBinAddr: 0x10001C844, symSize: 0x38 }
  - { offsetInCU: 0x53E1E, offset: 0x53E1E, size: 0x8, addend: 0x0, symName: __ZNSt3__16__treeINS_12__value_typeIiNS_4pairINS_12basic_stringIcNS_11char_traitsIcEENS_9allocatorIcEEEENS2_INS_6vectorIfNS6_IfEEEENS9_IiNS6_IiEEEEEEEEEENS_19__map_value_compareIiSG_NS_4lessIiEELb1EEENS6_ISG_EEE7destroyEPNS_11__tree_nodeISG_PvEE, symObjAddr: 0x18D80, symBinAddr: 0x10001C87C, symSize: 0xA8 }
  - { offsetInCU: 0x53E6A, offset: 0x53E6A, size: 0x8, addend: 0x0, symName: __ZN4Game5EnemyC2EOS0_, symObjAddr: 0x18E28, symBinAddr: 0x10001C924, symSize: 0x4C }
  - { offsetInCU: 0x53E9F, offset: 0x53E9F, size: 0x8, addend: 0x0, symName: __ZNSt3__13mapIiNS_4pairINS_6vectorINS_12basic_stringIcNS_11char_traitsIcEENS_9allocatorIcEEEENS6_IS8_EEEENS1_INS2_IiNS6_IiEEEENS2_IfNS6_IfEEEEEEEENS_4lessIiEENS6_INS1_IKiSG_EEEEEC1B7v160006ERKSM_, symObjAddr: 0x18E74, symBinAddr: 0x10001C970, symSize: 0x34 }
  - { offsetInCU: 0x53ED8, offset: 0x53ED8, size: 0x8, addend: 0x0, symName: __ZNSt3__13mapIiNS_4pairINS_6vectorINS_12basic_stringIcNS_11char_traitsIcEENS_9allocatorIcEEEENS6_IS8_EEEENS1_INS2_IiNS6_IiEEEENS2_IfNS6_IfEEEEEEEENS_4lessIiEENS6_INS1_IKiSG_EEEEEC2B7v160006ERKSM_, symObjAddr: 0x18EA8, symBinAddr: 0x10001C9A4, symSize: 0x88 }
  - { offsetInCU: 0x53F11, offset: 0x53F11, size: 0x8, addend: 0x0, symName: __ZNSt3__16__treeINS_12__value_typeIiNS_4pairINS_6vectorINS_12basic_stringIcNS_11char_traitsIcEENS_9allocatorIcEEEENS7_IS9_EEEENS2_INS3_IiNS7_IiEEEENS3_IfNS7_IfEEEEEEEEEENS_19__map_value_compareIiSI_NS_4lessIiEELb1EEENS7_ISI_EEEC1ERKSO_, symObjAddr: 0x18F30, symBinAddr: 0x10001CA2C, symSize: 0x34 }
  - { offsetInCU: 0x53F4C, offset: 0x53F4C, size: 0x8, addend: 0x0, symName: __ZNSt3__13mapIiNS_4pairINS_6vectorINS_12basic_stringIcNS_11char_traitsIcEENS_9allocatorIcEEEENS6_IS8_EEEENS1_INS2_IiNS6_IiEEEENS2_IfNS6_IfEEEEEEEENS_4lessIiEENS6_INS1_IKiSG_EEEEE6insertB7v160006INS_20__map_const_iteratorINS_21__tree_const_iteratorINS_12__value_typeIiSG_EEPNS_11__tree_nodeISR_PvEElEEEEEEvT_SY_, symObjAddr: 0x18F64, symBinAddr: 0x10001CA60, symSize: 0x8C }
  - { offsetInCU: 0x53FB6, offset: 0x53FB6, size: 0x8, addend: 0x0, symName: __ZNKSt3__13mapIiNS_4pairINS_6vectorINS_12basic_stringIcNS_11char_traitsIcEENS_9allocatorIcEEEENS6_IS8_EEEENS1_INS2_IiNS6_IiEEEENS2_IfNS6_IfEEEEEEEENS_4lessIiEENS6_INS1_IKiSG_EEEEE5beginB7v160006Ev, symObjAddr: 0x18FF0, symBinAddr: 0x10001CAEC, symSize: 0x38 }
  - { offsetInCU: 0x53FDC, offset: 0x53FDC, size: 0x8, addend: 0x0, symName: __ZNKSt3__13mapIiNS_4pairINS_6vectorINS_12basic_stringIcNS_11char_traitsIcEENS_9allocatorIcEEEENS6_IS8_EEEENS1_INS2_IiNS6_IiEEEENS2_IfNS6_IfEEEEEEEENS_4lessIiEENS6_INS1_IKiSG_EEEEE3endB7v160006Ev, symObjAddr: 0x19028, symBinAddr: 0x10001CB24, symSize: 0x38 }
  - { offsetInCU: 0x54002, offset: 0x54002, size: 0x8, addend: 0x0, symName: __ZNSt3__16__treeINS_12__value_typeIiNS_4pairINS_6vectorINS_12basic_stringIcNS_11char_traitsIcEENS_9allocatorIcEEEENS7_IS9_EEEENS2_INS3_IiNS7_IiEEEENS3_IfNS7_IfEEEEEEEEEENS_19__map_value_compareIiSI_NS_4lessIiEELb1EEENS7_ISI_EEED1Ev, symObjAddr: 0x19060, symBinAddr: 0x10001CB5C, symSize: 0x2C }
  - { offsetInCU: 0x5402E, offset: 0x5402E, size: 0x8, addend: 0x0, symName: __ZNSt3__16__treeINS_12__value_typeIiNS_4pairINS_6vectorINS_12basic_stringIcNS_11char_traitsIcEENS_9allocatorIcEEEENS7_IS9_EEEENS2_INS3_IiNS7_IiEEEENS3_IfNS7_IfEEEEEEEEEENS_19__map_value_compareIiSI_NS_4lessIiEELb1EEENS7_ISI_EEEC2ERKSO_, symObjAddr: 0x1908C, symBinAddr: 0x10001CB88, symSize: 0x9C }
  - { offsetInCU: 0x54069, offset: 0x54069, size: 0x8, addend: 0x0, symName: __ZNSt3__116allocator_traitsINS_9allocatorINS_11__tree_nodeINS_12__value_typeIiNS_4pairINS_6vectorINS_12basic_stringIcNS_11char_traitsIcEENS1_IcEEEENS1_ISA_EEEENS4_INS5_IiNS1_IiEEEENS5_IfNS1_IfEEEEEEEEEEPvEEEEE37select_on_container_copy_constructionB7v160006ISM_vvEESM_RKSM_, symObjAddr: 0x19128, symBinAddr: 0x10001CC24, symSize: 0x10 }
  - { offsetInCU: 0x54098, offset: 0x54098, size: 0x8, addend: 0x0, symName: __ZNKSt3__16__treeINS_12__value_typeIiNS_4pairINS_6vectorINS_12basic_stringIcNS_11char_traitsIcEENS_9allocatorIcEEEENS7_IS9_EEEENS2_INS3_IiNS7_IiEEEENS3_IfNS7_IfEEEEEEEEEENS_19__map_value_compareIiSI_NS_4lessIiEELb1EEENS7_ISI_EEE12__node_allocB7v160006Ev, symObjAddr: 0x19138, symBinAddr: 0x10001CC34, symSize: 0x28 }
  - { offsetInCU: 0x540C4, offset: 0x540C4, size: 0x8, addend: 0x0, symName: __ZNSt3__117__compressed_pairINS_15__tree_end_nodeIPNS_16__tree_node_baseIPvEEEENS_9allocatorINS_11__tree_nodeINS_12__value_typeIiNS_4pairINS_6vectorINS_12basic_stringIcNS_11char_traitsIcEENS7_IcEEEENS7_ISG_EEEENSA_INSB_IiNS7_IiEEEENSB_IfNS7_IfEEEEEEEEEES3_EEEEEC1B7v160006INS_18__default_init_tagESR_EEOT_OT0_, symObjAddr: 0x19160, symBinAddr: 0x10001CC5C, symSize: 0x3C }
  - { offsetInCU: 0x5411C, offset: 0x5411C, size: 0x8, addend: 0x0, symName: __ZNKSt3__16__treeINS_12__value_typeIiNS_4pairINS_6vectorINS_12basic_stringIcNS_11char_traitsIcEENS_9allocatorIcEEEENS7_IS9_EEEENS2_INS3_IiNS7_IiEEEENS3_IfNS7_IfEEEEEEEEEENS_19__map_value_compareIiSI_NS_4lessIiEELb1EEENS7_ISI_EEE10value_compB7v160006Ev, symObjAddr: 0x1919C, symBinAddr: 0x10001CC98, symSize: 0x28 }
  - { offsetInCU: 0x54142, offset: 0x54142, size: 0x8, addend: 0x0, symName: __ZNSt3__117__compressed_pairImNS_19__map_value_compareIiNS_12__value_typeIiNS_4pairINS_6vectorINS_12basic_stringIcNS_11char_traitsIcEENS_9allocatorIcEEEENS8_ISA_EEEENS3_INS4_IiNS8_IiEEEENS4_IfNS8_IfEEEEEEEEEENS_4lessIiEELb1EEEEC1B7v160006IiRKSM_EEOT_OT0_, symObjAddr: 0x191C4, symBinAddr: 0x10001CCC0, symSize: 0x3C }
  - { offsetInCU: 0x5419A, offset: 0x5419A, size: 0x8, addend: 0x0, symName: __ZNKSt3__117__compressed_pairINS_15__tree_end_nodeIPNS_16__tree_node_baseIPvEEEENS_9allocatorINS_11__tree_nodeINS_12__value_typeIiNS_4pairINS_6vectorINS_12basic_stringIcNS_11char_traitsIcEENS7_IcEEEENS7_ISG_EEEENSA_INSB_IiNS7_IiEEEENSB_IfNS7_IfEEEEEEEEEES3_EEEEE6secondB7v160006Ev, symObjAddr: 0x19200, symBinAddr: 0x10001CCFC, symSize: 0x24 }
  - { offsetInCU: 0x541C0, offset: 0x541C0, size: 0x8, addend: 0x0, symName: __ZNKSt3__122__compressed_pair_elemINS_9allocatorINS_11__tree_nodeINS_12__value_typeIiNS_4pairINS_6vectorINS_12basic_stringIcNS_11char_traitsIcEENS1_IcEEEENS1_ISA_EEEENS4_INS5_IiNS1_IiEEEENS5_IfNS1_IfEEEEEEEEEEPvEEEELi1ELb1EE5__getB7v160006Ev, symObjAddr: 0x19224, symBinAddr: 0x10001CD20, symSize: 0x14 }
  - { offsetInCU: 0x541E6, offset: 0x541E6, size: 0x8, addend: 0x0, symName: __ZNSt3__117__compressed_pairINS_15__tree_end_nodeIPNS_16__tree_node_baseIPvEEEENS_9allocatorINS_11__tree_nodeINS_12__value_typeIiNS_4pairINS_6vectorINS_12basic_stringIcNS_11char_traitsIcEENS7_IcEEEENS7_ISG_EEEENSA_INSB_IiNS7_IiEEEENSB_IfNS7_IfEEEEEEEEEES3_EEEEEC2B7v160006INS_18__default_init_tagESR_EEOT_OT0_, symObjAddr: 0x19238, symBinAddr: 0x10001CD34, symSize: 0x40 }
  - { offsetInCU: 0x5423E, offset: 0x5423E, size: 0x8, addend: 0x0, symName: __ZNSt3__122__compressed_pair_elemINS_9allocatorINS_11__tree_nodeINS_12__value_typeIiNS_4pairINS_6vectorINS_12basic_stringIcNS_11char_traitsIcEENS1_IcEEEENS1_ISA_EEEENS4_INS5_IiNS1_IiEEEENS5_IfNS1_IfEEEEEEEEEEPvEEEELi1ELb1EEC2B7v160006ISM_vEEOT_, symObjAddr: 0x19278, symBinAddr: 0x10001CD74, symSize: 0x18 }
  - { offsetInCU: 0x54280, offset: 0x54280, size: 0x8, addend: 0x0, symName: __ZNKSt3__117__compressed_pairImNS_19__map_value_compareIiNS_12__value_typeIiNS_4pairINS_6vectorINS_12basic_stringIcNS_11char_traitsIcEENS_9allocatorIcEEEENS8_ISA_EEEENS3_INS4_IiNS8_IiEEEENS4_IfNS8_IfEEEEEEEEEENS_4lessIiEELb1EEEE6secondB7v160006Ev, symObjAddr: 0x19290, symBinAddr: 0x10001CD8C, symSize: 0x24 }
  - { offsetInCU: 0x542A6, offset: 0x542A6, size: 0x8, addend: 0x0, symName: __ZNKSt3__122__compressed_pair_elemINS_19__map_value_compareIiNS_12__value_typeIiNS_4pairINS_6vectorINS_12basic_stringIcNS_11char_traitsIcEENS_9allocatorIcEEEENS8_ISA_EEEENS3_INS4_IiNS8_IiEEEENS4_IfNS8_IfEEEEEEEEEENS_4lessIiEELb1EEELi1ELb1EE5__getB7v160006Ev, symObjAddr: 0x192B4, symBinAddr: 0x10001CDB0, symSize: 0x14 }
  - { offsetInCU: 0x542CC, offset: 0x542CC, size: 0x8, addend: 0x0, symName: __ZNSt3__117__compressed_pairImNS_19__map_value_compareIiNS_12__value_typeIiNS_4pairINS_6vectorINS_12basic_stringIcNS_11char_traitsIcEENS_9allocatorIcEEEENS8_ISA_EEEENS3_INS4_IiNS8_IiEEEENS4_IfNS8_IfEEEEEEEEEENS_4lessIiEELb1EEEEC2B7v160006IiRKSM_EEOT_OT0_, symObjAddr: 0x192C8, symBinAddr: 0x10001CDC4, symSize: 0x44 }
  - { offsetInCU: 0x54324, offset: 0x54324, size: 0x8, addend: 0x0, symName: __ZNSt3__122__compressed_pair_elemINS_19__map_value_compareIiNS_12__value_typeIiNS_4pairINS_6vectorINS_12basic_stringIcNS_11char_traitsIcEENS_9allocatorIcEEEENS8_ISA_EEEENS3_INS4_IiNS8_IiEEEENS4_IfNS8_IfEEEEEEEEEENS_4lessIiEELb1EEELi1ELb1EEC2B7v160006IRKSM_vEEOT_, symObjAddr: 0x1930C, symBinAddr: 0x10001CE08, symSize: 0x18 }
  - { offsetInCU: 0x54366, offset: 0x54366, size: 0x8, addend: 0x0, symName: __ZNKSt3__13mapIiNS_4pairINS_6vectorINS_12basic_stringIcNS_11char_traitsIcEENS_9allocatorIcEEEENS6_IS8_EEEENS1_INS2_IiNS6_IiEEEENS2_IfNS6_IfEEEEEEEENS_4lessIiEENS6_INS1_IKiSG_EEEEE4cendB7v160006Ev, symObjAddr: 0x19324, symBinAddr: 0x10001CE20, symSize: 0x2C }
  - { offsetInCU: 0x5438C, offset: 0x5438C, size: 0x8, addend: 0x0, symName: __ZNSt3__13mapIiNS_4pairINS_6vectorINS_12basic_stringIcNS_11char_traitsIcEENS_9allocatorIcEEEENS6_IS8_EEEENS1_INS2_IiNS6_IiEEEENS2_IfNS6_IfEEEEEEEENS_4lessIiEENS6_INS1_IKiSG_EEEEE6insertB7v160006ENS_20__map_const_iteratorINS_21__tree_const_iteratorINS_12__value_typeIiSG_EEPNS_11__tree_nodeISQ_PvEElEEEERKSK_, symObjAddr: 0x19380, symBinAddr: 0x10001CE7C, symSize: 0x50 }
  - { offsetInCU: 0x543D0, offset: 0x543D0, size: 0x8, addend: 0x0, symName: __ZNSt3__120__map_const_iteratorINS_21__tree_const_iteratorINS_12__value_typeIiNS_4pairINS_6vectorINS_12basic_stringIcNS_11char_traitsIcEENS_9allocatorIcEEEENS8_ISA_EEEENS3_INS4_IiNS8_IiEEEENS4_IfNS8_IfEEEEEEEEEEPNS_11__tree_nodeISJ_PvEElEEEC1B7v160006ESO_, symObjAddr: 0x193D0, symBinAddr: 0x10001CECC, symSize: 0x34 }
  - { offsetInCU: 0x54409, offset: 0x54409, size: 0x8, addend: 0x0, symName: __ZNKSt3__120__map_const_iteratorINS_21__tree_const_iteratorINS_12__value_typeIiNS_4pairINS_6vectorINS_12basic_stringIcNS_11char_traitsIcEENS_9allocatorIcEEEENS8_ISA_EEEENS3_INS4_IiNS8_IiEEEENS4_IfNS8_IfEEEEEEEEEEPNS_11__tree_nodeISJ_PvEElEEEdeB7v160006Ev, symObjAddr: 0x19404, symBinAddr: 0x10001CF00, symSize: 0x28 }
  - { offsetInCU: 0x5442F, offset: 0x5442F, size: 0x8, addend: 0x0, symName: __ZNSt3__120__map_const_iteratorINS_21__tree_const_iteratorINS_12__value_typeIiNS_4pairINS_6vectorINS_12basic_stringIcNS_11char_traitsIcEENS_9allocatorIcEEEENS8_ISA_EEEENS3_INS4_IiNS8_IiEEEENS4_IfNS8_IfEEEEEEEEEEPNS_11__tree_nodeISJ_PvEElEEEppB7v160006Ev, symObjAddr: 0x1942C, symBinAddr: 0x10001CF28, symSize: 0x2C }
  - { offsetInCU: 0x54455, offset: 0x54455, size: 0x8, addend: 0x0, symName: __ZNSt3__16__treeINS_12__value_typeIiNS_4pairINS_6vectorINS_12basic_stringIcNS_11char_traitsIcEENS_9allocatorIcEEEENS7_IS9_EEEENS2_INS3_IiNS7_IiEEEENS3_IfNS7_IfEEEEEEEEEENS_19__map_value_compareIiSI_NS_4lessIiEELb1EEENS7_ISI_EEE15__insert_uniqueB7v160006ENS_21__tree_const_iteratorISI_PNS_11__tree_nodeISI_PvEElEERKNS2_IKiSH_EE, symObjAddr: 0x194BC, symBinAddr: 0x10001CFB8, symSize: 0x64 }
  - { offsetInCU: 0x54499, offset: 0x54499, size: 0x8, addend: 0x0, symName: __ZNSt3__16__treeINS_12__value_typeIiNS_4pairINS_6vectorINS_12basic_stringIcNS_11char_traitsIcEENS_9allocatorIcEEEENS7_IS9_EEEENS2_INS3_IiNS7_IiEEEENS3_IfNS7_IfEEEEEEEEEENS_19__map_value_compareIiSI_NS_4lessIiEELb1EEENS7_ISI_EEE30__emplace_hint_unique_key_argsIiJRKNS2_IKiSH_EEEEENS2_INS_15__tree_iteratorISI_PNS_11__tree_nodeISI_PvEElEEbEENS_21__tree_const_iteratorISI_SY_lEERKT_DpOT0_, symObjAddr: 0x19520, symBinAddr: 0x10001D01C, symSize: 0x104 }
  - { offsetInCU: 0x54565, offset: 0x54565, size: 0x8, addend: 0x0, symName: __ZNSt3__122__tree_key_value_typesINS_12__value_typeIiNS_4pairINS_6vectorINS_12basic_stringIcNS_11char_traitsIcEENS_9allocatorIcEEEENS7_IS9_EEEENS2_INS3_IiNS7_IiEEEENS3_IfNS7_IfEEEEEEEEEEE9__get_keyB7v160006IKNS2_IKiSH_EEEENS_9enable_ifIXsr17__is_same_uncvrefIT_SM_EE5valueERSL_E4typeERSP_, symObjAddr: 0x19624, symBinAddr: 0x10001D120, symSize: 0x14 }
  - { offsetInCU: 0x54592, offset: 0x54592, size: 0x8, addend: 0x0, symName: __ZNSt3__16__treeINS_12__value_typeIiNS_4pairINS_6vectorINS_12basic_stringIcNS_11char_traitsIcEENS_9allocatorIcEEEENS7_IS9_EEEENS2_INS3_IiNS7_IiEEEENS3_IfNS7_IfEEEEEEEEEENS_19__map_value_compareIiSI_NS_4lessIiEELb1EEENS7_ISI_EEE12__find_equalIiEERPNS_16__tree_node_baseIPvEENS_21__tree_const_iteratorISI_PNS_11__tree_nodeISI_SR_EElEERPNS_15__tree_end_nodeIST_EESU_RKT_, symObjAddr: 0x19638, symBinAddr: 0x10001D134, symSize: 0x304 }
  - { offsetInCU: 0x5463B, offset: 0x5463B, size: 0x8, addend: 0x0, symName: __ZNSt3__16__treeINS_12__value_typeIiNS_4pairINS_6vectorINS_12basic_stringIcNS_11char_traitsIcEENS_9allocatorIcEEEENS7_IS9_EEEENS2_INS3_IiNS7_IiEEEENS3_IfNS7_IfEEEEEEEEEENS_19__map_value_compareIiSI_NS_4lessIiEELb1EEENS7_ISI_EEE16__construct_nodeIJRKNS2_IKiSH_EEEEENS_10unique_ptrINS_11__tree_nodeISI_PvEENS_22__tree_node_destructorINS7_ISX_EEEEEEDpOT_, symObjAddr: 0x1993C, symBinAddr: 0x10001D438, symSize: 0x110 }
  - { offsetInCU: 0x5469C, offset: 0x5469C, size: 0x8, addend: 0x0, symName: __ZNSt3__16__treeINS_12__value_typeIiNS_4pairINS_6vectorINS_12basic_stringIcNS_11char_traitsIcEENS_9allocatorIcEEEENS7_IS9_EEEENS2_INS3_IiNS7_IiEEEENS3_IfNS7_IfEEEEEEEEEENS_19__map_value_compareIiSI_NS_4lessIiEELb1EEENS7_ISI_EEE3endB7v160006Ev, symObjAddr: 0x19A4C, symBinAddr: 0x10001D548, symSize: 0x34 }
  - { offsetInCU: 0x546C2, offset: 0x546C2, size: 0x8, addend: 0x0, symName: __ZNSt3__121__tree_const_iteratorINS_12__value_typeIiNS_4pairINS_6vectorINS_12basic_stringIcNS_11char_traitsIcEENS_9allocatorIcEEEENS7_IS9_EEEENS2_INS3_IiNS7_IiEEEENS3_IfNS7_IfEEEEEEEEEEPNS_11__tree_nodeISI_PvEElEC1B7v160006ENS_15__tree_iteratorISI_SM_lEE, symObjAddr: 0x19A80, symBinAddr: 0x10001D57C, symSize: 0x34 }
  - { offsetInCU: 0x546FB, offset: 0x546FB, size: 0x8, addend: 0x0, symName: __ZNKSt3__121__tree_const_iteratorINS_12__value_typeIiNS_4pairINS_6vectorINS_12basic_stringIcNS_11char_traitsIcEENS_9allocatorIcEEEENS7_IS9_EEEENS2_INS3_IiNS7_IiEEEENS3_IfNS7_IfEEEEEEEEEEPNS_11__tree_nodeISI_PvEElEdeB7v160006Ev, symObjAddr: 0x19AB4, symBinAddr: 0x10001D5B0, symSize: 0x28 }
  - { offsetInCU: 0x54721, offset: 0x54721, size: 0x8, addend: 0x0, symName: __ZNSt3__16__treeINS_12__value_typeIiNS_4pairINS_6vectorINS_12basic_stringIcNS_11char_traitsIcEENS_9allocatorIcEEEENS7_IS9_EEEENS2_INS3_IiNS7_IiEEEENS3_IfNS7_IfEEEEEEEEEENS_19__map_value_compareIiSI_NS_4lessIiEELb1EEENS7_ISI_EEE5beginB7v160006Ev, symObjAddr: 0x19ADC, symBinAddr: 0x10001D5D8, symSize: 0x34 }
  - { offsetInCU: 0x54747, offset: 0x54747, size: 0x8, addend: 0x0, symName: __ZNSt3__121__tree_const_iteratorINS_12__value_typeIiNS_4pairINS_6vectorINS_12basic_stringIcNS_11char_traitsIcEENS_9allocatorIcEEEENS7_IS9_EEEENS2_INS3_IiNS7_IiEEEENS3_IfNS7_IfEEEEEEEEEEPNS_11__tree_nodeISI_PvEElEmmB7v160006Ev, symObjAddr: 0x19B10, symBinAddr: 0x10001D60C, symSize: 0x38 }
  - { offsetInCU: 0x5476D, offset: 0x5476D, size: 0x8, addend: 0x0, symName: __ZNKSt3__121__tree_const_iteratorINS_12__value_typeIiNS_4pairINS_6vectorINS_12basic_stringIcNS_11char_traitsIcEENS_9allocatorIcEEEENS7_IS9_EEEENS2_INS3_IiNS7_IiEEEENS3_IfNS7_IfEEEEEEEEEEPNS_11__tree_nodeISI_PvEElE8__get_npB7v160006Ev, symObjAddr: 0x19B98, symBinAddr: 0x10001D694, symSize: 0x18 }
  - { offsetInCU: 0x54793, offset: 0x54793, size: 0x8, addend: 0x0, symName: __ZNSt3__115__tree_iteratorINS_12__value_typeIiNS_4pairINS_6vectorINS_12basic_stringIcNS_11char_traitsIcEENS_9allocatorIcEEEENS7_IS9_EEEENS2_INS3_IiNS7_IiEEEENS3_IfNS7_IfEEEEEEEEEEPNS_11__tree_nodeISI_PvEElEC1B7v160006EPNS_15__tree_end_nodeIPNS_16__tree_node_baseISK_EEEE, symObjAddr: 0x19BB0, symBinAddr: 0x10001D6AC, symSize: 0x34 }
  - { offsetInCU: 0x547CC, offset: 0x547CC, size: 0x8, addend: 0x0, symName: __ZNSt3__115__tree_iteratorINS_12__value_typeIiNS_4pairINS_6vectorINS_12basic_stringIcNS_11char_traitsIcEENS_9allocatorIcEEEENS7_IS9_EEEENS2_INS3_IiNS7_IiEEEENS3_IfNS7_IfEEEEEEEEEEPNS_11__tree_nodeISI_PvEElEC2B7v160006EPNS_15__tree_end_nodeIPNS_16__tree_node_baseISK_EEEE, symObjAddr: 0x19BE4, symBinAddr: 0x10001D6E0, symSize: 0x20 }
  - { offsetInCU: 0x54805, offset: 0x54805, size: 0x8, addend: 0x0, symName: __ZNSt3__121__tree_const_iteratorINS_12__value_typeIiNS_4pairINS_6vectorINS_12basic_stringIcNS_11char_traitsIcEENS_9allocatorIcEEEENS7_IS9_EEEENS2_INS3_IiNS7_IiEEEENS3_IfNS7_IfEEEEEEEEEEPNS_11__tree_nodeISI_PvEElEC2B7v160006ENS_15__tree_iteratorISI_SM_lEE, symObjAddr: 0x19C04, symBinAddr: 0x10001D700, symSize: 0x20 }
  - { offsetInCU: 0x5483E, offset: 0x5483E, size: 0x8, addend: 0x0, symName: __ZNSt3__121__tree_const_iteratorINS_12__value_typeIiNS_4pairINS_6vectorINS_12basic_stringIcNS_11char_traitsIcEENS_9allocatorIcEEEENS7_IS9_EEEENS2_INS3_IiNS7_IiEEEENS3_IfNS7_IfEEEEEEEEEEPNS_11__tree_nodeISI_PvEElEppB7v160006Ev, symObjAddr: 0x19D18, symBinAddr: 0x10001D814, symSize: 0x38 }
  - { offsetInCU: 0x54864, offset: 0x54864, size: 0x8, addend: 0x0, symName: __ZNSt3__116allocator_traitsINS_9allocatorINS_11__tree_nodeINS_12__value_typeIiNS_4pairINS_6vectorINS_12basic_stringIcNS_11char_traitsIcEENS1_IcEEEENS1_ISA_EEEENS4_INS5_IiNS1_IiEEEENS5_IfNS1_IfEEEEEEEEEEPvEEEEE9constructB7v160006INS4_IKiSI_EEJRKSQ_EvEEvRSM_PT_DpOT0_, symObjAddr: 0x19D50, symBinAddr: 0x10001D84C, symSize: 0x34 }
  - { offsetInCU: 0x548BB, offset: 0x548BB, size: 0x8, addend: 0x0, symName: __ZNSt3__19allocatorINS_11__tree_nodeINS_12__value_typeIiNS_4pairINS_6vectorINS_12basic_stringIcNS_11char_traitsIcEENS0_IcEEEENS0_IS9_EEEENS3_INS4_IiNS0_IiEEEENS4_IfNS0_IfEEEEEEEEEEPvEEE9constructB7v160006INS3_IKiSH_EEJRKSO_EEEvPT_DpOT0_, symObjAddr: 0x19D84, symBinAddr: 0x10001D880, symSize: 0x30 }
  - { offsetInCU: 0x54911, offset: 0x54911, size: 0x8, addend: 0x0, symName: __ZNSt3__14pairIKiNS0_INS_6vectorINS_12basic_stringIcNS_11char_traitsIcEENS_9allocatorIcEEEENS6_IS8_EEEENS0_INS2_IiNS6_IiEEEENS2_IfNS6_IfEEEEEEEEEC1ERKSH_, symObjAddr: 0x19DB4, symBinAddr: 0x10001D8B0, symSize: 0x34 }
  - { offsetInCU: 0x54946, offset: 0x54946, size: 0x8, addend: 0x0, symName: __ZNSt3__14pairIKiNS0_INS_6vectorINS_12basic_stringIcNS_11char_traitsIcEENS_9allocatorIcEEEENS6_IS8_EEEENS0_INS2_IiNS6_IiEEEENS2_IfNS6_IfEEEEEEEEEC2ERKSH_, symObjAddr: 0x19DE8, symBinAddr: 0x10001D8E4, symSize: 0x48 }
  - { offsetInCU: 0x5497B, offset: 0x5497B, size: 0x8, addend: 0x0, symName: __ZNSt3__14pairINS_6vectorINS_12basic_stringIcNS_11char_traitsIcEENS_9allocatorIcEEEENS5_IS7_EEEENS0_INS1_IiNS5_IiEEEENS1_IfNS5_IfEEEEEEEC1ERKSF_, symObjAddr: 0x19E30, symBinAddr: 0x10001D92C, symSize: 0x34 }
  - { offsetInCU: 0x549B0, offset: 0x549B0, size: 0x8, addend: 0x0, symName: __ZNSt3__14pairINS_6vectorINS_12basic_stringIcNS_11char_traitsIcEENS_9allocatorIcEEEENS5_IS7_EEEENS0_INS1_IiNS5_IiEEEENS1_IfNS5_IfEEEEEEEC2ERKSF_, symObjAddr: 0x19E64, symBinAddr: 0x10001D960, symSize: 0x70 }
  - { offsetInCU: 0x549E5, offset: 0x549E5, size: 0x8, addend: 0x0, symName: __ZNSt3__16vectorINS_12basic_stringIcNS_11char_traitsIcEENS_9allocatorIcEEEENS4_IS6_EEEC1ERKS8_, symObjAddr: 0x19ED4, symBinAddr: 0x10001D9D0, symSize: 0x34 }
  - { offsetInCU: 0x54A20, offset: 0x54A20, size: 0x8, addend: 0x0, symName: __ZNSt3__14pairINS_6vectorIiNS_9allocatorIiEEEENS1_IfNS2_IfEEEEEC1ERKS7_, symObjAddr: 0x19F08, symBinAddr: 0x10001DA04, symSize: 0x34 }
  - { offsetInCU: 0x54A55, offset: 0x54A55, size: 0x8, addend: 0x0, symName: __ZNSt3__16vectorINS_12basic_stringIcNS_11char_traitsIcEENS_9allocatorIcEEEENS4_IS6_EEEC2ERKS8_, symObjAddr: 0x19F3C, symBinAddr: 0x10001DA38, symSize: 0x110 }
  - { offsetInCU: 0x54ABF, offset: 0x54ABF, size: 0x8, addend: 0x0, symName: __ZNSt3__116allocator_traitsINS_9allocatorINS_12basic_stringIcNS_11char_traitsIcEENS1_IcEEEEEEE37select_on_container_copy_constructionB7v160006IS7_vvEES7_RKS7_, symObjAddr: 0x1A04C, symBinAddr: 0x10001DB48, symSize: 0x10 }
  - { offsetInCU: 0x54AEE, offset: 0x54AEE, size: 0x8, addend: 0x0, symName: __ZNKSt3__16vectorINS_12basic_stringIcNS_11char_traitsIcEENS_9allocatorIcEEEENS4_IS6_EEE7__allocB7v160006Ev, symObjAddr: 0x1A05C, symBinAddr: 0x10001DB58, symSize: 0x28 }
  - { offsetInCU: 0x54B14, offset: 0x54B14, size: 0x8, addend: 0x0, symName: __ZNSt3__16vectorINS_12basic_stringIcNS_11char_traitsIcEENS_9allocatorIcEEEENS4_IS6_EEE16__destroy_vectorC1ERS8_, symObjAddr: 0x1A0C4, symBinAddr: 0x10001DBC0, symSize: 0x34 }
  - { offsetInCU: 0x54B4D, offset: 0x54B4D, size: 0x8, addend: 0x0, symName: __ZNKSt3__16vectorINS_12basic_stringIcNS_11char_traitsIcEENS_9allocatorIcEEEENS4_IS6_EEE4sizeB7v160006Ev, symObjAddr: 0x1A0F8, symBinAddr: 0x10001DBF4, symSize: 0x28 }
  - { offsetInCU: 0x54B73, offset: 0x54B73, size: 0x8, addend: 0x0, symName: __ZNSt3__16vectorINS_12basic_stringIcNS_11char_traitsIcEENS_9allocatorIcEEEENS4_IS6_EEE11__vallocateB7v160006Em, symObjAddr: 0x1A120, symBinAddr: 0x10001DC1C, symSize: 0xB4 }
  - { offsetInCU: 0x54BB7, offset: 0x54BB7, size: 0x8, addend: 0x0, symName: __ZNSt3__16vectorINS_12basic_stringIcNS_11char_traitsIcEENS_9allocatorIcEEEENS4_IS6_EEE18__construct_at_endIPS6_Li0EEEvT_SB_m, symObjAddr: 0x1A1D4, symBinAddr: 0x10001DCD0, symSize: 0x8C }
  - { offsetInCU: 0x54C2A, offset: 0x54C2A, size: 0x8, addend: 0x0, symName: __ZNSt3__128__exception_guard_exceptionsINS_6vectorINS_12basic_stringIcNS_11char_traitsIcEENS_9allocatorIcEEEENS5_IS7_EEE16__destroy_vectorEE10__completeB7v160006Ev, symObjAddr: 0x1A260, symBinAddr: 0x10001DD5C, symSize: 0x1C }
  - { offsetInCU: 0x54C50, offset: 0x54C50, size: 0x8, addend: 0x0, symName: __ZNSt3__128__exception_guard_exceptionsINS_6vectorINS_12basic_stringIcNS_11char_traitsIcEENS_9allocatorIcEEEENS5_IS7_EEE16__destroy_vectorEED1B7v160006Ev, symObjAddr: 0x1A27C, symBinAddr: 0x10001DD78, symSize: 0x2C }
  - { offsetInCU: 0x54C7A, offset: 0x54C7A, size: 0x8, addend: 0x0, symName: __ZNKSt3__117__compressed_pairIPNS_12basic_stringIcNS_11char_traitsIcEENS_9allocatorIcEEEENS4_IS6_EEE6secondB7v160006Ev, symObjAddr: 0x1A2A8, symBinAddr: 0x10001DDA4, symSize: 0x24 }
  - { offsetInCU: 0x54CA0, offset: 0x54CA0, size: 0x8, addend: 0x0, symName: __ZNKSt3__122__compressed_pair_elemINS_9allocatorINS_12basic_stringIcNS_11char_traitsIcEENS1_IcEEEEEELi1ELb1EE5__getB7v160006Ev, symObjAddr: 0x1A2CC, symBinAddr: 0x10001DDC8, symSize: 0x14 }
  - { offsetInCU: 0x54CC6, offset: 0x54CC6, size: 0x8, addend: 0x0, symName: __ZNSt3__128__exception_guard_exceptionsINS_6vectorINS_12basic_stringIcNS_11char_traitsIcEENS_9allocatorIcEEEENS5_IS7_EEE16__destroy_vectorEEC1B7v160006ESA_, symObjAddr: 0x1A2E0, symBinAddr: 0x10001DDDC, symSize: 0x34 }
  - { offsetInCU: 0x54CFE, offset: 0x54CFE, size: 0x8, addend: 0x0, symName: __ZNSt3__128__exception_guard_exceptionsINS_6vectorINS_12basic_stringIcNS_11char_traitsIcEENS_9allocatorIcEEEENS5_IS7_EEE16__destroy_vectorEEC2B7v160006ESA_, symObjAddr: 0x1A314, symBinAddr: 0x10001DE10, symSize: 0x24 }
  - { offsetInCU: 0x54D36, offset: 0x54D36, size: 0x8, addend: 0x0, symName: __ZNSt3__16vectorINS_12basic_stringIcNS_11char_traitsIcEENS_9allocatorIcEEEENS4_IS6_EEE16__destroy_vectorC2ERS8_, symObjAddr: 0x1A338, symBinAddr: 0x10001DE34, symSize: 0x20 }
  - { offsetInCU: 0x54D6F, offset: 0x54D6F, size: 0x8, addend: 0x0, symName: __ZNKSt3__16vectorINS_12basic_stringIcNS_11char_traitsIcEENS_9allocatorIcEEEENS4_IS6_EEE8max_sizeEv, symObjAddr: 0x1A358, symBinAddr: 0x10001DE54, symSize: 0x60 }
  - { offsetInCU: 0x54D97, offset: 0x54D97, size: 0x8, addend: 0x0, symName: __ZNKSt3__16vectorINS_12basic_stringIcNS_11char_traitsIcEENS_9allocatorIcEEEENS4_IS6_EEE20__throw_length_errorB7v160006Ev, symObjAddr: 0x1A3B8, symBinAddr: 0x10001DEB4, symSize: 0x1C }
  - { offsetInCU: 0x54DBD, offset: 0x54DBD, size: 0x8, addend: 0x0, symName: __ZNKSt3__16vectorINS_12basic_stringIcNS_11char_traitsIcEENS_9allocatorIcEEEENS4_IS6_EEE14__annotate_newB7v160006Em, symObjAddr: 0x1A414, symBinAddr: 0x10001DF10, symSize: 0xC8 }
  - { offsetInCU: 0x54DF2, offset: 0x54DF2, size: 0x8, addend: 0x0, symName: __ZNSt3__116allocator_traitsINS_9allocatorINS_12basic_stringIcNS_11char_traitsIcEENS1_IcEEEEEEE8max_sizeB7v160006IS7_vEEmRKS7_, symObjAddr: 0x1A508, symBinAddr: 0x10001E004, symSize: 0x24 }
  - { offsetInCU: 0x54E20, offset: 0x54E20, size: 0x8, addend: 0x0, symName: __ZNSt3__114numeric_limitsIlE3maxB7v160006Ev, symObjAddr: 0x1A52C, symBinAddr: 0x10001E028, symSize: 0x14 }
  - { offsetInCU: 0x54E3F, offset: 0x54E3F, size: 0x8, addend: 0x0, symName: __ZNKSt3__16__lessImmEclB7v160006ERKmS3_, symObjAddr: 0x1A594, symBinAddr: 0x10001E090, symSize: 0x34 }
  - { offsetInCU: 0x54E81, offset: 0x54E81, size: 0x8, addend: 0x0, symName: __ZNKSt3__19allocatorINS_12basic_stringIcNS_11char_traitsIcEENS0_IcEEEEE8max_sizeB7v160006Ev, symObjAddr: 0x1A5C8, symBinAddr: 0x10001E0C4, symSize: 0x18 }
  - { offsetInCU: 0x54EA7, offset: 0x54EA7, size: 0x8, addend: 0x0, symName: __ZNSt3__123__libcpp_numeric_limitsIlLb1EE3maxB7v160006Ev, symObjAddr: 0x1A5E0, symBinAddr: 0x10001E0DC, symSize: 0x8 }
  - { offsetInCU: 0x54EBB, offset: 0x54EBB, size: 0x8, addend: 0x0, symName: __ZNSt12length_errorC1B7v160006EPKc, symObjAddr: 0x1A64C, symBinAddr: 0x10001E148, symSize: 0x34 }
  - { offsetInCU: 0x54EF3, offset: 0x54EF3, size: 0x8, addend: 0x0, symName: __ZNSt12length_errorC2B7v160006EPKc, symObjAddr: 0x1A680, symBinAddr: 0x10001E17C, symSize: 0x4C }
  - { offsetInCU: 0x54F2B, offset: 0x54F2B, size: 0x8, addend: 0x0, symName: __ZNSt3__19allocatorINS_12basic_stringIcNS_11char_traitsIcEENS0_IcEEEEE8allocateB7v160006Em, symObjAddr: 0x1A6CC, symBinAddr: 0x10001E1C8, symSize: 0x5C }
  - { offsetInCU: 0x54F5F, offset: 0x54F5F, size: 0x8, addend: 0x0, symName: __ZNKSt3__16vectorINS_12basic_stringIcNS_11char_traitsIcEENS_9allocatorIcEEEENS4_IS6_EEE31__annotate_contiguous_containerB7v160006EPKvSA_SA_SA_, symObjAddr: 0x1A728, symBinAddr: 0x10001E224, symSize: 0x20 }
  - { offsetInCU: 0x54FB5, offset: 0x54FB5, size: 0x8, addend: 0x0, symName: __ZNKSt3__16vectorINS_12basic_stringIcNS_11char_traitsIcEENS_9allocatorIcEEEENS4_IS6_EEE4dataB7v160006Ev, symObjAddr: 0x1A748, symBinAddr: 0x10001E244, symSize: 0x28 }
  - { offsetInCU: 0x54FDB, offset: 0x54FDB, size: 0x8, addend: 0x0, symName: __ZNKSt3__16vectorINS_12basic_stringIcNS_11char_traitsIcEENS_9allocatorIcEEEENS4_IS6_EEE8capacityB7v160006Ev, symObjAddr: 0x1A770, symBinAddr: 0x10001E26C, symSize: 0x40 }
  - { offsetInCU: 0x55001, offset: 0x55001, size: 0x8, addend: 0x0, symName: __ZNKSt3__16vectorINS_12basic_stringIcNS_11char_traitsIcEENS_9allocatorIcEEEENS4_IS6_EEE9__end_capB7v160006Ev, symObjAddr: 0x1A7C4, symBinAddr: 0x10001E2C0, symSize: 0x28 }
  - { offsetInCU: 0x55027, offset: 0x55027, size: 0x8, addend: 0x0, symName: __ZNKSt3__117__compressed_pairIPNS_12basic_stringIcNS_11char_traitsIcEENS_9allocatorIcEEEENS4_IS6_EEE5firstB7v160006Ev, symObjAddr: 0x1A7EC, symBinAddr: 0x10001E2E8, symSize: 0x24 }
  - { offsetInCU: 0x5504D, offset: 0x5504D, size: 0x8, addend: 0x0, symName: __ZNKSt3__122__compressed_pair_elemIPNS_12basic_stringIcNS_11char_traitsIcEENS_9allocatorIcEEEELi0ELb0EE5__getB7v160006Ev, symObjAddr: 0x1A810, symBinAddr: 0x10001E30C, symSize: 0x14 }
  - { offsetInCU: 0x5508F, offset: 0x5508F, size: 0x8, addend: 0x0, symName: __ZNSt3__16vectorINS_12basic_stringIcNS_11char_traitsIcEENS_9allocatorIcEEEENS4_IS6_EEE21_ConstructTransactionC1B7v160006ERS8_m, symObjAddr: 0x1A824, symBinAddr: 0x10001E320, symSize: 0x3C }
  - { offsetInCU: 0x550D7, offset: 0x550D7, size: 0x8, addend: 0x0, symName: __ZNSt3__16vectorINS_12basic_stringIcNS_11char_traitsIcEENS_9allocatorIcEEEENS4_IS6_EEE21_ConstructTransactionD1B7v160006Ev, symObjAddr: 0x1A954, symBinAddr: 0x10001E450, symSize: 0x2C }
  - { offsetInCU: 0x55101, offset: 0x55101, size: 0x8, addend: 0x0, symName: __ZNSt3__16vectorINS_12basic_stringIcNS_11char_traitsIcEENS_9allocatorIcEEEENS4_IS6_EEE21_ConstructTransactionC2B7v160006ERS8_m, symObjAddr: 0x1A980, symBinAddr: 0x10001E47C, symSize: 0x4C }
  - { offsetInCU: 0x55149, offset: 0x55149, size: 0x8, addend: 0x0, symName: __ZNSt3__129_AllocatorDestroyRangeReverseINS_9allocatorINS_12basic_stringIcNS_11char_traitsIcEENS1_IcEEEEEEPS6_EC1B7v160006ERS7_RS8_SB_, symObjAddr: 0x1AA18, symBinAddr: 0x10001E514, symSize: 0x44 }
  - { offsetInCU: 0x551A0, offset: 0x551A0, size: 0x8, addend: 0x0, symName: __ZNSt3__116allocator_traitsINS_9allocatorINS_12basic_stringIcNS_11char_traitsIcEENS1_IcEEEEEEE9constructB7v160006IS6_JRS6_EvEEvRS7_PT_DpOT0_, symObjAddr: 0x1AA5C, symBinAddr: 0x10001E558, symSize: 0x34 }
  - { offsetInCU: 0x551F7, offset: 0x551F7, size: 0x8, addend: 0x0, symName: __ZNSt3__128__exception_guard_exceptionsINS_29_AllocatorDestroyRangeReverseINS_9allocatorINS_12basic_stringIcNS_11char_traitsIcEENS2_IcEEEEEEPS7_EEE10__completeB7v160006Ev, symObjAddr: 0x1AA90, symBinAddr: 0x10001E58C, symSize: 0x1C }
  - { offsetInCU: 0x5521D, offset: 0x5521D, size: 0x8, addend: 0x0, symName: __ZNSt3__128__exception_guard_exceptionsINS_29_AllocatorDestroyRangeReverseINS_9allocatorINS_12basic_stringIcNS_11char_traitsIcEENS2_IcEEEEEEPS7_EEED1B7v160006Ev, symObjAddr: 0x1AAAC, symBinAddr: 0x10001E5A8, symSize: 0x2C }
  - { offsetInCU: 0x55247, offset: 0x55247, size: 0x8, addend: 0x0, symName: __ZNSt3__128__exception_guard_exceptionsINS_29_AllocatorDestroyRangeReverseINS_9allocatorINS_12basic_stringIcNS_11char_traitsIcEENS2_IcEEEEEEPS7_EEEC1B7v160006ESA_, symObjAddr: 0x1AAD8, symBinAddr: 0x10001E5D4, symSize: 0x34 }
  - { offsetInCU: 0x55280, offset: 0x55280, size: 0x8, addend: 0x0, symName: __ZNSt3__128__exception_guard_exceptionsINS_29_AllocatorDestroyRangeReverseINS_9allocatorINS_12basic_stringIcNS_11char_traitsIcEENS2_IcEEEEEEPS7_EEEC2B7v160006ESA_, symObjAddr: 0x1AB0C, symBinAddr: 0x10001E608, symSize: 0x30 }
  - { offsetInCU: 0x552B9, offset: 0x552B9, size: 0x8, addend: 0x0, symName: __ZNSt3__129_AllocatorDestroyRangeReverseINS_9allocatorINS_12basic_stringIcNS_11char_traitsIcEENS1_IcEEEEEEPS6_EC2B7v160006ERS7_RS8_SB_, symObjAddr: 0x1AB3C, symBinAddr: 0x10001E638, symSize: 0x38 }
  - { offsetInCU: 0x55310, offset: 0x55310, size: 0x8, addend: 0x0, symName: __ZNSt3__19allocatorINS_12basic_stringIcNS_11char_traitsIcEENS0_IcEEEEE9constructB7v160006IS5_JRS5_EEEvPT_DpOT0_, symObjAddr: 0x1AB74, symBinAddr: 0x10001E670, symSize: 0x30 }
  - { offsetInCU: 0x55366, offset: 0x55366, size: 0x8, addend: 0x0, symName: __ZNSt3__128__exception_guard_exceptionsINS_29_AllocatorDestroyRangeReverseINS_9allocatorINS_12basic_stringIcNS_11char_traitsIcEENS2_IcEEEEEEPS7_EEED2B7v160006Ev, symObjAddr: 0x1ABA4, symBinAddr: 0x10001E6A0, symSize: 0x50 }
  - { offsetInCU: 0x55390, offset: 0x55390, size: 0x8, addend: 0x0, symName: __ZNKSt3__129_AllocatorDestroyRangeReverseINS_9allocatorINS_12basic_stringIcNS_11char_traitsIcEENS1_IcEEEEEEPS6_EclB7v160006Ev, symObjAddr: 0x1ABF4, symBinAddr: 0x10001E6F0, symSize: 0x68 }
  - { offsetInCU: 0x553B6, offset: 0x553B6, size: 0x8, addend: 0x0, symName: __ZNSt3__116reverse_iteratorIPNS_12basic_stringIcNS_11char_traitsIcEENS_9allocatorIcEEEEEC1B7v160006ES7_, symObjAddr: 0x1ACCC, symBinAddr: 0x10001E7C8, symSize: 0x34 }
  - { offsetInCU: 0x553EE, offset: 0x553EE, size: 0x8, addend: 0x0, symName: __ZNSt3__116allocator_traitsINS_9allocatorINS_12basic_stringIcNS_11char_traitsIcEENS1_IcEEEEEEE7destroyB7v160006IS6_vEEvRS7_PT_, symObjAddr: 0x1AD48, symBinAddr: 0x10001E844, symSize: 0x2C }
  - { offsetInCU: 0x5542B, offset: 0x5542B, size: 0x8, addend: 0x0, symName: __ZNSt3__116reverse_iteratorIPNS_12basic_stringIcNS_11char_traitsIcEENS_9allocatorIcEEEEEppB7v160006Ev, symObjAddr: 0x1AD98, symBinAddr: 0x10001E894, symSize: 0x20 }
  - { offsetInCU: 0x55451, offset: 0x55451, size: 0x8, addend: 0x0, symName: __ZNKSt3__116reverse_iteratorIPNS_12basic_stringIcNS_11char_traitsIcEENS_9allocatorIcEEEEE4baseB7v160006Ev, symObjAddr: 0x1ADB8, symBinAddr: 0x10001E8B4, symSize: 0x18 }
  - { offsetInCU: 0x55477, offset: 0x55477, size: 0x8, addend: 0x0, symName: __ZNSt3__19allocatorINS_12basic_stringIcNS_11char_traitsIcEENS0_IcEEEEE7destroyB7v160006EPS5_, symObjAddr: 0x1ADD0, symBinAddr: 0x10001E8CC, symSize: 0x28 }
  - { offsetInCU: 0x554B1, offset: 0x554B1, size: 0x8, addend: 0x0, symName: __ZNSt3__119__to_address_helperINS_16reverse_iteratorIPNS_12basic_stringIcNS_11char_traitsIcEENS_9allocatorIcEEEEEEvE6__callB7v160006ERKS9_, symObjAddr: 0x1ADF8, symBinAddr: 0x10001E8F4, symSize: 0x38 }
  - { offsetInCU: 0x554D4, offset: 0x554D4, size: 0x8, addend: 0x0, symName: __ZNKSt3__116reverse_iteratorIPNS_12basic_stringIcNS_11char_traitsIcEENS_9allocatorIcEEEEEptB7v160006Ev, symObjAddr: 0x1AE30, symBinAddr: 0x10001E92C, symSize: 0x24 }
  - { offsetInCU: 0x554FA, offset: 0x554FA, size: 0x8, addend: 0x0, symName: __ZNKSt3__116reverse_iteratorIPNS_12basic_stringIcNS_11char_traitsIcEENS_9allocatorIcEEEEEdeB7v160006Ev, symObjAddr: 0x1AE54, symBinAddr: 0x10001E950, symSize: 0x28 }
  - { offsetInCU: 0x5552E, offset: 0x5552E, size: 0x8, addend: 0x0, symName: __ZNSt3__116reverse_iteratorIPNS_12basic_stringIcNS_11char_traitsIcEENS_9allocatorIcEEEEEC2B7v160006ES7_, symObjAddr: 0x1AE7C, symBinAddr: 0x10001E978, symSize: 0x28 }
  - { offsetInCU: 0x55566, offset: 0x55566, size: 0x8, addend: 0x0, symName: __ZNSt3__16vectorINS_12basic_stringIcNS_11char_traitsIcEENS_9allocatorIcEEEENS4_IS6_EEE21_ConstructTransactionD2B7v160006Ev, symObjAddr: 0x1AEA4, symBinAddr: 0x10001E9A0, symSize: 0x20 }
  - { offsetInCU: 0x55590, offset: 0x55590, size: 0x8, addend: 0x0, symName: __ZNSt3__128__exception_guard_exceptionsINS_6vectorINS_12basic_stringIcNS_11char_traitsIcEENS_9allocatorIcEEEENS5_IS7_EEE16__destroy_vectorEED2B7v160006Ev, symObjAddr: 0x1AEC4, symBinAddr: 0x10001E9C0, symSize: 0x50 }
  - { offsetInCU: 0x555BA, offset: 0x555BA, size: 0x8, addend: 0x0, symName: __ZNSt3__16vectorINS_12basic_stringIcNS_11char_traitsIcEENS_9allocatorIcEEEENS4_IS6_EEE16__destroy_vectorclB7v160006Ev, symObjAddr: 0x1AF14, symBinAddr: 0x10001EA10, symSize: 0x9C }
  - { offsetInCU: 0x555E0, offset: 0x555E0, size: 0x8, addend: 0x0, symName: __ZNKSt3__16vectorINS_12basic_stringIcNS_11char_traitsIcEENS_9allocatorIcEEEENS4_IS6_EEE17__annotate_deleteB7v160006Ev, symObjAddr: 0x1AFB0, symBinAddr: 0x10001EAAC, symSize: 0xD4 }
  - { offsetInCU: 0x55606, offset: 0x55606, size: 0x8, addend: 0x0, symName: __ZNSt3__16vectorINS_12basic_stringIcNS_11char_traitsIcEENS_9allocatorIcEEEENS4_IS6_EEE7__clearB7v160006Ev, symObjAddr: 0x1B094, symBinAddr: 0x10001EB90, symSize: 0x28 }
  - { offsetInCU: 0x5562C, offset: 0x5562C, size: 0x8, addend: 0x0, symName: __ZNSt3__116allocator_traitsINS_9allocatorINS_12basic_stringIcNS_11char_traitsIcEENS1_IcEEEEEEE10deallocateB7v160006ERS7_PS6_m, symObjAddr: 0x1B0BC, symBinAddr: 0x10001EBB8, symSize: 0x34 }
  - { offsetInCU: 0x5566E, offset: 0x5566E, size: 0x8, addend: 0x0, symName: __ZNSt3__16vectorINS_12basic_stringIcNS_11char_traitsIcEENS_9allocatorIcEEEENS4_IS6_EEE22__base_destruct_at_endB7v160006EPS6_, symObjAddr: 0x1B0F0, symBinAddr: 0x10001EBEC, symSize: 0x8C }
  - { offsetInCU: 0x556B2, offset: 0x556B2, size: 0x8, addend: 0x0, symName: __ZNSt3__19allocatorINS_12basic_stringIcNS_11char_traitsIcEENS0_IcEEEEE10deallocateB7v160006EPS5_m, symObjAddr: 0x1B17C, symBinAddr: 0x10001EC78, symSize: 0x44 }
  - { offsetInCU: 0x556F4, offset: 0x556F4, size: 0x8, addend: 0x0, symName: __ZNSt3__14pairINS_6vectorIiNS_9allocatorIiEEEENS1_IfNS2_IfEEEEEC2ERKS7_, symObjAddr: 0x1B1C0, symBinAddr: 0x10001ECBC, symSize: 0x70 }
  - { offsetInCU: 0x55729, offset: 0x55729, size: 0x8, addend: 0x0, symName: __ZNSt3__120__map_const_iteratorINS_21__tree_const_iteratorINS_12__value_typeIiNS_4pairINS_6vectorINS_12basic_stringIcNS_11char_traitsIcEENS_9allocatorIcEEEENS8_ISA_EEEENS3_INS4_IiNS8_IiEEEENS4_IfNS8_IfEEEEEEEEEEPNS_11__tree_nodeISJ_PvEElEEEC2B7v160006ESO_, symObjAddr: 0x1B230, symBinAddr: 0x10001ED2C, symSize: 0x20 }
  - { offsetInCU: 0x55762, offset: 0x55762, size: 0x8, addend: 0x0, symName: __ZNKSt3__121__tree_const_iteratorINS_12__value_typeIiNS_4pairINS_6vectorINS_12basic_stringIcNS_11char_traitsIcEENS_9allocatorIcEEEENS7_IS9_EEEENS2_INS3_IiNS7_IiEEEENS3_IfNS7_IfEEEEEEEEEEPNS_11__tree_nodeISI_PvEElEptB7v160006Ev, symObjAddr: 0x1B250, symBinAddr: 0x10001ED4C, symSize: 0x2C }
  - { offsetInCU: 0x55788, offset: 0x55788, size: 0x8, addend: 0x0, symName: __ZNSt3__114pointer_traitsIPKNS_12__value_typeIiNS_4pairINS_6vectorINS_12basic_stringIcNS_11char_traitsIcEENS_9allocatorIcEEEENS7_IS9_EEEENS2_INS3_IiNS7_IiEEEENS3_IfNS7_IfEEEEEEEEEEE10pointer_toB7v160006ERSJ_, symObjAddr: 0x1B27C, symBinAddr: 0x10001ED78, symSize: 0x14 }
  - { offsetInCU: 0x557AB, offset: 0x557AB, size: 0x8, addend: 0x0, symName: __ZNKSt3__16__treeINS_12__value_typeIiNS_4pairINS_6vectorINS_12basic_stringIcNS_11char_traitsIcEENS_9allocatorIcEEEENS7_IS9_EEEENS2_INS3_IiNS7_IiEEEENS3_IfNS7_IfEEEEEEEEEENS_19__map_value_compareIiSI_NS_4lessIiEELb1EEENS7_ISI_EEE5beginB7v160006Ev, symObjAddr: 0x1B290, symBinAddr: 0x10001ED8C, symSize: 0x34 }
  - { offsetInCU: 0x557D1, offset: 0x557D1, size: 0x8, addend: 0x0, symName: __ZNKSt3__16__treeINS_12__value_typeIiNS_4pairINS_6vectorINS_12basic_stringIcNS_11char_traitsIcEENS_9allocatorIcEEEENS7_IS9_EEEENS2_INS3_IiNS7_IiEEEENS3_IfNS7_IfEEEEEEEEEENS_19__map_value_compareIiSI_NS_4lessIiEELb1EEENS7_ISI_EEE12__begin_nodeB7v160006Ev, symObjAddr: 0x1B2C4, symBinAddr: 0x10001EDC0, symSize: 0x14 }
  - { offsetInCU: 0x557F7, offset: 0x557F7, size: 0x8, addend: 0x0, symName: __ZNSt3__121__tree_const_iteratorINS_12__value_typeIiNS_4pairINS_6vectorINS_12basic_stringIcNS_11char_traitsIcEENS_9allocatorIcEEEENS7_IS9_EEEENS2_INS3_IiNS7_IiEEEENS3_IfNS7_IfEEEEEEEEEEPNS_11__tree_nodeISI_PvEElEC1B7v160006EPNS_15__tree_end_nodeIPNS_16__tree_node_baseISK_EEEE, symObjAddr: 0x1B2D8, symBinAddr: 0x10001EDD4, symSize: 0x34 }
  - { offsetInCU: 0x55830, offset: 0x55830, size: 0x8, addend: 0x0, symName: __ZNSt3__121__tree_const_iteratorINS_12__value_typeIiNS_4pairINS_6vectorINS_12basic_stringIcNS_11char_traitsIcEENS_9allocatorIcEEEENS7_IS9_EEEENS2_INS3_IiNS7_IiEEEENS3_IfNS7_IfEEEEEEEEEEPNS_11__tree_nodeISI_PvEElEC2B7v160006EPNS_15__tree_end_nodeIPNS_16__tree_node_baseISK_EEEE, symObjAddr: 0x1B30C, symBinAddr: 0x10001EE08, symSize: 0x20 }
  - { offsetInCU: 0x55869, offset: 0x55869, size: 0x8, addend: 0x0, symName: __ZNKSt3__16__treeINS_12__value_typeIiNS_4pairINS_6vectorINS_12basic_stringIcNS_11char_traitsIcEENS_9allocatorIcEEEENS7_IS9_EEEENS2_INS3_IiNS7_IiEEEENS3_IfNS7_IfEEEEEEEEEENS_19__map_value_compareIiSI_NS_4lessIiEELb1EEENS7_ISI_EEE3endB7v160006Ev, symObjAddr: 0x1B32C, symBinAddr: 0x10001EE28, symSize: 0x34 }
  - { offsetInCU: 0x5588F, offset: 0x5588F, size: 0x8, addend: 0x0, symName: __ZNSt3__16__treeINS_12__value_typeIiNS_4pairINS_6vectorINS_12basic_stringIcNS_11char_traitsIcEENS_9allocatorIcEEEENS7_IS9_EEEENS2_INS3_IiNS7_IiEEEENS3_IfNS7_IfEEEEEEEEEENS_19__map_value_compareIiSI_NS_4lessIiEELb1EEENS7_ISI_EEED2Ev, symObjAddr: 0x1B360, symBinAddr: 0x10001EE5C, symSize: 0x38 }
  - { offsetInCU: 0x558BB, offset: 0x558BB, size: 0x8, addend: 0x0, symName: __ZNSt3__16__treeINS_12__value_typeIiNS_4pairINS_6vectorINS_12basic_stringIcNS_11char_traitsIcEENS_9allocatorIcEEEENS7_IS9_EEEENS2_INS3_IiNS7_IiEEEENS3_IfNS7_IfEEEEEEEEEENS_19__map_value_compareIiSI_NS_4lessIiEELb1EEENS7_ISI_EEE7destroyEPNS_11__tree_nodeISI_PvEE, symObjAddr: 0x1B398, symBinAddr: 0x10001EE94, symSize: 0xA8 }
  - { offsetInCU: 0x55907, offset: 0x55907, size: 0x8, addend: 0x0, symName: __ZNSt3__14pairIKiNS0_INS_6vectorIiNS_9allocatorIiEEEENS2_IfNS3_IfEEEEEEEC2B7v160006IRiS8_LPv0EEEOT_OT0_, symObjAddr: 0x1B440, symBinAddr: 0x10001EF3C, symSize: 0x48 }
  - { offsetInCU: 0x55965, offset: 0x55965, size: 0x8, addend: 0x0, symName: __ZNSt3__14pairIKiNS0_INS_6vectorIiNS_9allocatorIiEEEENS2_IfNS3_IfEEEEEEED2Ev, symObjAddr: 0x1B488, symBinAddr: 0x10001EF84, symSize: 0x30 }
  - { offsetInCU: 0x55991, offset: 0x55991, size: 0x8, addend: 0x0, symName: __ZN4Game9InventoryC2ERKS0_, symObjAddr: 0x1B4B8, symBinAddr: 0x10001EFB4, symSize: 0x34 }
  - { offsetInCU: 0x559D1, offset: 0x559D1, size: 0x8, addend: 0x0, symName: __ZN4Game6PlayerC2ERKS0_, symObjAddr: 0x1B4EC, symBinAddr: 0x10001EFE8, symSize: 0x88 }
  - { offsetInCU: 0x55A06, offset: 0x55A06, size: 0x8, addend: 0x0, symName: __ZN4Game5EnemyC2ERKS0_, symObjAddr: 0x1B574, symBinAddr: 0x10001F070, symSize: 0x4C }
  - { offsetInCU: 0x55A3B, offset: 0x55A3B, size: 0x8, addend: 0x0, symName: __ZN4Game9InventoryD2Ev, symObjAddr: 0x1B5C0, symBinAddr: 0x10001F0BC, symSize: 0x2C }
  - { offsetInCU: 0x55A67, offset: 0x55A67, size: 0x8, addend: 0x0, symName: __ZN4Game6PlayerD2Ev, symObjAddr: 0x1B5EC, symBinAddr: 0x10001F0E8, symSize: 0x38 }
  - { offsetInCU: 0x55A93, offset: 0x55A93, size: 0x8, addend: 0x0, symName: __ZN4Game9InventoryC2ENSt3__112basic_stringIcNS1_11char_traitsIcEENS1_9allocatorIcEEEES7_NS1_6vectorIfNS5_IfEEEEiiiiiiii, symObjAddr: 0x1B624, symBinAddr: 0x10001F120, symSize: 0x30C }
  - { offsetInCU: 0x55B5A, offset: 0x55B5A, size: 0x8, addend: 0x0, symName: __ZN4Game6PlayerC2Ev, symObjAddr: 0x1B930, symBinAddr: 0x10001F42C, symSize: 0x38 }
  - { offsetInCU: 0x55B8C, offset: 0x55B8C, size: 0x8, addend: 0x0, symName: __ZN4Game6PlayeraSEOS0_, symObjAddr: 0x1B968, symBinAddr: 0x10001F464, symSize: 0x60 }
  - { offsetInCU: 0x55BBD, offset: 0x55BBD, size: 0x8, addend: 0x0, symName: __ZNSt3__13mapIiiNS_4lessIiEENS_9allocatorINS_4pairIKiiEEEEEC1B7v160006ERKS8_, symObjAddr: 0x1B9C8, symBinAddr: 0x10001F4C4, symSize: 0x34 }
  - { offsetInCU: 0x55BF6, offset: 0x55BF6, size: 0x8, addend: 0x0, symName: __ZNSt3__13mapIiiNS_4lessIiEENS_9allocatorINS_4pairIKiiEEEEEC2B7v160006ERKS8_, symObjAddr: 0x1B9FC, symBinAddr: 0x10001F4F8, symSize: 0x88 }
  - { offsetInCU: 0x55C2F, offset: 0x55C2F, size: 0x8, addend: 0x0, symName: __ZNSt3__16__treeINS_12__value_typeIiiEENS_19__map_value_compareIiS2_NS_4lessIiEELb1EEENS_9allocatorIS2_EEEC1ERKS9_, symObjAddr: 0x1BA84, symBinAddr: 0x10001F580, symSize: 0x34 }
  - { offsetInCU: 0x55C6A, offset: 0x55C6A, size: 0x8, addend: 0x0, symName: __ZNSt3__13mapIiiNS_4lessIiEENS_9allocatorINS_4pairIKiiEEEEE6insertB7v160006INS_20__map_const_iteratorINS_21__tree_const_iteratorINS_12__value_typeIiiEEPNS_11__tree_nodeISD_PvEElEEEEEEvT_SK_, symObjAddr: 0x1BAB8, symBinAddr: 0x10001F5B4, symSize: 0x8C }
  - { offsetInCU: 0x55CD4, offset: 0x55CD4, size: 0x8, addend: 0x0, symName: __ZNKSt3__13mapIiiNS_4lessIiEENS_9allocatorINS_4pairIKiiEEEEE5beginB7v160006Ev, symObjAddr: 0x1BB44, symBinAddr: 0x10001F640, symSize: 0x38 }
  - { offsetInCU: 0x55CFA, offset: 0x55CFA, size: 0x8, addend: 0x0, symName: __ZNKSt3__13mapIiiNS_4lessIiEENS_9allocatorINS_4pairIKiiEEEEE3endB7v160006Ev, symObjAddr: 0x1BB7C, symBinAddr: 0x10001F678, symSize: 0x38 }
  - { offsetInCU: 0x55D20, offset: 0x55D20, size: 0x8, addend: 0x0, symName: __ZNSt3__16__treeINS_12__value_typeIiiEENS_19__map_value_compareIiS2_NS_4lessIiEELb1EEENS_9allocatorIS2_EEED1Ev, symObjAddr: 0x1BBB4, symBinAddr: 0x10001F6B0, symSize: 0x2C }
  - { offsetInCU: 0x55D4C, offset: 0x55D4C, size: 0x8, addend: 0x0, symName: __ZNSt3__16__treeINS_12__value_typeIiiEENS_19__map_value_compareIiS2_NS_4lessIiEELb1EEENS_9allocatorIS2_EEEC2ERKS9_, symObjAddr: 0x1BBE0, symBinAddr: 0x10001F6DC, symSize: 0x9C }
  - { offsetInCU: 0x55D87, offset: 0x55D87, size: 0x8, addend: 0x0, symName: __ZNSt3__116allocator_traitsINS_9allocatorINS_11__tree_nodeINS_12__value_typeIiiEEPvEEEEE37select_on_container_copy_constructionB7v160006IS7_vvEES7_RKS7_, symObjAddr: 0x1BC7C, symBinAddr: 0x10001F778, symSize: 0x10 }
  - { offsetInCU: 0x55DB6, offset: 0x55DB6, size: 0x8, addend: 0x0, symName: __ZNKSt3__16__treeINS_12__value_typeIiiEENS_19__map_value_compareIiS2_NS_4lessIiEELb1EEENS_9allocatorIS2_EEE12__node_allocB7v160006Ev, symObjAddr: 0x1BC8C, symBinAddr: 0x10001F788, symSize: 0x28 }
  - { offsetInCU: 0x55DE2, offset: 0x55DE2, size: 0x8, addend: 0x0, symName: __ZNSt3__117__compressed_pairINS_15__tree_end_nodeIPNS_16__tree_node_baseIPvEEEENS_9allocatorINS_11__tree_nodeINS_12__value_typeIiiEES3_EEEEEC1B7v160006INS_18__default_init_tagESC_EEOT_OT0_, symObjAddr: 0x1BCB4, symBinAddr: 0x10001F7B0, symSize: 0x3C }
  - { offsetInCU: 0x55E3A, offset: 0x55E3A, size: 0x8, addend: 0x0, symName: __ZNKSt3__16__treeINS_12__value_typeIiiEENS_19__map_value_compareIiS2_NS_4lessIiEELb1EEENS_9allocatorIS2_EEE10value_compB7v160006Ev, symObjAddr: 0x1BCF0, symBinAddr: 0x10001F7EC, symSize: 0x28 }
  - { offsetInCU: 0x55E60, offset: 0x55E60, size: 0x8, addend: 0x0, symName: __ZNSt3__117__compressed_pairImNS_19__map_value_compareIiNS_12__value_typeIiiEENS_4lessIiEELb1EEEEC1B7v160006IiRKS6_EEOT_OT0_, symObjAddr: 0x1BD18, symBinAddr: 0x10001F814, symSize: 0x3C }
  - { offsetInCU: 0x55EB8, offset: 0x55EB8, size: 0x8, addend: 0x0, symName: __ZNKSt3__117__compressed_pairINS_15__tree_end_nodeIPNS_16__tree_node_baseIPvEEEENS_9allocatorINS_11__tree_nodeINS_12__value_typeIiiEES3_EEEEE6secondB7v160006Ev, symObjAddr: 0x1BD54, symBinAddr: 0x10001F850, symSize: 0x24 }
  - { offsetInCU: 0x55EDE, offset: 0x55EDE, size: 0x8, addend: 0x0, symName: __ZNKSt3__122__compressed_pair_elemINS_9allocatorINS_11__tree_nodeINS_12__value_typeIiiEEPvEEEELi1ELb1EE5__getB7v160006Ev, symObjAddr: 0x1BD78, symBinAddr: 0x10001F874, symSize: 0x14 }
  - { offsetInCU: 0x55F04, offset: 0x55F04, size: 0x8, addend: 0x0, symName: __ZNSt3__117__compressed_pairINS_15__tree_end_nodeIPNS_16__tree_node_baseIPvEEEENS_9allocatorINS_11__tree_nodeINS_12__value_typeIiiEES3_EEEEEC2B7v160006INS_18__default_init_tagESC_EEOT_OT0_, symObjAddr: 0x1BD8C, symBinAddr: 0x10001F888, symSize: 0x40 }
  - { offsetInCU: 0x55F5C, offset: 0x55F5C, size: 0x8, addend: 0x0, symName: __ZNSt3__122__compressed_pair_elemINS_9allocatorINS_11__tree_nodeINS_12__value_typeIiiEEPvEEEELi1ELb1EEC2B7v160006IS7_vEEOT_, symObjAddr: 0x1BDCC, symBinAddr: 0x10001F8C8, symSize: 0x18 }
  - { offsetInCU: 0x55F9E, offset: 0x55F9E, size: 0x8, addend: 0x0, symName: __ZNKSt3__117__compressed_pairImNS_19__map_value_compareIiNS_12__value_typeIiiEENS_4lessIiEELb1EEEE6secondB7v160006Ev, symObjAddr: 0x1BDE4, symBinAddr: 0x10001F8E0, symSize: 0x24 }
  - { offsetInCU: 0x55FC4, offset: 0x55FC4, size: 0x8, addend: 0x0, symName: __ZNKSt3__122__compressed_pair_elemINS_19__map_value_compareIiNS_12__value_typeIiiEENS_4lessIiEELb1EEELi1ELb1EE5__getB7v160006Ev, symObjAddr: 0x1BE08, symBinAddr: 0x10001F904, symSize: 0x14 }
  - { offsetInCU: 0x55FEA, offset: 0x55FEA, size: 0x8, addend: 0x0, symName: __ZNSt3__117__compressed_pairImNS_19__map_value_compareIiNS_12__value_typeIiiEENS_4lessIiEELb1EEEEC2B7v160006IiRKS6_EEOT_OT0_, symObjAddr: 0x1BE1C, symBinAddr: 0x10001F918, symSize: 0x44 }
  - { offsetInCU: 0x56042, offset: 0x56042, size: 0x8, addend: 0x0, symName: __ZNSt3__122__compressed_pair_elemINS_19__map_value_compareIiNS_12__value_typeIiiEENS_4lessIiEELb1EEELi1ELb1EEC2B7v160006IRKS6_vEEOT_, symObjAddr: 0x1BE60, symBinAddr: 0x10001F95C, symSize: 0x18 }
  - { offsetInCU: 0x56084, offset: 0x56084, size: 0x8, addend: 0x0, symName: __ZNKSt3__13mapIiiNS_4lessIiEENS_9allocatorINS_4pairIKiiEEEEE4cendB7v160006Ev, symObjAddr: 0x1BE78, symBinAddr: 0x10001F974, symSize: 0x2C }
  - { offsetInCU: 0x560AA, offset: 0x560AA, size: 0x8, addend: 0x0, symName: __ZNSt3__13mapIiiNS_4lessIiEENS_9allocatorINS_4pairIKiiEEEEE6insertB7v160006ENS_20__map_const_iteratorINS_21__tree_const_iteratorINS_12__value_typeIiiEEPNS_11__tree_nodeISC_PvEElEEEERKS6_, symObjAddr: 0x1BED4, symBinAddr: 0x10001F9D0, symSize: 0x50 }
  - { offsetInCU: 0x560EE, offset: 0x560EE, size: 0x8, addend: 0x0, symName: __ZNSt3__120__map_const_iteratorINS_21__tree_const_iteratorINS_12__value_typeIiiEEPNS_11__tree_nodeIS3_PvEElEEEC1B7v160006ES8_, symObjAddr: 0x1BF24, symBinAddr: 0x10001FA20, symSize: 0x34 }
  - { offsetInCU: 0x56127, offset: 0x56127, size: 0x8, addend: 0x0, symName: __ZNKSt3__120__map_const_iteratorINS_21__tree_const_iteratorINS_12__value_typeIiiEEPNS_11__tree_nodeIS3_PvEElEEEdeB7v160006Ev, symObjAddr: 0x1BF58, symBinAddr: 0x10001FA54, symSize: 0x28 }
  - { offsetInCU: 0x5614D, offset: 0x5614D, size: 0x8, addend: 0x0, symName: __ZNSt3__120__map_const_iteratorINS_21__tree_const_iteratorINS_12__value_typeIiiEEPNS_11__tree_nodeIS3_PvEElEEEppB7v160006Ev, symObjAddr: 0x1BF80, symBinAddr: 0x10001FA7C, symSize: 0x2C }
  - { offsetInCU: 0x56173, offset: 0x56173, size: 0x8, addend: 0x0, symName: __ZNSt3__16__treeINS_12__value_typeIiiEENS_19__map_value_compareIiS2_NS_4lessIiEELb1EEENS_9allocatorIS2_EEE15__insert_uniqueB7v160006ENS_21__tree_const_iteratorIS2_PNS_11__tree_nodeIS2_PvEElEERKNS_4pairIKiiEE, symObjAddr: 0x1C010, symBinAddr: 0x10001FB0C, symSize: 0x64 }
  - { offsetInCU: 0x561B7, offset: 0x561B7, size: 0x8, addend: 0x0, symName: __ZNSt3__16__treeINS_12__value_typeIiiEENS_19__map_value_compareIiS2_NS_4lessIiEELb1EEENS_9allocatorIS2_EEE30__emplace_hint_unique_key_argsIiJRKNS_4pairIKiiEEEEENSB_INS_15__tree_iteratorIS2_PNS_11__tree_nodeIS2_PvEElEEbEENS_21__tree_const_iteratorIS2_SK_lEERKT_DpOT0_, symObjAddr: 0x1C074, symBinAddr: 0x10001FB70, symSize: 0x104 }
  - { offsetInCU: 0x56283, offset: 0x56283, size: 0x8, addend: 0x0, symName: __ZNSt3__122__tree_key_value_typesINS_12__value_typeIiiEEE9__get_keyB7v160006IKNS_4pairIKiiEEEENS_9enable_ifIXsr17__is_same_uncvrefIT_S7_EE5valueERS6_E4typeERSA_, symObjAddr: 0x1C178, symBinAddr: 0x10001FC74, symSize: 0x14 }
  - { offsetInCU: 0x562B0, offset: 0x562B0, size: 0x8, addend: 0x0, symName: __ZNSt3__16__treeINS_12__value_typeIiiEENS_19__map_value_compareIiS2_NS_4lessIiEELb1EEENS_9allocatorIS2_EEE12__find_equalIiEERPNS_16__tree_node_baseIPvEENS_21__tree_const_iteratorIS2_PNS_11__tree_nodeIS2_SC_EElEERPNS_15__tree_end_nodeISE_EESF_RKT_, symObjAddr: 0x1C18C, symBinAddr: 0x10001FC88, symSize: 0x304 }
  - { offsetInCU: 0x56359, offset: 0x56359, size: 0x8, addend: 0x0, symName: __ZNSt3__16__treeINS_12__value_typeIiiEENS_19__map_value_compareIiS2_NS_4lessIiEELb1EEENS_9allocatorIS2_EEE16__construct_nodeIJRKNS_4pairIKiiEEEEENS_10unique_ptrINS_11__tree_nodeIS2_PvEENS_22__tree_node_destructorINS7_ISJ_EEEEEEDpOT_, symObjAddr: 0x1C490, symBinAddr: 0x10001FF8C, symSize: 0x110 }
  - { offsetInCU: 0x563BA, offset: 0x563BA, size: 0x8, addend: 0x0, symName: __ZNSt3__121__tree_const_iteratorINS_12__value_typeIiiEEPNS_11__tree_nodeIS2_PvEElEC1B7v160006ENS_15__tree_iteratorIS2_S6_lEE, symObjAddr: 0x1C5A0, symBinAddr: 0x10002009C, symSize: 0x34 }
  - { offsetInCU: 0x563F3, offset: 0x563F3, size: 0x8, addend: 0x0, symName: __ZNKSt3__121__tree_const_iteratorINS_12__value_typeIiiEEPNS_11__tree_nodeIS2_PvEElEdeB7v160006Ev, symObjAddr: 0x1C5D4, symBinAddr: 0x1000200D0, symSize: 0x28 }
  - { offsetInCU: 0x56419, offset: 0x56419, size: 0x8, addend: 0x0, symName: __ZNSt3__16__treeINS_12__value_typeIiiEENS_19__map_value_compareIiS2_NS_4lessIiEELb1EEENS_9allocatorIS2_EEE5beginB7v160006Ev, symObjAddr: 0x1C5FC, symBinAddr: 0x1000200F8, symSize: 0x34 }
  - { offsetInCU: 0x5643F, offset: 0x5643F, size: 0x8, addend: 0x0, symName: __ZNSt3__121__tree_const_iteratorINS_12__value_typeIiiEEPNS_11__tree_nodeIS2_PvEElEmmB7v160006Ev, symObjAddr: 0x1C630, symBinAddr: 0x10002012C, symSize: 0x38 }
  - { offsetInCU: 0x56465, offset: 0x56465, size: 0x8, addend: 0x0, symName: __ZNKSt3__121__tree_const_iteratorINS_12__value_typeIiiEEPNS_11__tree_nodeIS2_PvEElE8__get_npB7v160006Ev, symObjAddr: 0x1C6B8, symBinAddr: 0x1000201B4, symSize: 0x18 }
  - { offsetInCU: 0x5648B, offset: 0x5648B, size: 0x8, addend: 0x0, symName: __ZNSt3__121__tree_const_iteratorINS_12__value_typeIiiEEPNS_11__tree_nodeIS2_PvEElEC2B7v160006ENS_15__tree_iteratorIS2_S6_lEE, symObjAddr: 0x1C6D0, symBinAddr: 0x1000201CC, symSize: 0x20 }
  - { offsetInCU: 0x564C4, offset: 0x564C4, size: 0x8, addend: 0x0, symName: __ZNSt3__121__tree_const_iteratorINS_12__value_typeIiiEEPNS_11__tree_nodeIS2_PvEElEppB7v160006Ev, symObjAddr: 0x1C7E4, symBinAddr: 0x1000202E0, symSize: 0x38 }
  - { offsetInCU: 0x564EA, offset: 0x564EA, size: 0x8, addend: 0x0, symName: __ZNSt3__116allocator_traitsINS_9allocatorINS_11__tree_nodeINS_12__value_typeIiiEEPvEEEEE9constructB7v160006INS_4pairIKiiEEJRKSC_EvEEvRS7_PT_DpOT0_, symObjAddr: 0x1C81C, symBinAddr: 0x100020318, symSize: 0x34 }
  - { offsetInCU: 0x56541, offset: 0x56541, size: 0x8, addend: 0x0, symName: __ZNSt3__19allocatorINS_11__tree_nodeINS_12__value_typeIiiEEPvEEE9constructB7v160006INS_4pairIKiiEEJRKSA_EEEvPT_DpOT0_, symObjAddr: 0x1C850, symBinAddr: 0x10002034C, symSize: 0x28 }
  - { offsetInCU: 0x56597, offset: 0x56597, size: 0x8, addend: 0x0, symName: __ZNSt3__120__map_const_iteratorINS_21__tree_const_iteratorINS_12__value_typeIiiEEPNS_11__tree_nodeIS3_PvEElEEEC2B7v160006ES8_, symObjAddr: 0x1C878, symBinAddr: 0x100020374, symSize: 0x20 }
  - { offsetInCU: 0x565D0, offset: 0x565D0, size: 0x8, addend: 0x0, symName: __ZNKSt3__121__tree_const_iteratorINS_12__value_typeIiiEEPNS_11__tree_nodeIS2_PvEElEptB7v160006Ev, symObjAddr: 0x1C898, symBinAddr: 0x100020394, symSize: 0x2C }
  - { offsetInCU: 0x565F6, offset: 0x565F6, size: 0x8, addend: 0x0, symName: __ZNSt3__114pointer_traitsIPKNS_12__value_typeIiiEEE10pointer_toB7v160006ERS3_, symObjAddr: 0x1C8C4, symBinAddr: 0x1000203C0, symSize: 0x14 }
  - { offsetInCU: 0x56619, offset: 0x56619, size: 0x8, addend: 0x0, symName: __ZNKSt3__16__treeINS_12__value_typeIiiEENS_19__map_value_compareIiS2_NS_4lessIiEELb1EEENS_9allocatorIS2_EEE5beginB7v160006Ev, symObjAddr: 0x1C8D8, symBinAddr: 0x1000203D4, symSize: 0x34 }
  - { offsetInCU: 0x5663F, offset: 0x5663F, size: 0x8, addend: 0x0, symName: __ZNKSt3__16__treeINS_12__value_typeIiiEENS_19__map_value_compareIiS2_NS_4lessIiEELb1EEENS_9allocatorIS2_EEE12__begin_nodeB7v160006Ev, symObjAddr: 0x1C90C, symBinAddr: 0x100020408, symSize: 0x14 }
  - { offsetInCU: 0x56665, offset: 0x56665, size: 0x8, addend: 0x0, symName: __ZNSt3__121__tree_const_iteratorINS_12__value_typeIiiEEPNS_11__tree_nodeIS2_PvEElEC1B7v160006EPNS_15__tree_end_nodeIPNS_16__tree_node_baseIS4_EEEE, symObjAddr: 0x1C920, symBinAddr: 0x10002041C, symSize: 0x34 }
  - { offsetInCU: 0x5669E, offset: 0x5669E, size: 0x8, addend: 0x0, symName: __ZNSt3__121__tree_const_iteratorINS_12__value_typeIiiEEPNS_11__tree_nodeIS2_PvEElEC2B7v160006EPNS_15__tree_end_nodeIPNS_16__tree_node_baseIS4_EEEE, symObjAddr: 0x1C954, symBinAddr: 0x100020450, symSize: 0x20 }
  - { offsetInCU: 0x566D7, offset: 0x566D7, size: 0x8, addend: 0x0, symName: __ZNKSt3__16__treeINS_12__value_typeIiiEENS_19__map_value_compareIiS2_NS_4lessIiEELb1EEENS_9allocatorIS2_EEE3endB7v160006Ev, symObjAddr: 0x1C974, symBinAddr: 0x100020470, symSize: 0x34 }
  - { offsetInCU: 0x566FD, offset: 0x566FD, size: 0x8, addend: 0x0, symName: __ZNSt3__16__treeINS_12__value_typeIiiEENS_19__map_value_compareIiS2_NS_4lessIiEELb1EEENS_9allocatorIS2_EEED2Ev, symObjAddr: 0x1C9A8, symBinAddr: 0x1000204A4, symSize: 0x38 }
  - { offsetInCU: 0x56729, offset: 0x56729, size: 0x8, addend: 0x0, symName: __ZNSt3__16__treeINS_12__value_typeIiiEENS_19__map_value_compareIiS2_NS_4lessIiEELb1EEENS_9allocatorIS2_EEE7destroyEPNS_11__tree_nodeIS2_PvEE, symObjAddr: 0x1C9E0, symBinAddr: 0x1000204DC, symSize: 0xA8 }
  - { offsetInCU: 0x56775, offset: 0x56775, size: 0x8, addend: 0x0, symName: __ZNSt3__13mapIiNS_4pairINS_6vectorINS_12basic_stringIcNS_11char_traitsIcEENS_9allocatorIcEEEENS6_IS8_EEEENS1_INS2_IiNS6_IiEEEESC_EEEENS_4lessIiEENS6_INS1_IKiSE_EEEEEC1B7v160006ERKSK_, symObjAddr: 0x1CA88, symBinAddr: 0x100020584, symSize: 0x34 }
  - { offsetInCU: 0x567AE, offset: 0x567AE, size: 0x8, addend: 0x0, symName: __ZN4Game9Inventory9equipItemENSt3__112basic_stringIcNS1_11char_traitsIcEENS1_9allocatorIcEEEES7_S7_iNS1_6vectorIiNS5_IiEEEE, symObjAddr: 0x1CC4C, symBinAddr: 0x100020748, symSize: 0x4CC }
  - { offsetInCU: 0x56873, offset: 0x56873, size: 0x8, addend: 0x0, symName: __ZNSt3__13mapIiNS_4pairINS_6vectorINS_12basic_stringIcNS_11char_traitsIcEENS_9allocatorIcEEEENS6_IS8_EEEENS1_INS2_IiNS6_IiEEEESC_EEEENS_4lessIiEENS6_INS1_IKiSE_EEEEEC2B7v160006ERKSK_, symObjAddr: 0x1D154, symBinAddr: 0x100020C50, symSize: 0x88 }
  - { offsetInCU: 0x568AC, offset: 0x568AC, size: 0x8, addend: 0x0, symName: __ZNSt3__16__treeINS_12__value_typeIiNS_4pairINS_6vectorINS_12basic_stringIcNS_11char_traitsIcEENS_9allocatorIcEEEENS7_IS9_EEEENS2_INS3_IiNS7_IiEEEESD_EEEEEENS_19__map_value_compareIiSG_NS_4lessIiEELb1EEENS7_ISG_EEEC1ERKSM_, symObjAddr: 0x1D1DC, symBinAddr: 0x100020CD8, symSize: 0x34 }
  - { offsetInCU: 0x568E7, offset: 0x568E7, size: 0x8, addend: 0x0, symName: __ZNSt3__13mapIiNS_4pairINS_6vectorINS_12basic_stringIcNS_11char_traitsIcEENS_9allocatorIcEEEENS6_IS8_EEEENS1_INS2_IiNS6_IiEEEESC_EEEENS_4lessIiEENS6_INS1_IKiSE_EEEEE6insertB7v160006INS_20__map_const_iteratorINS_21__tree_const_iteratorINS_12__value_typeIiSE_EEPNS_11__tree_nodeISP_PvEElEEEEEEvT_SW_, symObjAddr: 0x1D210, symBinAddr: 0x100020D0C, symSize: 0x8C }
  - { offsetInCU: 0x56951, offset: 0x56951, size: 0x8, addend: 0x0, symName: __ZNKSt3__13mapIiNS_4pairINS_6vectorINS_12basic_stringIcNS_11char_traitsIcEENS_9allocatorIcEEEENS6_IS8_EEEENS1_INS2_IiNS6_IiEEEESC_EEEENS_4lessIiEENS6_INS1_IKiSE_EEEEE5beginB7v160006Ev, symObjAddr: 0x1D29C, symBinAddr: 0x100020D98, symSize: 0x38 }
  - { offsetInCU: 0x56977, offset: 0x56977, size: 0x8, addend: 0x0, symName: __ZNKSt3__13mapIiNS_4pairINS_6vectorINS_12basic_stringIcNS_11char_traitsIcEENS_9allocatorIcEEEENS6_IS8_EEEENS1_INS2_IiNS6_IiEEEESC_EEEENS_4lessIiEENS6_INS1_IKiSE_EEEEE3endB7v160006Ev, symObjAddr: 0x1D2D4, symBinAddr: 0x100020DD0, symSize: 0x38 }
  - { offsetInCU: 0x5699D, offset: 0x5699D, size: 0x8, addend: 0x0, symName: __ZNSt3__16__treeINS_12__value_typeIiNS_4pairINS_6vectorINS_12basic_stringIcNS_11char_traitsIcEENS_9allocatorIcEEEENS7_IS9_EEEENS2_INS3_IiNS7_IiEEEESD_EEEEEENS_19__map_value_compareIiSG_NS_4lessIiEELb1EEENS7_ISG_EEED1Ev, symObjAddr: 0x1D30C, symBinAddr: 0x100020E08, symSize: 0x2C }
  - { offsetInCU: 0x569C9, offset: 0x569C9, size: 0x8, addend: 0x0, symName: __ZNSt3__16__treeINS_12__value_typeIiNS_4pairINS_6vectorINS_12basic_stringIcNS_11char_traitsIcEENS_9allocatorIcEEEENS7_IS9_EEEENS2_INS3_IiNS7_IiEEEESD_EEEEEENS_19__map_value_compareIiSG_NS_4lessIiEELb1EEENS7_ISG_EEEC2ERKSM_, symObjAddr: 0x1D338, symBinAddr: 0x100020E34, symSize: 0x9C }
  - { offsetInCU: 0x56A0F, offset: 0x56A0F, size: 0x8, addend: 0x0, symName: __ZNSt3__116allocator_traitsINS_9allocatorINS_11__tree_nodeINS_12__value_typeIiNS_4pairINS_6vectorINS_12basic_stringIcNS_11char_traitsIcEENS1_IcEEEENS1_ISA_EEEENS4_INS5_IiNS1_IiEEEESE_EEEEEEPvEEEEE37select_on_container_copy_constructionB7v160006ISK_vvEESK_RKSK_, symObjAddr: 0x1D3D4, symBinAddr: 0x100020ED0, symSize: 0x10 }
  - { offsetInCU: 0x56A3E, offset: 0x56A3E, size: 0x8, addend: 0x0, symName: __ZNKSt3__16__treeINS_12__value_typeIiNS_4pairINS_6vectorINS_12basic_stringIcNS_11char_traitsIcEENS_9allocatorIcEEEENS7_IS9_EEEENS2_INS3_IiNS7_IiEEEESD_EEEEEENS_19__map_value_compareIiSG_NS_4lessIiEELb1EEENS7_ISG_EEE12__node_allocB7v160006Ev, symObjAddr: 0x1D3E4, symBinAddr: 0x100020EE0, symSize: 0x28 }
  - { offsetInCU: 0x56A6A, offset: 0x56A6A, size: 0x8, addend: 0x0, symName: __ZNSt3__117__compressed_pairINS_15__tree_end_nodeIPNS_16__tree_node_baseIPvEEEENS_9allocatorINS_11__tree_nodeINS_12__value_typeIiNS_4pairINS_6vectorINS_12basic_stringIcNS_11char_traitsIcEENS7_IcEEEENS7_ISG_EEEENSA_INSB_IiNS7_IiEEEESK_EEEEEES3_EEEEEC1B7v160006INS_18__default_init_tagESP_EEOT_OT0_, symObjAddr: 0x1D40C, symBinAddr: 0x100020F08, symSize: 0x3C }
  - { offsetInCU: 0x56AC2, offset: 0x56AC2, size: 0x8, addend: 0x0, symName: __ZNKSt3__16__treeINS_12__value_typeIiNS_4pairINS_6vectorINS_12basic_stringIcNS_11char_traitsIcEENS_9allocatorIcEEEENS7_IS9_EEEENS2_INS3_IiNS7_IiEEEESD_EEEEEENS_19__map_value_compareIiSG_NS_4lessIiEELb1EEENS7_ISG_EEE10value_compB7v160006Ev, symObjAddr: 0x1D448, symBinAddr: 0x100020F44, symSize: 0x28 }
  - { offsetInCU: 0x56AE8, offset: 0x56AE8, size: 0x8, addend: 0x0, symName: __ZNSt3__117__compressed_pairImNS_19__map_value_compareIiNS_12__value_typeIiNS_4pairINS_6vectorINS_12basic_stringIcNS_11char_traitsIcEENS_9allocatorIcEEEENS8_ISA_EEEENS3_INS4_IiNS8_IiEEEESE_EEEEEENS_4lessIiEELb1EEEEC1B7v160006IiRKSK_EEOT_OT0_, symObjAddr: 0x1D470, symBinAddr: 0x100020F6C, symSize: 0x3C }
  - { offsetInCU: 0x56B40, offset: 0x56B40, size: 0x8, addend: 0x0, symName: __ZNSt3__16__treeINS_12__value_typeIiNS_4pairINS_6vectorINS_12basic_stringIcNS_11char_traitsIcEENS_9allocatorIcEEEENS7_IS9_EEEENS2_INS3_IiNS7_IiEEEESD_EEEEEENS_19__map_value_compareIiSG_NS_4lessIiEELb1EEENS7_ISG_EEE10__end_nodeB7v160006Ev, symObjAddr: 0x1D4AC, symBinAddr: 0x100020FA8, symSize: 0x2C }
  - { offsetInCU: 0x56B66, offset: 0x56B66, size: 0x8, addend: 0x0, symName: __ZNSt3__16__treeINS_12__value_typeIiNS_4pairINS_6vectorINS_12basic_stringIcNS_11char_traitsIcEENS_9allocatorIcEEEENS7_IS9_EEEENS2_INS3_IiNS7_IiEEEESD_EEEEEENS_19__map_value_compareIiSG_NS_4lessIiEELb1EEENS7_ISG_EEE12__begin_nodeB7v160006Ev, symObjAddr: 0x1D4D8, symBinAddr: 0x100020FD4, symSize: 0x14 }
  - { offsetInCU: 0x56B8C, offset: 0x56B8C, size: 0x8, addend: 0x0, symName: __ZNKSt3__117__compressed_pairINS_15__tree_end_nodeIPNS_16__tree_node_baseIPvEEEENS_9allocatorINS_11__tree_nodeINS_12__value_typeIiNS_4pairINS_6vectorINS_12basic_stringIcNS_11char_traitsIcEENS7_IcEEEENS7_ISG_EEEENSA_INSB_IiNS7_IiEEEESK_EEEEEES3_EEEEE6secondB7v160006Ev, symObjAddr: 0x1D4EC, symBinAddr: 0x100020FE8, symSize: 0x24 }
  - { offsetInCU: 0x56BB2, offset: 0x56BB2, size: 0x8, addend: 0x0, symName: __ZNKSt3__122__compressed_pair_elemINS_9allocatorINS_11__tree_nodeINS_12__value_typeIiNS_4pairINS_6vectorINS_12basic_stringIcNS_11char_traitsIcEENS1_IcEEEENS1_ISA_EEEENS4_INS5_IiNS1_IiEEEESE_EEEEEEPvEEEELi1ELb1EE5__getB7v160006Ev, symObjAddr: 0x1D510, symBinAddr: 0x10002100C, symSize: 0x14 }
  - { offsetInCU: 0x56BD8, offset: 0x56BD8, size: 0x8, addend: 0x0, symName: __ZNSt3__117__compressed_pairINS_15__tree_end_nodeIPNS_16__tree_node_baseIPvEEEENS_9allocatorINS_11__tree_nodeINS_12__value_typeIiNS_4pairINS_6vectorINS_12basic_stringIcNS_11char_traitsIcEENS7_IcEEEENS7_ISG_EEEENSA_INSB_IiNS7_IiEEEESK_EEEEEES3_EEEEEC2B7v160006INS_18__default_init_tagESP_EEOT_OT0_, symObjAddr: 0x1D524, symBinAddr: 0x100021020, symSize: 0x40 }
  - { offsetInCU: 0x56C30, offset: 0x56C30, size: 0x8, addend: 0x0, symName: __ZNSt3__122__compressed_pair_elemINS_9allocatorINS_11__tree_nodeINS_12__value_typeIiNS_4pairINS_6vectorINS_12basic_stringIcNS_11char_traitsIcEENS1_IcEEEENS1_ISA_EEEENS4_INS5_IiNS1_IiEEEESE_EEEEEEPvEEEELi1ELb1EEC2B7v160006ISK_vEEOT_, symObjAddr: 0x1D564, symBinAddr: 0x100021060, symSize: 0x18 }
  - { offsetInCU: 0x56C72, offset: 0x56C72, size: 0x8, addend: 0x0, symName: __ZNKSt3__117__compressed_pairImNS_19__map_value_compareIiNS_12__value_typeIiNS_4pairINS_6vectorINS_12basic_stringIcNS_11char_traitsIcEENS_9allocatorIcEEEENS8_ISA_EEEENS3_INS4_IiNS8_IiEEEESE_EEEEEENS_4lessIiEELb1EEEE6secondB7v160006Ev, symObjAddr: 0x1D57C, symBinAddr: 0x100021078, symSize: 0x24 }
  - { offsetInCU: 0x56C98, offset: 0x56C98, size: 0x8, addend: 0x0, symName: __ZNKSt3__122__compressed_pair_elemINS_19__map_value_compareIiNS_12__value_typeIiNS_4pairINS_6vectorINS_12basic_stringIcNS_11char_traitsIcEENS_9allocatorIcEEEENS8_ISA_EEEENS3_INS4_IiNS8_IiEEEESE_EEEEEENS_4lessIiEELb1EEELi1ELb1EE5__getB7v160006Ev, symObjAddr: 0x1D5A0, symBinAddr: 0x10002109C, symSize: 0x14 }
  - { offsetInCU: 0x56CBE, offset: 0x56CBE, size: 0x8, addend: 0x0, symName: __ZNSt3__117__compressed_pairImNS_19__map_value_compareIiNS_12__value_typeIiNS_4pairINS_6vectorINS_12basic_stringIcNS_11char_traitsIcEENS_9allocatorIcEEEENS8_ISA_EEEENS3_INS4_IiNS8_IiEEEESE_EEEEEENS_4lessIiEELb1EEEEC2B7v160006IiRKSK_EEOT_OT0_, symObjAddr: 0x1D5B4, symBinAddr: 0x1000210B0, symSize: 0x44 }
  - { offsetInCU: 0x56D16, offset: 0x56D16, size: 0x8, addend: 0x0, symName: __ZNSt3__122__compressed_pair_elemINS_19__map_value_compareIiNS_12__value_typeIiNS_4pairINS_6vectorINS_12basic_stringIcNS_11char_traitsIcEENS_9allocatorIcEEEENS8_ISA_EEEENS3_INS4_IiNS8_IiEEEESE_EEEEEENS_4lessIiEELb1EEELi1ELb1EEC2B7v160006IRKSK_vEEOT_, symObjAddr: 0x1D5F8, symBinAddr: 0x1000210F4, symSize: 0x18 }
  - { offsetInCU: 0x56D58, offset: 0x56D58, size: 0x8, addend: 0x0, symName: __ZNSt3__117__compressed_pairINS_15__tree_end_nodeIPNS_16__tree_node_baseIPvEEEENS_9allocatorINS_11__tree_nodeINS_12__value_typeIiNS_4pairINS_6vectorINS_12basic_stringIcNS_11char_traitsIcEENS7_IcEEEENS7_ISG_EEEENSA_INSB_IiNS7_IiEEEESK_EEEEEES3_EEEEE5firstB7v160006Ev, symObjAddr: 0x1D610, symBinAddr: 0x10002110C, symSize: 0x24 }
  - { offsetInCU: 0x56D7E, offset: 0x56D7E, size: 0x8, addend: 0x0, symName: __ZNKSt3__13mapIiNS_4pairINS_6vectorINS_12basic_stringIcNS_11char_traitsIcEENS_9allocatorIcEEEENS6_IS8_EEEENS1_INS2_IiNS6_IiEEEESC_EEEENS_4lessIiEENS6_INS1_IKiSE_EEEEE4cendB7v160006Ev, symObjAddr: 0x1D634, symBinAddr: 0x100021130, symSize: 0x2C }
  - { offsetInCU: 0x56DA4, offset: 0x56DA4, size: 0x8, addend: 0x0, symName: __ZNSt3__13mapIiNS_4pairINS_6vectorINS_12basic_stringIcNS_11char_traitsIcEENS_9allocatorIcEEEENS6_IS8_EEEENS1_INS2_IiNS6_IiEEEESC_EEEENS_4lessIiEENS6_INS1_IKiSE_EEEEE6insertB7v160006ENS_20__map_const_iteratorINS_21__tree_const_iteratorINS_12__value_typeIiSE_EEPNS_11__tree_nodeISO_PvEElEEEERKSI_, symObjAddr: 0x1D690, symBinAddr: 0x10002118C, symSize: 0x50 }
  - { offsetInCU: 0x56DE8, offset: 0x56DE8, size: 0x8, addend: 0x0, symName: __ZNSt3__120__map_const_iteratorINS_21__tree_const_iteratorINS_12__value_typeIiNS_4pairINS_6vectorINS_12basic_stringIcNS_11char_traitsIcEENS_9allocatorIcEEEENS8_ISA_EEEENS3_INS4_IiNS8_IiEEEESE_EEEEEEPNS_11__tree_nodeISH_PvEElEEEC1B7v160006ESM_, symObjAddr: 0x1D6E0, symBinAddr: 0x1000211DC, symSize: 0x34 }
  - { offsetInCU: 0x56E21, offset: 0x56E21, size: 0x8, addend: 0x0, symName: __ZNKSt3__120__map_const_iteratorINS_21__tree_const_iteratorINS_12__value_typeIiNS_4pairINS_6vectorINS_12basic_stringIcNS_11char_traitsIcEENS_9allocatorIcEEEENS8_ISA_EEEENS3_INS4_IiNS8_IiEEEESE_EEEEEEPNS_11__tree_nodeISH_PvEElEEEdeB7v160006Ev, symObjAddr: 0x1D714, symBinAddr: 0x100021210, symSize: 0x28 }
  - { offsetInCU: 0x56E47, offset: 0x56E47, size: 0x8, addend: 0x0, symName: __ZNSt3__120__map_const_iteratorINS_21__tree_const_iteratorINS_12__value_typeIiNS_4pairINS_6vectorINS_12basic_stringIcNS_11char_traitsIcEENS_9allocatorIcEEEENS8_ISA_EEEENS3_INS4_IiNS8_IiEEEESE_EEEEEEPNS_11__tree_nodeISH_PvEElEEEppB7v160006Ev, symObjAddr: 0x1D73C, symBinAddr: 0x100021238, symSize: 0x2C }
  - { offsetInCU: 0x56E6D, offset: 0x56E6D, size: 0x8, addend: 0x0, symName: __ZNSt3__16__treeINS_12__value_typeIiNS_4pairINS_6vectorINS_12basic_stringIcNS_11char_traitsIcEENS_9allocatorIcEEEENS7_IS9_EEEENS2_INS3_IiNS7_IiEEEESD_EEEEEENS_19__map_value_compareIiSG_NS_4lessIiEELb1EEENS7_ISG_EEE15__insert_uniqueB7v160006ENS_21__tree_const_iteratorISG_PNS_11__tree_nodeISG_PvEElEERKNS2_IKiSF_EE, symObjAddr: 0x1D7CC, symBinAddr: 0x1000212C8, symSize: 0x64 }
  - { offsetInCU: 0x56EB1, offset: 0x56EB1, size: 0x8, addend: 0x0, symName: __ZNSt3__114__map_iteratorINS_15__tree_iteratorINS_12__value_typeIiNS_4pairINS_6vectorINS_12basic_stringIcNS_11char_traitsIcEENS_9allocatorIcEEEENS8_ISA_EEEENS3_INS4_IiNS8_IiEEEESE_EEEEEEPNS_11__tree_nodeISH_PvEElEEEC1B7v160006ESM_, symObjAddr: 0x1D830, symBinAddr: 0x10002132C, symSize: 0x34 }
  - { offsetInCU: 0x56EEA, offset: 0x56EEA, size: 0x8, addend: 0x0, symName: __ZNSt3__16__treeINS_12__value_typeIiNS_4pairINS_6vectorINS_12basic_stringIcNS_11char_traitsIcEENS_9allocatorIcEEEENS7_IS9_EEEENS2_INS3_IiNS7_IiEEEESD_EEEEEENS_19__map_value_compareIiSG_NS_4lessIiEELb1EEENS7_ISG_EEE30__emplace_hint_unique_key_argsIiJRKNS2_IKiSF_EEEEENS2_INS_15__tree_iteratorISG_PNS_11__tree_nodeISG_PvEElEEbEENS_21__tree_const_iteratorISG_SW_lEERKT_DpOT0_, symObjAddr: 0x1D864, symBinAddr: 0x100021360, symSize: 0x104 }
  - { offsetInCU: 0x56FB6, offset: 0x56FB6, size: 0x8, addend: 0x0, symName: __ZNSt3__122__tree_key_value_typesINS_12__value_typeIiNS_4pairINS_6vectorINS_12basic_stringIcNS_11char_traitsIcEENS_9allocatorIcEEEENS7_IS9_EEEENS2_INS3_IiNS7_IiEEEESD_EEEEEEE9__get_keyB7v160006IKNS2_IKiSF_EEEENS_9enable_ifIXsr17__is_same_uncvrefIT_SK_EE5valueERSJ_E4typeERSN_, symObjAddr: 0x1D968, symBinAddr: 0x100021464, symSize: 0x14 }
  - { offsetInCU: 0x56FE3, offset: 0x56FE3, size: 0x8, addend: 0x0, symName: __ZNSt3__16__treeINS_12__value_typeIiNS_4pairINS_6vectorINS_12basic_stringIcNS_11char_traitsIcEENS_9allocatorIcEEEENS7_IS9_EEEENS2_INS3_IiNS7_IiEEEESD_EEEEEENS_19__map_value_compareIiSG_NS_4lessIiEELb1EEENS7_ISG_EEE12__find_equalIiEERPNS_16__tree_node_baseIPvEENS_21__tree_const_iteratorISG_PNS_11__tree_nodeISG_SP_EElEERPNS_15__tree_end_nodeISR_EESS_RKT_, symObjAddr: 0x1D97C, symBinAddr: 0x100021478, symSize: 0x304 }
  - { offsetInCU: 0x5708C, offset: 0x5708C, size: 0x8, addend: 0x0, symName: __ZNSt3__16__treeINS_12__value_typeIiNS_4pairINS_6vectorINS_12basic_stringIcNS_11char_traitsIcEENS_9allocatorIcEEEENS7_IS9_EEEENS2_INS3_IiNS7_IiEEEESD_EEEEEENS_19__map_value_compareIiSG_NS_4lessIiEELb1EEENS7_ISG_EEE16__construct_nodeIJRKNS2_IKiSF_EEEEENS_10unique_ptrINS_11__tree_nodeISG_PvEENS_22__tree_node_destructorINS7_ISV_EEEEEEDpOT_, symObjAddr: 0x1DC80, symBinAddr: 0x10002177C, symSize: 0x110 }
  - { offsetInCU: 0x570ED, offset: 0x570ED, size: 0x8, addend: 0x0, symName: __ZNSt3__16__treeINS_12__value_typeIiNS_4pairINS_6vectorINS_12basic_stringIcNS_11char_traitsIcEENS_9allocatorIcEEEENS7_IS9_EEEENS2_INS3_IiNS7_IiEEEESD_EEEEEENS_19__map_value_compareIiSG_NS_4lessIiEELb1EEENS7_ISG_EEE16__insert_node_atEPNS_15__tree_end_nodeIPNS_16__tree_node_baseIPvEEEERSR_SR_, symObjAddr: 0x1DD90, symBinAddr: 0x10002188C, symSize: 0xCC }
  - { offsetInCU: 0x57142, offset: 0x57142, size: 0x8, addend: 0x0, symName: __ZNKSt3__110unique_ptrINS_11__tree_nodeINS_12__value_typeIiNS_4pairINS_6vectorINS_12basic_stringIcNS_11char_traitsIcEENS_9allocatorIcEEEENS8_ISA_EEEENS3_INS4_IiNS8_IiEEEESE_EEEEEEPvEENS_22__tree_node_destructorINS8_ISJ_EEEEE3getB7v160006Ev, symObjAddr: 0x1DE5C, symBinAddr: 0x100021958, symSize: 0x28 }
  - { offsetInCU: 0x57168, offset: 0x57168, size: 0x8, addend: 0x0, symName: __ZNSt3__110unique_ptrINS_11__tree_nodeINS_12__value_typeIiNS_4pairINS_6vectorINS_12basic_stringIcNS_11char_traitsIcEENS_9allocatorIcEEEENS8_ISA_EEEENS3_INS4_IiNS8_IiEEEESE_EEEEEEPvEENS_22__tree_node_destructorINS8_ISJ_EEEEE7releaseB7v160006Ev, symObjAddr: 0x1DE84, symBinAddr: 0x100021980, symSize: 0x44 }
  - { offsetInCU: 0x5719D, offset: 0x5719D, size: 0x8, addend: 0x0, symName: __ZNSt3__110unique_ptrINS_11__tree_nodeINS_12__value_typeIiNS_4pairINS_6vectorINS_12basic_stringIcNS_11char_traitsIcEENS_9allocatorIcEEEENS8_ISA_EEEENS3_INS4_IiNS8_IiEEEESE_EEEEEEPvEENS_22__tree_node_destructorINS8_ISJ_EEEEED1B7v160006Ev, symObjAddr: 0x1DEC8, symBinAddr: 0x1000219C4, symSize: 0x2C }
  - { offsetInCU: 0x571C7, offset: 0x571C7, size: 0x8, addend: 0x0, symName: __ZNSt3__115__tree_iteratorINS_12__value_typeIiNS_4pairINS_6vectorINS_12basic_stringIcNS_11char_traitsIcEENS_9allocatorIcEEEENS7_IS9_EEEENS2_INS3_IiNS7_IiEEEESD_EEEEEEPNS_11__tree_nodeISG_PvEElEC1B7v160006ESK_, symObjAddr: 0x1DEF4, symBinAddr: 0x1000219F0, symSize: 0x34 }
  - { offsetInCU: 0x57206, offset: 0x57206, size: 0x8, addend: 0x0, symName: __ZNSt3__14pairINS_15__tree_iteratorINS_12__value_typeIiNS0_INS_6vectorINS_12basic_stringIcNS_11char_traitsIcEENS_9allocatorIcEEEENS7_IS9_EEEENS0_INS3_IiNS7_IiEEEESD_EEEEEEPNS_11__tree_nodeISG_PvEElEEbEC1B7v160006ISL_RbLSI_0EEEOT_OT0_, symObjAddr: 0x1DF28, symBinAddr: 0x100021A24, symSize: 0x3C }
  - { offsetInCU: 0x57264, offset: 0x57264, size: 0x8, addend: 0x0, symName: __ZNSt3__16__treeINS_12__value_typeIiNS_4pairINS_6vectorINS_12basic_stringIcNS_11char_traitsIcEENS_9allocatorIcEEEENS7_IS9_EEEENS2_INS3_IiNS7_IiEEEESD_EEEEEENS_19__map_value_compareIiSG_NS_4lessIiEELb1EEENS7_ISG_EEE3endB7v160006Ev, symObjAddr: 0x1DF64, symBinAddr: 0x100021A60, symSize: 0x34 }
  - { offsetInCU: 0x5728A, offset: 0x5728A, size: 0x8, addend: 0x0, symName: __ZNSt3__121__tree_const_iteratorINS_12__value_typeIiNS_4pairINS_6vectorINS_12basic_stringIcNS_11char_traitsIcEENS_9allocatorIcEEEENS7_IS9_EEEENS2_INS3_IiNS7_IiEEEESD_EEEEEEPNS_11__tree_nodeISG_PvEElEC1B7v160006ENS_15__tree_iteratorISG_SK_lEE, symObjAddr: 0x1DF98, symBinAddr: 0x100021A94, symSize: 0x34 }
  - { offsetInCU: 0x572C3, offset: 0x572C3, size: 0x8, addend: 0x0, symName: __ZNSt3__16__treeINS_12__value_typeIiNS_4pairINS_6vectorINS_12basic_stringIcNS_11char_traitsIcEENS_9allocatorIcEEEENS7_IS9_EEEENS2_INS3_IiNS7_IiEEEESD_EEEEEENS_19__map_value_compareIiSG_NS_4lessIiEELb1EEENS7_ISG_EEE10value_compB7v160006Ev, symObjAddr: 0x1DFCC, symBinAddr: 0x100021AC8, symSize: 0x28 }
  - { offsetInCU: 0x572E9, offset: 0x572E9, size: 0x8, addend: 0x0, symName: __ZNKSt3__119__map_value_compareIiNS_12__value_typeIiNS_4pairINS_6vectorINS_12basic_stringIcNS_11char_traitsIcEENS_9allocatorIcEEEENS7_IS9_EEEENS2_INS3_IiNS7_IiEEEESD_EEEEEENS_4lessIiEELb1EEclB7v160006ERKiRKSG_, symObjAddr: 0x1DFF4, symBinAddr: 0x100021AF0, symSize: 0x50 }
  - { offsetInCU: 0x5732D, offset: 0x5732D, size: 0x8, addend: 0x0, symName: __ZNKSt3__121__tree_const_iteratorINS_12__value_typeIiNS_4pairINS_6vectorINS_12basic_stringIcNS_11char_traitsIcEENS_9allocatorIcEEEENS7_IS9_EEEENS2_INS3_IiNS7_IiEEEESD_EEEEEEPNS_11__tree_nodeISG_PvEElEdeB7v160006Ev, symObjAddr: 0x1E044, symBinAddr: 0x100021B40, symSize: 0x28 }
  - { offsetInCU: 0x57353, offset: 0x57353, size: 0x8, addend: 0x0, symName: __ZNSt3__16__treeINS_12__value_typeIiNS_4pairINS_6vectorINS_12basic_stringIcNS_11char_traitsIcEENS_9allocatorIcEEEENS7_IS9_EEEENS2_INS3_IiNS7_IiEEEESD_EEEEEENS_19__map_value_compareIiSG_NS_4lessIiEELb1EEENS7_ISG_EEE5beginB7v160006Ev, symObjAddr: 0x1E06C, symBinAddr: 0x100021B68, symSize: 0x34 }
  - { offsetInCU: 0x57379, offset: 0x57379, size: 0x8, addend: 0x0, symName: __ZNKSt3__119__map_value_compareIiNS_12__value_typeIiNS_4pairINS_6vectorINS_12basic_stringIcNS_11char_traitsIcEENS_9allocatorIcEEEENS7_IS9_EEEENS2_INS3_IiNS7_IiEEEESD_EEEEEENS_4lessIiEELb1EEclB7v160006ERKSG_RKi, symObjAddr: 0x1E0A0, symBinAddr: 0x100021B9C, symSize: 0x48 }
  - { offsetInCU: 0x573BD, offset: 0x573BD, size: 0x8, addend: 0x0, symName: __ZNSt3__121__tree_const_iteratorINS_12__value_typeIiNS_4pairINS_6vectorINS_12basic_stringIcNS_11char_traitsIcEENS_9allocatorIcEEEENS7_IS9_EEEENS2_INS3_IiNS7_IiEEEESD_EEEEEEPNS_11__tree_nodeISG_PvEElEmmB7v160006Ev, symObjAddr: 0x1E0E8, symBinAddr: 0x100021BE4, symSize: 0x38 }
  - { offsetInCU: 0x573E3, offset: 0x573E3, size: 0x8, addend: 0x0, symName: __ZNSt3__16__treeINS_12__value_typeIiNS_4pairINS_6vectorINS_12basic_stringIcNS_11char_traitsIcEENS_9allocatorIcEEEENS7_IS9_EEEENS2_INS3_IiNS7_IiEEEESD_EEEEEENS_19__map_value_compareIiSG_NS_4lessIiEELb1EEENS7_ISG_EEE12__find_equalIiEERPNS_16__tree_node_baseIPvEERPNS_15__tree_end_nodeISR_EERKT_, symObjAddr: 0x1E120, symBinAddr: 0x100021C1C, symSize: 0x184 }
  - { offsetInCU: 0x57450, offset: 0x57450, size: 0x8, addend: 0x0, symName: __ZNKSt3__121__tree_const_iteratorINS_12__value_typeIiNS_4pairINS_6vectorINS_12basic_stringIcNS_11char_traitsIcEENS_9allocatorIcEEEENS7_IS9_EEEENS2_INS3_IiNS7_IiEEEESD_EEEEEEPNS_11__tree_nodeISG_PvEElE8__get_npB7v160006Ev, symObjAddr: 0x1E2F4, symBinAddr: 0x100021DF0, symSize: 0x18 }
  - { offsetInCU: 0x57476, offset: 0x57476, size: 0x8, addend: 0x0, symName: __ZNSt3__115__tree_iteratorINS_12__value_typeIiNS_4pairINS_6vectorINS_12basic_stringIcNS_11char_traitsIcEENS_9allocatorIcEEEENS7_IS9_EEEENS2_INS3_IiNS7_IiEEEESD_EEEEEEPNS_11__tree_nodeISG_PvEElEC1B7v160006EPNS_15__tree_end_nodeIPNS_16__tree_node_baseISI_EEEE, symObjAddr: 0x1E30C, symBinAddr: 0x100021E08, symSize: 0x34 }
  - { offsetInCU: 0x574AF, offset: 0x574AF, size: 0x8, addend: 0x0, symName: __ZNSt3__115__tree_iteratorINS_12__value_typeIiNS_4pairINS_6vectorINS_12basic_stringIcNS_11char_traitsIcEENS_9allocatorIcEEEENS7_IS9_EEEENS2_INS3_IiNS7_IiEEEESD_EEEEEEPNS_11__tree_nodeISG_PvEElEC2B7v160006EPNS_15__tree_end_nodeIPNS_16__tree_node_baseISI_EEEE, symObjAddr: 0x1E340, symBinAddr: 0x100021E3C, symSize: 0x20 }
  - { offsetInCU: 0x574E8, offset: 0x574E8, size: 0x8, addend: 0x0, symName: __ZNSt3__121__tree_const_iteratorINS_12__value_typeIiNS_4pairINS_6vectorINS_12basic_stringIcNS_11char_traitsIcEENS_9allocatorIcEEEENS7_IS9_EEEENS2_INS3_IiNS7_IiEEEESD_EEEEEEPNS_11__tree_nodeISG_PvEElEC2B7v160006ENS_15__tree_iteratorISG_SK_lEE, symObjAddr: 0x1E360, symBinAddr: 0x100021E5C, symSize: 0x20 }
  - { offsetInCU: 0x57521, offset: 0x57521, size: 0x8, addend: 0x0, symName: __ZNSt3__117__compressed_pairImNS_19__map_value_compareIiNS_12__value_typeIiNS_4pairINS_6vectorINS_12basic_stringIcNS_11char_traitsIcEENS_9allocatorIcEEEENS8_ISA_EEEENS3_INS4_IiNS8_IiEEEESE_EEEEEENS_4lessIiEELb1EEEE6secondB7v160006Ev, symObjAddr: 0x1E380, symBinAddr: 0x100021E7C, symSize: 0x24 }
  - { offsetInCU: 0x57547, offset: 0x57547, size: 0x8, addend: 0x0, symName: __ZNSt3__122__compressed_pair_elemINS_19__map_value_compareIiNS_12__value_typeIiNS_4pairINS_6vectorINS_12basic_stringIcNS_11char_traitsIcEENS_9allocatorIcEEEENS8_ISA_EEEENS3_INS4_IiNS8_IiEEEESE_EEEEEENS_4lessIiEELb1EEELi1ELb1EE5__getB7v160006Ev, symObjAddr: 0x1E3A4, symBinAddr: 0x100021EA0, symSize: 0x14 }
  - { offsetInCU: 0x5756D, offset: 0x5756D, size: 0x8, addend: 0x0, symName: __ZNKSt3__112__value_typeIiNS_4pairINS_6vectorINS_12basic_stringIcNS_11char_traitsIcEENS_9allocatorIcEEEENS6_IS8_EEEENS1_INS2_IiNS6_IiEEEESC_EEEEE11__get_valueB7v160006Ev, symObjAddr: 0x1E3B8, symBinAddr: 0x100021EB4, symSize: 0x14 }
  - { offsetInCU: 0x57593, offset: 0x57593, size: 0x8, addend: 0x0, symName: __ZNKSt3__16__treeINS_12__value_typeIiNS_4pairINS_6vectorINS_12basic_stringIcNS_11char_traitsIcEENS_9allocatorIcEEEENS7_IS9_EEEENS2_INS3_IiNS7_IiEEEESD_EEEEEENS_19__map_value_compareIiSG_NS_4lessIiEELb1EEENS7_ISG_EEE6__rootB7v160006Ev, symObjAddr: 0x1E3CC, symBinAddr: 0x100021EC8, symSize: 0x28 }
  - { offsetInCU: 0x575B9, offset: 0x575B9, size: 0x8, addend: 0x0, symName: __ZNKSt3__16__treeINS_12__value_typeIiNS_4pairINS_6vectorINS_12basic_stringIcNS_11char_traitsIcEENS_9allocatorIcEEEENS7_IS9_EEEENS2_INS3_IiNS7_IiEEEESD_EEEEEENS_19__map_value_compareIiSG_NS_4lessIiEELb1EEENS7_ISG_EEE10__root_ptrEv, symObjAddr: 0x1E3F4, symBinAddr: 0x100021EF0, symSize: 0x24 }
  - { offsetInCU: 0x575DF, offset: 0x575DF, size: 0x8, addend: 0x0, symName: __ZNKSt3__16__treeINS_12__value_typeIiNS_4pairINS_6vectorINS_12basic_stringIcNS_11char_traitsIcEENS_9allocatorIcEEEENS7_IS9_EEEENS2_INS3_IiNS7_IiEEEESD_EEEEEENS_19__map_value_compareIiSG_NS_4lessIiEELb1EEENS7_ISG_EEE10__end_nodeB7v160006Ev, symObjAddr: 0x1E418, symBinAddr: 0x100021F14, symSize: 0x2C }
  - { offsetInCU: 0x57605, offset: 0x57605, size: 0x8, addend: 0x0, symName: __ZNKSt3__117__compressed_pairINS_15__tree_end_nodeIPNS_16__tree_node_baseIPvEEEENS_9allocatorINS_11__tree_nodeINS_12__value_typeIiNS_4pairINS_6vectorINS_12basic_stringIcNS_11char_traitsIcEENS7_IcEEEENS7_ISG_EEEENSA_INSB_IiNS7_IiEEEESK_EEEEEES3_EEEEE5firstB7v160006Ev, symObjAddr: 0x1E444, symBinAddr: 0x100021F40, symSize: 0x24 }
  - { offsetInCU: 0x5762B, offset: 0x5762B, size: 0x8, addend: 0x0, symName: __ZNSt3__121__tree_const_iteratorINS_12__value_typeIiNS_4pairINS_6vectorINS_12basic_stringIcNS_11char_traitsIcEENS_9allocatorIcEEEENS7_IS9_EEEENS2_INS3_IiNS7_IiEEEESD_EEEEEEPNS_11__tree_nodeISG_PvEElEppB7v160006Ev, symObjAddr: 0x1E55C, symBinAddr: 0x100022058, symSize: 0x38 }
  - { offsetInCU: 0x57651, offset: 0x57651, size: 0x8, addend: 0x0, symName: __ZNSt3__16__treeINS_12__value_typeIiNS_4pairINS_6vectorINS_12basic_stringIcNS_11char_traitsIcEENS_9allocatorIcEEEENS7_IS9_EEEENS2_INS3_IiNS7_IiEEEESD_EEEEEENS_19__map_value_compareIiSG_NS_4lessIiEELb1EEENS7_ISG_EEE12__node_allocB7v160006Ev, symObjAddr: 0x1E594, symBinAddr: 0x100022090, symSize: 0x28 }
  - { offsetInCU: 0x57677, offset: 0x57677, size: 0x8, addend: 0x0, symName: __ZNSt3__116allocator_traitsINS_9allocatorINS_11__tree_nodeINS_12__value_typeIiNS_4pairINS_6vectorINS_12basic_stringIcNS_11char_traitsIcEENS1_IcEEEENS1_ISA_EEEENS4_INS5_IiNS1_IiEEEESE_EEEEEEPvEEEEE8allocateB7v160006ERSK_m, symObjAddr: 0x1E5BC, symBinAddr: 0x1000220B8, symSize: 0x2C }
  - { offsetInCU: 0x576AA, offset: 0x576AA, size: 0x8, addend: 0x0, symName: __ZNSt3__122__tree_node_destructorINS_9allocatorINS_11__tree_nodeINS_12__value_typeIiNS_4pairINS_6vectorINS_12basic_stringIcNS_11char_traitsIcEENS1_IcEEEENS1_ISA_EEEENS4_INS5_IiNS1_IiEEEESE_EEEEEEPvEEEEEC1B7v160006ERSK_b, symObjAddr: 0x1E5E8, symBinAddr: 0x1000220E4, symSize: 0x48 }
  - { offsetInCU: 0x576F8, offset: 0x576F8, size: 0x8, addend: 0x0, symName: __ZNSt3__110unique_ptrINS_11__tree_nodeINS_12__value_typeIiNS_4pairINS_6vectorINS_12basic_stringIcNS_11char_traitsIcEENS_9allocatorIcEEEENS8_ISA_EEEENS3_INS4_IiNS8_IiEEEESE_EEEEEEPvEENS_22__tree_node_destructorINS8_ISJ_EEEEEC1B7v160006ILb1EvEEPSJ_NS_16__dependent_typeINS_27__unique_ptr_deleter_sfinaeISM_EEXT_EE20__good_rval_ref_typeE, symObjAddr: 0x1E630, symBinAddr: 0x10002212C, symSize: 0x3C }
  - { offsetInCU: 0x57749, offset: 0x57749, size: 0x8, addend: 0x0, symName: __ZNSt3__116allocator_traitsINS_9allocatorINS_11__tree_nodeINS_12__value_typeIiNS_4pairINS_6vectorINS_12basic_stringIcNS_11char_traitsIcEENS1_IcEEEENS1_ISA_EEEENS4_INS5_IiNS1_IiEEEESE_EEEEEEPvEEEEE9constructB7v160006INS4_IKiSG_EEJRKSO_EvEEvRSK_PT_DpOT0_, symObjAddr: 0x1E66C, symBinAddr: 0x100022168, symSize: 0x34 }
  - { offsetInCU: 0x577A0, offset: 0x577A0, size: 0x8, addend: 0x0, symName: __ZNSt3__122__tree_key_value_typesINS_12__value_typeIiNS_4pairINS_6vectorINS_12basic_stringIcNS_11char_traitsIcEENS_9allocatorIcEEEENS7_IS9_EEEENS2_INS3_IiNS7_IiEEEESD_EEEEEEE9__get_ptrB7v160006ERSG_, symObjAddr: 0x1E6A0, symBinAddr: 0x10002219C, symSize: 0x24 }
  - { offsetInCU: 0x577C4, offset: 0x577C4, size: 0x8, addend: 0x0, symName: __ZNKSt3__110unique_ptrINS_11__tree_nodeINS_12__value_typeIiNS_4pairINS_6vectorINS_12basic_stringIcNS_11char_traitsIcEENS_9allocatorIcEEEENS8_ISA_EEEENS3_INS4_IiNS8_IiEEEESE_EEEEEEPvEENS_22__tree_node_destructorINS8_ISJ_EEEEEptB7v160006Ev, symObjAddr: 0x1E6C4, symBinAddr: 0x1000221C0, symSize: 0x28 }
  - { offsetInCU: 0x577EA, offset: 0x577EA, size: 0x8, addend: 0x0, symName: __ZNSt3__110unique_ptrINS_11__tree_nodeINS_12__value_typeIiNS_4pairINS_6vectorINS_12basic_stringIcNS_11char_traitsIcEENS_9allocatorIcEEEENS8_ISA_EEEENS3_INS4_IiNS8_IiEEEESE_EEEEEEPvEENS_22__tree_node_destructorINS8_ISJ_EEEEE11get_deleterB7v160006Ev, symObjAddr: 0x1E6EC, symBinAddr: 0x1000221E8, symSize: 0x24 }
  - { offsetInCU: 0x57810, offset: 0x57810, size: 0x8, addend: 0x0, symName: __ZNSt3__117__compressed_pairINS_15__tree_end_nodeIPNS_16__tree_node_baseIPvEEEENS_9allocatorINS_11__tree_nodeINS_12__value_typeIiNS_4pairINS_6vectorINS_12basic_stringIcNS_11char_traitsIcEENS7_IcEEEENS7_ISG_EEEENSA_INSB_IiNS7_IiEEEESK_EEEEEES3_EEEEE6secondB7v160006Ev, symObjAddr: 0x1E710, symBinAddr: 0x10002220C, symSize: 0x24 }
  - { offsetInCU: 0x57836, offset: 0x57836, size: 0x8, addend: 0x0, symName: __ZNSt3__122__compressed_pair_elemINS_9allocatorINS_11__tree_nodeINS_12__value_typeIiNS_4pairINS_6vectorINS_12basic_stringIcNS_11char_traitsIcEENS1_IcEEEENS1_ISA_EEEENS4_INS5_IiNS1_IiEEEESE_EEEEEEPvEEEELi1ELb1EE5__getB7v160006Ev, symObjAddr: 0x1E734, symBinAddr: 0x100022230, symSize: 0x14 }
  - { offsetInCU: 0x5785C, offset: 0x5785C, size: 0x8, addend: 0x0, symName: __ZNSt3__19allocatorINS_11__tree_nodeINS_12__value_typeIiNS_4pairINS_6vectorINS_12basic_stringIcNS_11char_traitsIcEENS0_IcEEEENS0_IS9_EEEENS3_INS4_IiNS0_IiEEEESD_EEEEEEPvEEE8allocateB7v160006Em, symObjAddr: 0x1E748, symBinAddr: 0x100022244, symSize: 0x5C }
  - { offsetInCU: 0x57890, offset: 0x57890, size: 0x8, addend: 0x0, symName: __ZNSt3__116allocator_traitsINS_9allocatorINS_11__tree_nodeINS_12__value_typeIiNS_4pairINS_6vectorINS_12basic_stringIcNS_11char_traitsIcEENS1_IcEEEENS1_ISA_EEEENS4_INS5_IiNS1_IiEEEESE_EEEEEEPvEEEEE8max_sizeB7v160006ISK_vEEmRKSK_, symObjAddr: 0x1E7A4, symBinAddr: 0x1000222A0, symSize: 0x24 }
  - { offsetInCU: 0x578BE, offset: 0x578BE, size: 0x8, addend: 0x0, symName: __ZNKSt3__19allocatorINS_11__tree_nodeINS_12__value_typeIiNS_4pairINS_6vectorINS_12basic_stringIcNS_11char_traitsIcEENS0_IcEEEENS0_IS9_EEEENS3_INS4_IiNS0_IiEEEESD_EEEEEEPvEEE8max_sizeB7v160006Ev, symObjAddr: 0x1E7C8, symBinAddr: 0x1000222C4, symSize: 0x20 }
  - { offsetInCU: 0x578E4, offset: 0x578E4, size: 0x8, addend: 0x0, symName: __ZNSt3__122__tree_node_destructorINS_9allocatorINS_11__tree_nodeINS_12__value_typeIiNS_4pairINS_6vectorINS_12basic_stringIcNS_11char_traitsIcEENS1_IcEEEENS1_ISA_EEEENS4_INS5_IiNS1_IiEEEESE_EEEEEEPvEEEEEC2B7v160006ERSK_b, symObjAddr: 0x1E7E8, symBinAddr: 0x1000222E4, symSize: 0x38 }
  - { offsetInCU: 0x5792C, offset: 0x5792C, size: 0x8, addend: 0x0, symName: __ZNSt3__110unique_ptrINS_11__tree_nodeINS_12__value_typeIiNS_4pairINS_6vectorINS_12basic_stringIcNS_11char_traitsIcEENS_9allocatorIcEEEENS8_ISA_EEEENS3_INS4_IiNS8_IiEEEESE_EEEEEEPvEENS_22__tree_node_destructorINS8_ISJ_EEEEEC2B7v160006ILb1EvEEPSJ_NS_16__dependent_typeINS_27__unique_ptr_deleter_sfinaeISM_EEXT_EE20__good_rval_ref_typeE, symObjAddr: 0x1E820, symBinAddr: 0x10002231C, symSize: 0x48 }
  - { offsetInCU: 0x5797D, offset: 0x5797D, size: 0x8, addend: 0x0, symName: __ZNSt3__117__compressed_pairIPNS_11__tree_nodeINS_12__value_typeIiNS_4pairINS_6vectorINS_12basic_stringIcNS_11char_traitsIcEENS_9allocatorIcEEEENS8_ISA_EEEENS3_INS4_IiNS8_IiEEEESE_EEEEEEPvEENS_22__tree_node_destructorINS8_ISJ_EEEEEC1B7v160006IRSK_SN_EEOT_OT0_, symObjAddr: 0x1E868, symBinAddr: 0x100022364, symSize: 0x3C }
  - { offsetInCU: 0x579D5, offset: 0x579D5, size: 0x8, addend: 0x0, symName: __ZNSt3__117__compressed_pairIPNS_11__tree_nodeINS_12__value_typeIiNS_4pairINS_6vectorINS_12basic_stringIcNS_11char_traitsIcEENS_9allocatorIcEEEENS8_ISA_EEEENS3_INS4_IiNS8_IiEEEESE_EEEEEEPvEENS_22__tree_node_destructorINS8_ISJ_EEEEEC2B7v160006IRSK_SN_EEOT_OT0_, symObjAddr: 0x1E8A4, symBinAddr: 0x1000223A0, symSize: 0x48 }
  - { offsetInCU: 0x57A2D, offset: 0x57A2D, size: 0x8, addend: 0x0, symName: __ZNSt3__122__compressed_pair_elemIPNS_11__tree_nodeINS_12__value_typeIiNS_4pairINS_6vectorINS_12basic_stringIcNS_11char_traitsIcEENS_9allocatorIcEEEENS8_ISA_EEEENS3_INS4_IiNS8_IiEEEESE_EEEEEEPvEELi0ELb0EEC2B7v160006IRSK_vEEOT_, symObjAddr: 0x1E8EC, symBinAddr: 0x1000223E8, symSize: 0x24 }
  - { offsetInCU: 0x57A6F, offset: 0x57A6F, size: 0x8, addend: 0x0, symName: __ZNSt3__122__compressed_pair_elemINS_22__tree_node_destructorINS_9allocatorINS_11__tree_nodeINS_12__value_typeIiNS_4pairINS_6vectorINS_12basic_stringIcNS_11char_traitsIcEENS2_IcEEEENS2_ISB_EEEENS5_INS6_IiNS2_IiEEEESF_EEEEEEPvEEEEEELi1ELb0EEC2B7v160006ISM_vEEOT_, symObjAddr: 0x1E910, symBinAddr: 0x10002240C, symSize: 0x24 }
  - { offsetInCU: 0x57AB1, offset: 0x57AB1, size: 0x8, addend: 0x0, symName: __ZNSt3__19allocatorINS_11__tree_nodeINS_12__value_typeIiNS_4pairINS_6vectorINS_12basic_stringIcNS_11char_traitsIcEENS0_IcEEEENS0_IS9_EEEENS3_INS4_IiNS0_IiEEEESD_EEEEEEPvEEE9constructB7v160006INS3_IKiSF_EEJRKSM_EEEvPT_DpOT0_, symObjAddr: 0x1E934, symBinAddr: 0x100022430, symSize: 0x30 }
  - { offsetInCU: 0x57B07, offset: 0x57B07, size: 0x8, addend: 0x0, symName: __ZNSt3__14pairIKiNS0_INS_6vectorINS_12basic_stringIcNS_11char_traitsIcEENS_9allocatorIcEEEENS6_IS8_EEEENS0_INS2_IiNS6_IiEEEESC_EEEEEC1ERKSF_, symObjAddr: 0x1E964, symBinAddr: 0x100022460, symSize: 0x34 }
  - { offsetInCU: 0x57B3C, offset: 0x57B3C, size: 0x8, addend: 0x0, symName: __ZNSt3__14pairIKiNS0_INS_6vectorINS_12basic_stringIcNS_11char_traitsIcEENS_9allocatorIcEEEENS6_IS8_EEEENS0_INS2_IiNS6_IiEEEESC_EEEEEC2ERKSF_, symObjAddr: 0x1E998, symBinAddr: 0x100022494, symSize: 0x48 }
  - { offsetInCU: 0x57B71, offset: 0x57B71, size: 0x8, addend: 0x0, symName: __ZNSt3__14pairINS_6vectorINS_12basic_stringIcNS_11char_traitsIcEENS_9allocatorIcEEEENS5_IS7_EEEENS0_INS1_IiNS5_IiEEEESB_EEEC1ERKSD_, symObjAddr: 0x1E9E0, symBinAddr: 0x1000224DC, symSize: 0x34 }
  - { offsetInCU: 0x57BA6, offset: 0x57BA6, size: 0x8, addend: 0x0, symName: __ZNSt3__14pairINS_6vectorINS_12basic_stringIcNS_11char_traitsIcEENS_9allocatorIcEEEENS5_IS7_EEEENS0_INS1_IiNS5_IiEEEESB_EEEC2ERKSD_, symObjAddr: 0x1EA14, symBinAddr: 0x100022510, symSize: 0x70 }
  - { offsetInCU: 0x57BDB, offset: 0x57BDB, size: 0x8, addend: 0x0, symName: __ZNSt3__14pairINS_6vectorIiNS_9allocatorIiEEEES4_EC1ERKS5_, symObjAddr: 0x1EA84, symBinAddr: 0x100022580, symSize: 0x34 }
  - { offsetInCU: 0x57C10, offset: 0x57C10, size: 0x8, addend: 0x0, symName: __ZNSt3__14pairINS_6vectorIiNS_9allocatorIiEEEES4_EC2ERKS5_, symObjAddr: 0x1EAB8, symBinAddr: 0x1000225B4, symSize: 0x70 }
  - { offsetInCU: 0x57C45, offset: 0x57C45, size: 0x8, addend: 0x0, symName: __ZNSt3__112__value_typeIiNS_4pairINS_6vectorINS_12basic_stringIcNS_11char_traitsIcEENS_9allocatorIcEEEENS6_IS8_EEEENS1_INS2_IiNS6_IiEEEESC_EEEEE11__get_valueB7v160006Ev, symObjAddr: 0x1EB28, symBinAddr: 0x100022624, symSize: 0x14 }
  - { offsetInCU: 0x57C6B, offset: 0x57C6B, size: 0x8, addend: 0x0, symName: __ZNKSt3__117__compressed_pairIPNS_11__tree_nodeINS_12__value_typeIiNS_4pairINS_6vectorINS_12basic_stringIcNS_11char_traitsIcEENS_9allocatorIcEEEENS8_ISA_EEEENS3_INS4_IiNS8_IiEEEESE_EEEEEEPvEENS_22__tree_node_destructorINS8_ISJ_EEEEE5firstB7v160006Ev, symObjAddr: 0x1EB3C, symBinAddr: 0x100022638, symSize: 0x24 }
  - { offsetInCU: 0x57C91, offset: 0x57C91, size: 0x8, addend: 0x0, symName: __ZNKSt3__122__compressed_pair_elemIPNS_11__tree_nodeINS_12__value_typeIiNS_4pairINS_6vectorINS_12basic_stringIcNS_11char_traitsIcEENS_9allocatorIcEEEENS8_ISA_EEEENS3_INS4_IiNS8_IiEEEESE_EEEEEEPvEELi0ELb0EE5__getB7v160006Ev, symObjAddr: 0x1EB60, symBinAddr: 0x10002265C, symSize: 0x14 }
  - { offsetInCU: 0x57CB7, offset: 0x57CB7, size: 0x8, addend: 0x0, symName: __ZNSt3__117__compressed_pairIPNS_11__tree_nodeINS_12__value_typeIiNS_4pairINS_6vectorINS_12basic_stringIcNS_11char_traitsIcEENS_9allocatorIcEEEENS8_ISA_EEEENS3_INS4_IiNS8_IiEEEESE_EEEEEEPvEENS_22__tree_node_destructorINS8_ISJ_EEEEE6secondB7v160006Ev, symObjAddr: 0x1EB74, symBinAddr: 0x100022670, symSize: 0x28 }
  - { offsetInCU: 0x57CDD, offset: 0x57CDD, size: 0x8, addend: 0x0, symName: __ZNSt3__122__compressed_pair_elemINS_22__tree_node_destructorINS_9allocatorINS_11__tree_nodeINS_12__value_typeIiNS_4pairINS_6vectorINS_12basic_stringIcNS_11char_traitsIcEENS2_IcEEEENS2_ISB_EEEENS5_INS6_IiNS2_IiEEEESF_EEEEEEPvEEEEEELi1ELb0EE5__getB7v160006Ev, symObjAddr: 0x1EB9C, symBinAddr: 0x100022698, symSize: 0x14 }
  - { offsetInCU: 0x57D03, offset: 0x57D03, size: 0x8, addend: 0x0, symName: __ZNSt3__16__treeINS_12__value_typeIiNS_4pairINS_6vectorINS_12basic_stringIcNS_11char_traitsIcEENS_9allocatorIcEEEENS7_IS9_EEEENS2_INS3_IiNS7_IiEEEESD_EEEEEENS_19__map_value_compareIiSG_NS_4lessIiEELb1EEENS7_ISG_EEE4sizeB7v160006Ev, symObjAddr: 0x1EBB0, symBinAddr: 0x1000226AC, symSize: 0x28 }
  - { offsetInCU: 0x57D29, offset: 0x57D29, size: 0x8, addend: 0x0, symName: __ZNSt3__117__compressed_pairImNS_19__map_value_compareIiNS_12__value_typeIiNS_4pairINS_6vectorINS_12basic_stringIcNS_11char_traitsIcEENS_9allocatorIcEEEENS8_ISA_EEEENS3_INS4_IiNS8_IiEEEESE_EEEEEENS_4lessIiEELb1EEEE5firstB7v160006Ev, symObjAddr: 0x1EBD8, symBinAddr: 0x1000226D4, symSize: 0x24 }
  - { offsetInCU: 0x57D4F, offset: 0x57D4F, size: 0x8, addend: 0x0, symName: __ZNSt3__117__compressed_pairIPNS_11__tree_nodeINS_12__value_typeIiNS_4pairINS_6vectorINS_12basic_stringIcNS_11char_traitsIcEENS_9allocatorIcEEEENS8_ISA_EEEENS3_INS4_IiNS8_IiEEEESE_EEEEEEPvEENS_22__tree_node_destructorINS8_ISJ_EEEEE5firstB7v160006Ev, symObjAddr: 0x1EBFC, symBinAddr: 0x1000226F8, symSize: 0x24 }
  - { offsetInCU: 0x57D75, offset: 0x57D75, size: 0x8, addend: 0x0, symName: __ZNSt3__122__compressed_pair_elemIPNS_11__tree_nodeINS_12__value_typeIiNS_4pairINS_6vectorINS_12basic_stringIcNS_11char_traitsIcEENS_9allocatorIcEEEENS8_ISA_EEEENS3_INS4_IiNS8_IiEEEESE_EEEEEEPvEELi0ELb0EE5__getB7v160006Ev, symObjAddr: 0x1EC20, symBinAddr: 0x10002271C, symSize: 0x14 }
  - { offsetInCU: 0x57D9B, offset: 0x57D9B, size: 0x8, addend: 0x0, symName: __ZNSt3__110unique_ptrINS_11__tree_nodeINS_12__value_typeIiNS_4pairINS_6vectorINS_12basic_stringIcNS_11char_traitsIcEENS_9allocatorIcEEEENS8_ISA_EEEENS3_INS4_IiNS8_IiEEEESE_EEEEEEPvEENS_22__tree_node_destructorINS8_ISJ_EEEEED2B7v160006Ev, symObjAddr: 0x1EC34, symBinAddr: 0x100022730, symSize: 0x30 }
  - { offsetInCU: 0x57DC5, offset: 0x57DC5, size: 0x8, addend: 0x0, symName: __ZNSt3__110unique_ptrINS_11__tree_nodeINS_12__value_typeIiNS_4pairINS_6vectorINS_12basic_stringIcNS_11char_traitsIcEENS_9allocatorIcEEEENS8_ISA_EEEENS3_INS4_IiNS8_IiEEEESE_EEEEEEPvEENS_22__tree_node_destructorINS8_ISJ_EEEEE5resetB7v160006EPSJ_, symObjAddr: 0x1EC64, symBinAddr: 0x100022760, symSize: 0x78 }
  - { offsetInCU: 0x57E09, offset: 0x57E09, size: 0x8, addend: 0x0, symName: __ZNSt3__122__tree_node_destructorINS_9allocatorINS_11__tree_nodeINS_12__value_typeIiNS_4pairINS_6vectorINS_12basic_stringIcNS_11char_traitsIcEENS1_IcEEEENS1_ISA_EEEENS4_INS5_IiNS1_IiEEEESE_EEEEEEPvEEEEEclB7v160006EPSJ_, symObjAddr: 0x1ECDC, symBinAddr: 0x1000227D8, symSize: 0x98 }
  - { offsetInCU: 0x57E3E, offset: 0x57E3E, size: 0x8, addend: 0x0, symName: __ZNSt3__116allocator_traitsINS_9allocatorINS_11__tree_nodeINS_12__value_typeIiNS_4pairINS_6vectorINS_12basic_stringIcNS_11char_traitsIcEENS1_IcEEEENS1_ISA_EEEENS4_INS5_IiNS1_IiEEEESE_EEEEEEPvEEEEE7destroyB7v160006INS4_IKiSG_EEvvEEvRSK_PT_, symObjAddr: 0x1ED74, symBinAddr: 0x100022870, symSize: 0x28 }
  - { offsetInCU: 0x57E79, offset: 0x57E79, size: 0x8, addend: 0x0, symName: __ZNSt3__116allocator_traitsINS_9allocatorINS_11__tree_nodeINS_12__value_typeIiNS_4pairINS_6vectorINS_12basic_stringIcNS_11char_traitsIcEENS1_IcEEEENS1_ISA_EEEENS4_INS5_IiNS1_IiEEEESE_EEEEEEPvEEEEE10deallocateB7v160006ERSK_PSJ_m, symObjAddr: 0x1ED9C, symBinAddr: 0x100022898, symSize: 0x34 }
  - { offsetInCU: 0x57EBB, offset: 0x57EBB, size: 0x8, addend: 0x0, symName: __ZNSt3__14pairIKiNS0_INS_6vectorINS_12basic_stringIcNS_11char_traitsIcEENS_9allocatorIcEEEENS6_IS8_EEEENS0_INS2_IiNS6_IiEEEESC_EEEEED1Ev, symObjAddr: 0x1EDD0, symBinAddr: 0x1000228CC, symSize: 0x2C }
  - { offsetInCU: 0x57EE7, offset: 0x57EE7, size: 0x8, addend: 0x0, symName: __ZNSt3__14pairIKiNS0_INS_6vectorINS_12basic_stringIcNS_11char_traitsIcEENS_9allocatorIcEEEENS6_IS8_EEEENS0_INS2_IiNS6_IiEEEESC_EEEEED2Ev, symObjAddr: 0x1EDFC, symBinAddr: 0x1000228F8, symSize: 0x30 }
  - { offsetInCU: 0x57F13, offset: 0x57F13, size: 0x8, addend: 0x0, symName: __ZNSt3__19allocatorINS_11__tree_nodeINS_12__value_typeIiNS_4pairINS_6vectorINS_12basic_stringIcNS_11char_traitsIcEENS0_IcEEEENS0_IS9_EEEENS3_INS4_IiNS0_IiEEEESD_EEEEEEPvEEE10deallocateB7v160006EPSI_m, symObjAddr: 0x1EE2C, symBinAddr: 0x100022928, symSize: 0x44 }
  - { offsetInCU: 0x57F55, offset: 0x57F55, size: 0x8, addend: 0x0, symName: __ZNSt3__115__tree_iteratorINS_12__value_typeIiNS_4pairINS_6vectorINS_12basic_stringIcNS_11char_traitsIcEENS_9allocatorIcEEEENS7_IS9_EEEENS2_INS3_IiNS7_IiEEEESD_EEEEEEPNS_11__tree_nodeISG_PvEElEC2B7v160006ESK_, symObjAddr: 0x1EE70, symBinAddr: 0x10002296C, symSize: 0x20 }
  - { offsetInCU: 0x57F8E, offset: 0x57F8E, size: 0x8, addend: 0x0, symName: __ZNSt3__14pairINS_15__tree_iteratorINS_12__value_typeIiNS0_INS_6vectorINS_12basic_stringIcNS_11char_traitsIcEENS_9allocatorIcEEEENS7_IS9_EEEENS0_INS3_IiNS7_IiEEEESD_EEEEEEPNS_11__tree_nodeISG_PvEElEEbEC2B7v160006ISL_RbLSI_0EEEOT_OT0_, symObjAddr: 0x1EE90, symBinAddr: 0x10002298C, symSize: 0x38 }
  - { offsetInCU: 0x57FEC, offset: 0x57FEC, size: 0x8, addend: 0x0, symName: __ZNSt3__114__map_iteratorINS_15__tree_iteratorINS_12__value_typeIiNS_4pairINS_6vectorINS_12basic_stringIcNS_11char_traitsIcEENS_9allocatorIcEEEENS8_ISA_EEEENS3_INS4_IiNS8_IiEEEESE_EEEEEEPNS_11__tree_nodeISH_PvEElEEEC2B7v160006ESM_, symObjAddr: 0x1EEC8, symBinAddr: 0x1000229C4, symSize: 0x20 }
  - { offsetInCU: 0x58025, offset: 0x58025, size: 0x8, addend: 0x0, symName: __ZNSt3__120__map_const_iteratorINS_21__tree_const_iteratorINS_12__value_typeIiNS_4pairINS_6vectorINS_12basic_stringIcNS_11char_traitsIcEENS_9allocatorIcEEEENS8_ISA_EEEENS3_INS4_IiNS8_IiEEEESE_EEEEEEPNS_11__tree_nodeISH_PvEElEEEC2B7v160006ESM_, symObjAddr: 0x1EEE8, symBinAddr: 0x1000229E4, symSize: 0x20 }
  - { offsetInCU: 0x5805E, offset: 0x5805E, size: 0x8, addend: 0x0, symName: __ZNKSt3__121__tree_const_iteratorINS_12__value_typeIiNS_4pairINS_6vectorINS_12basic_stringIcNS_11char_traitsIcEENS_9allocatorIcEEEENS7_IS9_EEEENS2_INS3_IiNS7_IiEEEESD_EEEEEEPNS_11__tree_nodeISG_PvEElEptB7v160006Ev, symObjAddr: 0x1EF08, symBinAddr: 0x100022A04, symSize: 0x2C }
  - { offsetInCU: 0x58084, offset: 0x58084, size: 0x8, addend: 0x0, symName: __ZNSt3__114pointer_traitsIPKNS_12__value_typeIiNS_4pairINS_6vectorINS_12basic_stringIcNS_11char_traitsIcEENS_9allocatorIcEEEENS7_IS9_EEEENS2_INS3_IiNS7_IiEEEESD_EEEEEEE10pointer_toB7v160006ERSH_, symObjAddr: 0x1EF34, symBinAddr: 0x100022A30, symSize: 0x14 }
  - { offsetInCU: 0x580A7, offset: 0x580A7, size: 0x8, addend: 0x0, symName: __ZNKSt3__16__treeINS_12__value_typeIiNS_4pairINS_6vectorINS_12basic_stringIcNS_11char_traitsIcEENS_9allocatorIcEEEENS7_IS9_EEEENS2_INS3_IiNS7_IiEEEESD_EEEEEENS_19__map_value_compareIiSG_NS_4lessIiEELb1EEENS7_ISG_EEE5beginB7v160006Ev, symObjAddr: 0x1EF48, symBinAddr: 0x100022A44, symSize: 0x34 }
  - { offsetInCU: 0x580CD, offset: 0x580CD, size: 0x8, addend: 0x0, symName: __ZNKSt3__16__treeINS_12__value_typeIiNS_4pairINS_6vectorINS_12basic_stringIcNS_11char_traitsIcEENS_9allocatorIcEEEENS7_IS9_EEEENS2_INS3_IiNS7_IiEEEESD_EEEEEENS_19__map_value_compareIiSG_NS_4lessIiEELb1EEENS7_ISG_EEE12__begin_nodeB7v160006Ev, symObjAddr: 0x1EF7C, symBinAddr: 0x100022A78, symSize: 0x14 }
  - { offsetInCU: 0x580F3, offset: 0x580F3, size: 0x8, addend: 0x0, symName: __ZNSt3__121__tree_const_iteratorINS_12__value_typeIiNS_4pairINS_6vectorINS_12basic_stringIcNS_11char_traitsIcEENS_9allocatorIcEEEENS7_IS9_EEEENS2_INS3_IiNS7_IiEEEESD_EEEEEEPNS_11__tree_nodeISG_PvEElEC1B7v160006EPNS_15__tree_end_nodeIPNS_16__tree_node_baseISI_EEEE, symObjAddr: 0x1EF90, symBinAddr: 0x100022A8C, symSize: 0x34 }
  - { offsetInCU: 0x5812C, offset: 0x5812C, size: 0x8, addend: 0x0, symName: __ZNSt3__121__tree_const_iteratorINS_12__value_typeIiNS_4pairINS_6vectorINS_12basic_stringIcNS_11char_traitsIcEENS_9allocatorIcEEEENS7_IS9_EEEENS2_INS3_IiNS7_IiEEEESD_EEEEEEPNS_11__tree_nodeISG_PvEElEC2B7v160006EPNS_15__tree_end_nodeIPNS_16__tree_node_baseISI_EEEE, symObjAddr: 0x1EFC4, symBinAddr: 0x100022AC0, symSize: 0x20 }
  - { offsetInCU: 0x58165, offset: 0x58165, size: 0x8, addend: 0x0, symName: __ZNKSt3__16__treeINS_12__value_typeIiNS_4pairINS_6vectorINS_12basic_stringIcNS_11char_traitsIcEENS_9allocatorIcEEEENS7_IS9_EEEENS2_INS3_IiNS7_IiEEEESD_EEEEEENS_19__map_value_compareIiSG_NS_4lessIiEELb1EEENS7_ISG_EEE3endB7v160006Ev, symObjAddr: 0x1EFE4, symBinAddr: 0x100022AE0, symSize: 0x34 }
  - { offsetInCU: 0x5818B, offset: 0x5818B, size: 0x8, addend: 0x0, symName: __ZNSt3__16__treeINS_12__value_typeIiNS_4pairINS_6vectorINS_12basic_stringIcNS_11char_traitsIcEENS_9allocatorIcEEEENS7_IS9_EEEENS2_INS3_IiNS7_IiEEEESD_EEEEEENS_19__map_value_compareIiSG_NS_4lessIiEELb1EEENS7_ISG_EEED2Ev, symObjAddr: 0x1F018, symBinAddr: 0x100022B14, symSize: 0x38 }
  - { offsetInCU: 0x581B7, offset: 0x581B7, size: 0x8, addend: 0x0, symName: __ZNSt3__16__treeINS_12__value_typeIiNS_4pairINS_6vectorINS_12basic_stringIcNS_11char_traitsIcEENS_9allocatorIcEEEENS7_IS9_EEEENS2_INS3_IiNS7_IiEEEESD_EEEEEENS_19__map_value_compareIiSG_NS_4lessIiEELb1EEENS7_ISG_EEE7destroyEPNS_11__tree_nodeISG_PvEE, symObjAddr: 0x1F050, symBinAddr: 0x100022B4C, symSize: 0xA8 }
  - { offsetInCU: 0x58220, offset: 0x58220, size: 0x8, addend: 0x0, symName: __ZNKSt3__113basic_istreamIcNS_11char_traitsIcEEE6sentrycvbB7v160006Ev, symObjAddr: 0x1F0F8, symBinAddr: 0x100022BF4, symSize: 0x1C }
  - { offsetInCU: 0x58246, offset: 0x58246, size: 0x8, addend: 0x0, symName: __ZNKSt3__19basic_iosIcNS_11char_traitsIcEEE5rdbufB7v160006Ev, symObjAddr: 0x1F114, symBinAddr: 0x100022C10, symSize: 0x24 }
  - { offsetInCU: 0x5826E, offset: 0x5826E, size: 0x8, addend: 0x0, symName: __ZNSt3__115basic_streambufIcNS_11char_traitsIcEEE6sbumpcB7v160006Ev, symObjAddr: 0x1F138, symBinAddr: 0x100022C34, symSize: 0x78 }
  - { offsetInCU: 0x58294, offset: 0x58294, size: 0x8, addend: 0x0, symName: __ZNSt3__111char_traitsIcE11eq_int_typeEii, symObjAddr: 0x1F1B0, symBinAddr: 0x100022CAC, symSize: 0x28 }
  - { offsetInCU: 0x582C5, offset: 0x582C5, size: 0x8, addend: 0x0, symName: __ZNSt3__111char_traitsIcE12to_char_typeEi, symObjAddr: 0x1F1D8, symBinAddr: 0x100022CD4, symSize: 0x18 }
  - { offsetInCU: 0x582E8, offset: 0x582E8, size: 0x8, addend: 0x0, symName: __ZNSt3__18ios_base18__setstate_nothrowB7v160006Ej, symObjAddr: 0x1F1F0, symBinAddr: 0x100022CEC, symSize: 0x64 }
  - { offsetInCU: 0x5831D, offset: 0x5831D, size: 0x8, addend: 0x0, symName: __ZNKSt3__19basic_iosIcNS_11char_traitsIcEEE10exceptionsB7v160006Ev, symObjAddr: 0x1F254, symBinAddr: 0x100022D50, symSize: 0x24 }
  - { offsetInCU: 0x58343, offset: 0x58343, size: 0x8, addend: 0x0, symName: __ZNSt3__19basic_iosIcNS_11char_traitsIcEEE8setstateB7v160006Ej, symObjAddr: 0x1F278, symBinAddr: 0x100022D74, symSize: 0x2C }
  - { offsetInCU: 0x58378, offset: 0x58378, size: 0x8, addend: 0x0, symName: __ZNKSt3__18ios_base5rdbufB7v160006Ev, symObjAddr: 0x1F2A4, symBinAddr: 0x100022DA0, symSize: 0x18 }
  - { offsetInCU: 0x5839E, offset: 0x5839E, size: 0x8, addend: 0x0, symName: __ZNSt3__111char_traitsIcE11to_int_typeEc, symObjAddr: 0x1F2BC, symBinAddr: 0x100022DB8, symSize: 0x14 }
  - { offsetInCU: 0x583C1, offset: 0x583C1, size: 0x8, addend: 0x0, symName: __ZNKSt3__18ios_base10exceptionsB7v160006Ev, symObjAddr: 0x1F2D0, symBinAddr: 0x100022DCC, symSize: 0x18 }
  - { offsetInCU: 0x583E9, offset: 0x583E9, size: 0x8, addend: 0x0, symName: __ZNSt3__18ios_base8setstateB7v160006Ej, symObjAddr: 0x1F2E8, symBinAddr: 0x100022DE4, symSize: 0x34 }
  - { offsetInCU: 0x58420, offset: 0x58420, size: 0x8, addend: 0x0, symName: __ZN4Game9Inventory11unequipItemEi, symObjAddr: 0x1F31C, symBinAddr: 0x100022E18, symSize: 0x358 }
  - { offsetInCU: 0x584CB, offset: 0x584CB, size: 0x8, addend: 0x0, symName: __ZNSt3__18__iom_t5C1B7v160006Ei, symObjAddr: 0x1F6B0, symBinAddr: 0x1000231AC, symSize: 0x34 }
  - { offsetInCU: 0x58503, offset: 0x58503, size: 0x8, addend: 0x0, symName: __ZNSt3__18__iom_t5C2B7v160006Ei, symObjAddr: 0x1F6E4, symBinAddr: 0x1000231E0, symSize: 0x20 }
  - { offsetInCU: 0x5853B, offset: 0x5853B, size: 0x8, addend: 0x0, symName: __ZNSt3__18ios_base4setfB7v160006Ejj, symObjAddr: 0x1F704, symBinAddr: 0x100023200, symSize: 0x5C }
  - { offsetInCU: 0x58590, offset: 0x58590, size: 0x8, addend: 0x0, symName: __ZNSt3__18ios_base6unsetfB7v160006Ej, symObjAddr: 0x1F760, symBinAddr: 0x10002325C, symSize: 0x28 }
  - { offsetInCU: 0x585C7, offset: 0x585C7, size: 0x8, addend: 0x0, symName: __ZNSt3__112basic_stringIcNS_11char_traitsIcEENS_9allocatorIcEEEC2B7v160006IDnEEPKc, symObjAddr: 0x1F788, symBinAddr: 0x100023284, symSize: 0x60 }
  - { offsetInCU: 0x58605, offset: 0x58605, size: 0x8, addend: 0x0, symName: __ZNSt3__117__compressed_pairINS_12basic_stringIcNS_11char_traitsIcEENS_9allocatorIcEEE5__repES5_EC1B7v160006INS_18__default_init_tagESA_EEOT_OT0_, symObjAddr: 0x1F7E8, symBinAddr: 0x1000232E4, symSize: 0x3C }
  - { offsetInCU: 0x5865D, offset: 0x5865D, size: 0x8, addend: 0x0, symName: __ZNSt3__111char_traitsIcE6lengthEPKc, symObjAddr: 0x1F824, symBinAddr: 0x100023320, symSize: 0x34 }
  - { offsetInCU: 0x58680, offset: 0x58680, size: 0x8, addend: 0x0, symName: __ZNSt3__117__compressed_pairINS_12basic_stringIcNS_11char_traitsIcEENS_9allocatorIcEEE5__repES5_EC2B7v160006INS_18__default_init_tagESA_EEOT_OT0_, symObjAddr: 0x1F858, symBinAddr: 0x100023354, symSize: 0x3C }
  - { offsetInCU: 0x586D8, offset: 0x586D8, size: 0x8, addend: 0x0, symName: __ZNSt3__122__compressed_pair_elemINS_12basic_stringIcNS_11char_traitsIcEENS_9allocatorIcEEE5__repELi0ELb0EEC2B7v160006ENS_18__default_init_tagE, symObjAddr: 0x1F894, symBinAddr: 0x100023390, symSize: 0x14 }
  - { offsetInCU: 0x5870D, offset: 0x5870D, size: 0x8, addend: 0x0, symName: __ZNSt3__122__compressed_pair_elemINS_9allocatorIcEELi1ELb1EEC2B7v160006ENS_18__default_init_tagE, symObjAddr: 0x1F8A8, symBinAddr: 0x1000233A4, symSize: 0x2C }
  - { offsetInCU: 0x58742, offset: 0x58742, size: 0x8, addend: 0x0, symName: __ZNSt3__19allocatorIcEC2B7v160006Ev, symObjAddr: 0x1F8D4, symBinAddr: 0x1000233D0, symSize: 0x2C }
  - { offsetInCU: 0x5876C, offset: 0x5876C, size: 0x8, addend: 0x0, symName: __ZNSt3__116__non_trivial_ifILb1ENS_9allocatorIcEEEC2B7v160006Ev, symObjAddr: 0x1F900, symBinAddr: 0x1000233FC, symSize: 0x14 }
  - { offsetInCU: 0x58796, offset: 0x58796, size: 0x8, addend: 0x0, symName: __ZNSt3__18functionIFbiN8nlohmann16json_abi_v3_11_26detail13parse_event_tERNS2_10basic_jsonINS_3mapENS_6vectorENS_12basic_stringIcNS_11char_traitsIcEENS_9allocatorIcEEEEbxydSB_NS2_14adl_serializerENS7_IhNSB_IhEEEEEEEEC2B7v160006EDn, symObjAddr: 0x1F938, symBinAddr: 0x100023434, symSize: 0x30 }
  - { offsetInCU: 0x587CC, offset: 0x587CC, size: 0x8, addend: 0x0, symName: __ZNSt3__110__function12__value_funcIFbiN8nlohmann16json_abi_v3_11_26detail13parse_event_tERNS3_10basic_jsonINS_3mapENS_6vectorENS_12basic_stringIcNS_11char_traitsIcEENS_9allocatorIcEEEEbxydSC_NS3_14adl_serializerENS8_IhNSC_IhEEEEEEEEC1B7v160006Ev, symObjAddr: 0x1F968, symBinAddr: 0x100023464, symSize: 0x2C }
  - { offsetInCU: 0x587F6, offset: 0x587F6, size: 0x8, addend: 0x0, symName: __ZNSt3__110__function12__value_funcIFbiN8nlohmann16json_abi_v3_11_26detail13parse_event_tERNS3_10basic_jsonINS_3mapENS_6vectorENS_12basic_stringIcNS_11char_traitsIcEENS_9allocatorIcEEEEbxydSC_NS3_14adl_serializerENS8_IhNSC_IhEEEEEEEEC2B7v160006Ev, symObjAddr: 0x1F994, symBinAddr: 0x100023490, symSize: 0x18 }
  - { offsetInCU: 0x58820, offset: 0x58820, size: 0x8, addend: 0x0, symName: __ZNSt3__18functionIFbiN8nlohmann16json_abi_v3_11_26detail13parse_event_tERNS2_10basic_jsonINS_3mapENS_6vectorENS_12basic_stringIcNS_11char_traitsIcEENS_9allocatorIcEEEEbxydSB_NS2_14adl_serializerENS7_IhNSB_IhEEEEEEEED2Ev, symObjAddr: 0x1F9AC, symBinAddr: 0x1000234A8, symSize: 0x2C }
  - { offsetInCU: 0x5884C, offset: 0x5884C, size: 0x8, addend: 0x0, symName: __ZNSt3__110__function12__value_funcIFbiN8nlohmann16json_abi_v3_11_26detail13parse_event_tERNS3_10basic_jsonINS_3mapENS_6vectorENS_12basic_stringIcNS_11char_traitsIcEENS_9allocatorIcEEEEbxydSC_NS3_14adl_serializerENS8_IhNSC_IhEEEEEEEED1B7v160006Ev, symObjAddr: 0x1F9D8, symBinAddr: 0x1000234D4, symSize: 0x2C }
  - { offsetInCU: 0x58876, offset: 0x58876, size: 0x8, addend: 0x0, symName: __ZNSt3__110__function12__value_funcIFbiN8nlohmann16json_abi_v3_11_26detail13parse_event_tERNS3_10basic_jsonINS_3mapENS_6vectorENS_12basic_stringIcNS_11char_traitsIcEENS_9allocatorIcEEEEbxydSC_NS3_14adl_serializerENS8_IhNSC_IhEEEEEEEED2B7v160006Ev, symObjAddr: 0x1FA04, symBinAddr: 0x100023500, symSize: 0x90 }
  - { offsetInCU: 0x588A0, offset: 0x588A0, size: 0x8, addend: 0x0, symName: __ZN8nlohmann16json_abi_v3_11_210basic_jsonINSt3__13mapENS2_6vectorENS2_12basic_stringIcNS2_11char_traitsIcEENS2_9allocatorIcEEEEbxydS8_NS0_14adl_serializerENS4_IhNS8_IhEEEEED2Ev, symObjAddr: 0x1FA94, symBinAddr: 0x100023590, symSize: 0x4C }
  - { offsetInCU: 0x588CA, offset: 0x588CA, size: 0x8, addend: 0x0, symName: __ZNK8nlohmann16json_abi_v3_11_210basic_jsonINSt3__13mapENS2_6vectorENS2_12basic_stringIcNS2_11char_traitsIcEENS2_9allocatorIcEEEEbxydS8_NS0_14adl_serializerENS4_IhNS8_IhEEEEE16assert_invariantEb, symObjAddr: 0x1FAE0, symBinAddr: 0x1000235DC, symSize: 0x1F0 }
  - { offsetInCU: 0x588FF, offset: 0x588FF, size: 0x8, addend: 0x0, symName: __ZN8nlohmann16json_abi_v3_11_210basic_jsonINSt3__13mapENS2_6vectorENS2_12basic_stringIcNS2_11char_traitsIcEENS2_9allocatorIcEEEEbxydS8_NS0_14adl_serializerENS4_IhNS8_IhEEEEE10json_value7destroyENS0_6detail7value_tE, symObjAddr: 0x1FCD0, symBinAddr: 0x1000237CC, symSize: 0x464 }
  - { offsetInCU: 0x58A83, offset: 0x58A83, size: 0x8, addend: 0x0, symName: __ZNSt3__16vectorIN8nlohmann16json_abi_v3_11_210basic_jsonINS_3mapES0_NS_12basic_stringIcNS_11char_traitsIcEENS_9allocatorIcEEEEbxydS8_NS2_14adl_serializerENS0_IhNS8_IhEEEEEENS8_ISE_EEEC1B7v160006Ev, symObjAddr: 0x2015C, symBinAddr: 0x100023C58, symSize: 0x2C }
  - { offsetInCU: 0x58AAD, offset: 0x58AAD, size: 0x8, addend: 0x0, symName: __ZNSt3__16vectorIN8nlohmann16json_abi_v3_11_210basic_jsonINS_3mapES0_NS_12basic_stringIcNS_11char_traitsIcEENS_9allocatorIcEEEEbxydS8_NS2_14adl_serializerENS0_IhNS8_IhEEEEEENS8_ISE_EEE7reserveEm, symObjAddr: 0x20188, symBinAddr: 0x100023C84, symSize: 0xE8 }
  - { offsetInCU: 0x58B09, offset: 0x58B09, size: 0x8, addend: 0x0, symName: __ZNKSt3__16vectorIN8nlohmann16json_abi_v3_11_210basic_jsonINS_3mapES0_NS_12basic_stringIcNS_11char_traitsIcEENS_9allocatorIcEEEEbxydS8_NS2_14adl_serializerENS0_IhNS8_IhEEEEEENS8_ISE_EEE4sizeB7v160006Ev, symObjAddr: 0x20270, symBinAddr: 0x100023D6C, symSize: 0x28 }
  - { offsetInCU: 0x58B2F, offset: 0x58B2F, size: 0x8, addend: 0x0, symName: __ZNSt3__16vectorIN8nlohmann16json_abi_v3_11_210basic_jsonINS_3mapES0_NS_12basic_stringIcNS_11char_traitsIcEENS_9allocatorIcEEEEbxydS8_NS2_14adl_serializerENS0_IhNS8_IhEEEEEENS8_ISE_EEE5beginB7v160006Ev, symObjAddr: 0x202F8, symBinAddr: 0x100023DF4, symSize: 0x30 }
  - { offsetInCU: 0x58B57, offset: 0x58B57, size: 0x8, addend: 0x0, symName: __ZNSt3__16vectorIN8nlohmann16json_abi_v3_11_210basic_jsonINS_3mapES0_NS_12basic_stringIcNS_11char_traitsIcEENS_9allocatorIcEEEEbxydS8_NS2_14adl_serializerENS0_IhNS8_IhEEEEEENS8_ISE_EEE3endB7v160006Ev, symObjAddr: 0x20328, symBinAddr: 0x100023E24, symSize: 0x30 }
  - { offsetInCU: 0x58B7F, offset: 0x58B7F, size: 0x8, addend: 0x0, symName: __ZNKSt3__13mapINS_12basic_stringIcNS_11char_traitsIcEENS_9allocatorIcEEEEN8nlohmann16json_abi_v3_11_210basic_jsonIS0_NS_6vectorES6_bxydS4_NS8_14adl_serializerENSA_IhNS4_IhEEEEEENS_4lessIvEENS4_INS_4pairIKS6_SE_EEEEE4sizeB7v160006Ev, symObjAddr: 0x20384, symBinAddr: 0x100023E80, symSize: 0x28 }
  - { offsetInCU: 0x58BA5, offset: 0x58BA5, size: 0x8, addend: 0x0, symName: __ZNSt3__13mapINS_12basic_stringIcNS_11char_traitsIcEENS_9allocatorIcEEEEN8nlohmann16json_abi_v3_11_210basic_jsonIS0_NS_6vectorES6_bxydS4_NS8_14adl_serializerENSA_IhNS4_IhEEEEEENS_4lessIvEENS4_INS_4pairIKS6_SE_EEEEE5beginB7v160006Ev, symObjAddr: 0x203AC, symBinAddr: 0x100023EA8, symSize: 0x38 }
  - { offsetInCU: 0x58BCB, offset: 0x58BCB, size: 0x8, addend: 0x0, symName: __ZNSt3__13mapINS_12basic_stringIcNS_11char_traitsIcEENS_9allocatorIcEEEEN8nlohmann16json_abi_v3_11_210basic_jsonIS0_NS_6vectorES6_bxydS4_NS8_14adl_serializerENSA_IhNS4_IhEEEEEENS_4lessIvEENS4_INS_4pairIKS6_SE_EEEEE3endB7v160006Ev, symObjAddr: 0x203E4, symBinAddr: 0x100023EE0, symSize: 0x38 }
  - { offsetInCU: 0x58BF1, offset: 0x58BF1, size: 0x8, addend: 0x0, symName: __ZNKSt3__114__map_iteratorINS_15__tree_iteratorINS_12__value_typeINS_12basic_stringIcNS_11char_traitsIcEENS_9allocatorIcEEEEN8nlohmann16json_abi_v3_11_210basic_jsonINS_3mapENS_6vectorES8_bxydS6_NSA_14adl_serializerENSD_IhNS6_IhEEEEEEEEPNS_11__tree_nodeISI_PvEElEEEdeB7v160006Ev, symObjAddr: 0x2044C, symBinAddr: 0x100023F48, symSize: 0x28 }
  - { offsetInCU: 0x58C17, offset: 0x58C17, size: 0x8, addend: 0x0, symName: __ZNSt3__16vectorIN8nlohmann16json_abi_v3_11_210basic_jsonINS_3mapES0_NS_12basic_stringIcNS_11char_traitsIcEENS_9allocatorIcEEEEbxydS8_NS2_14adl_serializerENS0_IhNS8_IhEEEEEENS8_ISE_EEE9push_backB7v160006EOSE_, symObjAddr: 0x20474, symBinAddr: 0x100023F70, symSize: 0x6C }
  - { offsetInCU: 0x58C4E, offset: 0x58C4E, size: 0x8, addend: 0x0, symName: __ZNSt3__114__map_iteratorINS_15__tree_iteratorINS_12__value_typeINS_12basic_stringIcNS_11char_traitsIcEENS_9allocatorIcEEEEN8nlohmann16json_abi_v3_11_210basic_jsonINS_3mapENS_6vectorES8_bxydS6_NSA_14adl_serializerENSD_IhNS6_IhEEEEEEEEPNS_11__tree_nodeISI_PvEElEEEppB7v160006Ev, symObjAddr: 0x204E0, symBinAddr: 0x100023FDC, symSize: 0x2C }
  - { offsetInCU: 0x58C74, offset: 0x58C74, size: 0x8, addend: 0x0, symName: __ZNKSt3__16vectorIN8nlohmann16json_abi_v3_11_210basic_jsonINS_3mapES0_NS_12basic_stringIcNS_11char_traitsIcEENS_9allocatorIcEEEEbxydS8_NS2_14adl_serializerENS0_IhNS8_IhEEEEEENS8_ISE_EEE5emptyB7v160006Ev, symObjAddr: 0x2050C, symBinAddr: 0x100024008, symSize: 0x28 }
  - { offsetInCU: 0x58C9A, offset: 0x58C9A, size: 0x8, addend: 0x0, symName: __ZNSt3__16vectorIN8nlohmann16json_abi_v3_11_210basic_jsonINS_3mapES0_NS_12basic_stringIcNS_11char_traitsIcEENS_9allocatorIcEEEEbxydS8_NS2_14adl_serializerENS0_IhNS8_IhEEEEEENS8_ISE_EEE4backB7v160006Ev, symObjAddr: 0x20534, symBinAddr: 0x100024030, symSize: 0x1C }
  - { offsetInCU: 0x58CC0, offset: 0x58CC0, size: 0x8, addend: 0x0, symName: __ZN8nlohmann16json_abi_v3_11_210basic_jsonINSt3__13mapENS2_6vectorENS2_12basic_stringIcNS2_11char_traitsIcEENS2_9allocatorIcEEEEbxydS8_NS0_14adl_serializerENS4_IhNS8_IhEEEEEC1EOSE_, symObjAddr: 0x20550, symBinAddr: 0x10002404C, symSize: 0x34 }
  - { offsetInCU: 0x58CF9, offset: 0x58CF9, size: 0x8, addend: 0x0, symName: __ZNSt3__16vectorIN8nlohmann16json_abi_v3_11_210basic_jsonINS_3mapES0_NS_12basic_stringIcNS_11char_traitsIcEENS_9allocatorIcEEEEbxydS8_NS2_14adl_serializerENS0_IhNS8_IhEEEEEENS8_ISE_EEE8pop_backEv, symObjAddr: 0x20584, symBinAddr: 0x100024080, symSize: 0x2C }
  - { offsetInCU: 0x58D21, offset: 0x58D21, size: 0x8, addend: 0x0, symName: __ZNK8nlohmann16json_abi_v3_11_210basic_jsonINSt3__13mapENS2_6vectorENS2_12basic_stringIcNS2_11char_traitsIcEENS2_9allocatorIcEEEEbxydS8_NS0_14adl_serializerENS4_IhNS8_IhEEEEE8is_arrayEv, symObjAddr: 0x205B0, symBinAddr: 0x1000240AC, symSize: 0x24 }
  - { offsetInCU: 0x58D47, offset: 0x58D47, size: 0x8, addend: 0x0, symName: __ZNSt3__16vectorIN8nlohmann16json_abi_v3_11_210basic_jsonINS_3mapES0_NS_12basic_stringIcNS_11char_traitsIcEENS_9allocatorIcEEEEbxydS8_NS2_14adl_serializerENS0_IhNS8_IhEEEEEENS8_ISE_EEE5clearB7v160006Ev, symObjAddr: 0x205D4, symBinAddr: 0x1000240D0, symSize: 0x4C }
  - { offsetInCU: 0x58D7C, offset: 0x58D7C, size: 0x8, addend: 0x0, symName: __ZNK8nlohmann16json_abi_v3_11_210basic_jsonINSt3__13mapENS2_6vectorENS2_12basic_stringIcNS2_11char_traitsIcEENS2_9allocatorIcEEEEbxydS8_NS0_14adl_serializerENS4_IhNS8_IhEEEEE9is_objectEv, symObjAddr: 0x20620, symBinAddr: 0x10002411C, symSize: 0x24 }
  - { offsetInCU: 0x58DA2, offset: 0x58DA2, size: 0x8, addend: 0x0, symName: __ZNSt3__13mapINS_12basic_stringIcNS_11char_traitsIcEENS_9allocatorIcEEEEN8nlohmann16json_abi_v3_11_210basic_jsonIS0_NS_6vectorES6_bxydS4_NS8_14adl_serializerENSA_IhNS4_IhEEEEEENS_4lessIvEENS4_INS_4pairIKS6_SE_EEEEE5clearB7v160006Ev, symObjAddr: 0x20644, symBinAddr: 0x100024140, symSize: 0x24 }
  - { offsetInCU: 0x58DC8, offset: 0x58DC8, size: 0x8, addend: 0x0, symName: __ZNSt3__16vectorIN8nlohmann16json_abi_v3_11_210basic_jsonINS_3mapES0_NS_12basic_stringIcNS_11char_traitsIcEENS_9allocatorIcEEEEbxydS8_NS2_14adl_serializerENS0_IhNS8_IhEEEEEENS8_ISE_EEED1B7v160006Ev, symObjAddr: 0x20668, symBinAddr: 0x100024164, symSize: 0x2C }
  - { offsetInCU: 0x58E09, offset: 0x58E09, size: 0x8, addend: 0x0, symName: __ZNSt3__19allocatorINS_3mapINS_12basic_stringIcNS_11char_traitsIcEENS0_IcEEEEN8nlohmann16json_abi_v3_11_210basic_jsonIS1_NS_6vectorES6_bxydS0_NS8_14adl_serializerENSA_IhNS0_IhEEEEEENS_4lessIvEENS0_INS_4pairIKS6_SE_EEEEEEEC1B7v160006Ev, symObjAddr: 0x20694, symBinAddr: 0x100024190, symSize: 0x2C }
  - { offsetInCU: 0x58E39, offset: 0x58E39, size: 0x8, addend: 0x0, symName: __ZNSt3__116allocator_traitsINS_9allocatorINS_3mapINS_12basic_stringIcNS_11char_traitsIcEENS1_IcEEEEN8nlohmann16json_abi_v3_11_210basic_jsonIS2_NS_6vectorES7_bxydS1_NS9_14adl_serializerENSB_IhNS1_IhEEEEEENS_4lessIvEENS1_INS_4pairIKS7_SF_EEEEEEEEE7destroyB7v160006ISM_vEEvRSN_PT_, symObjAddr: 0x206C0, symBinAddr: 0x1000241BC, symSize: 0x2C }
  - { offsetInCU: 0x58E76, offset: 0x58E76, size: 0x8, addend: 0x0, symName: __ZNSt3__116allocator_traitsINS_9allocatorINS_3mapINS_12basic_stringIcNS_11char_traitsIcEENS1_IcEEEEN8nlohmann16json_abi_v3_11_210basic_jsonIS2_NS_6vectorES7_bxydS1_NS9_14adl_serializerENSB_IhNS1_IhEEEEEENS_4lessIvEENS1_INS_4pairIKS7_SF_EEEEEEEEE10deallocateB7v160006ERSN_PSM_m, symObjAddr: 0x206EC, symBinAddr: 0x1000241E8, symSize: 0x34 }
  - { offsetInCU: 0x58ED5, offset: 0x58ED5, size: 0x8, addend: 0x0, symName: __ZNSt3__19allocatorINS_6vectorIN8nlohmann16json_abi_v3_11_210basic_jsonINS_3mapES1_NS_12basic_stringIcNS_11char_traitsIcEENS0_IcEEEEbxydS0_NS3_14adl_serializerENS1_IhNS0_IhEEEEEENS0_ISE_EEEEEC1B7v160006Ev, symObjAddr: 0x20720, symBinAddr: 0x10002421C, symSize: 0x2C }
  - { offsetInCU: 0x58F05, offset: 0x58F05, size: 0x8, addend: 0x0, symName: __ZNSt3__116allocator_traitsINS_9allocatorINS_6vectorIN8nlohmann16json_abi_v3_11_210basic_jsonINS_3mapES2_NS_12basic_stringIcNS_11char_traitsIcEENS1_IcEEEEbxydS1_NS4_14adl_serializerENS2_IhNS1_IhEEEEEENS1_ISF_EEEEEEE7destroyB7v160006ISH_vEEvRSI_PT_, symObjAddr: 0x2074C, symBinAddr: 0x100024248, symSize: 0x2C }
  - { offsetInCU: 0x58F42, offset: 0x58F42, size: 0x8, addend: 0x0, symName: __ZNSt3__116allocator_traitsINS_9allocatorINS_6vectorIN8nlohmann16json_abi_v3_11_210basic_jsonINS_3mapES2_NS_12basic_stringIcNS_11char_traitsIcEENS1_IcEEEEbxydS1_NS4_14adl_serializerENS2_IhNS1_IhEEEEEENS1_ISF_EEEEEEE10deallocateB7v160006ERSI_PSH_m, symObjAddr: 0x20778, symBinAddr: 0x100024274, symSize: 0x34 }
  - { offsetInCU: 0x58F84, offset: 0x58F84, size: 0x8, addend: 0x0, symName: __ZNSt3__19allocatorINS_12basic_stringIcNS_11char_traitsIcEENS0_IcEEEEEC1B7v160006Ev, symObjAddr: 0x207AC, symBinAddr: 0x1000242A8, symSize: 0x2C }
  - { offsetInCU: 0x58FD1, offset: 0x58FD1, size: 0x8, addend: 0x0, symName: __ZNSt3__19allocatorIN8nlohmann16json_abi_v3_11_227byte_container_with_subtypeINS_6vectorIhNS0_IhEEEEEEEC1B7v160006Ev, symObjAddr: 0x207D8, symBinAddr: 0x1000242D4, symSize: 0x2C }
  - { offsetInCU: 0x59001, offset: 0x59001, size: 0x8, addend: 0x0, symName: __ZNSt3__116allocator_traitsINS_9allocatorIN8nlohmann16json_abi_v3_11_227byte_container_with_subtypeINS_6vectorIhNS1_IhEEEEEEEEE7destroyB7v160006IS8_vEEvRS9_PT_, symObjAddr: 0x20804, symBinAddr: 0x100024300, symSize: 0x2C }
  - { offsetInCU: 0x5903E, offset: 0x5903E, size: 0x8, addend: 0x0, symName: __ZNSt3__116allocator_traitsINS_9allocatorIN8nlohmann16json_abi_v3_11_227byte_container_with_subtypeINS_6vectorIhNS1_IhEEEEEEEEE10deallocateB7v160006ERS9_PS8_m, symObjAddr: 0x20830, symBinAddr: 0x10002432C, symSize: 0x34 }
  - { offsetInCU: 0x59080, offset: 0x59080, size: 0x8, addend: 0x0, symName: __ZNSt3__16vectorIN8nlohmann16json_abi_v3_11_210basic_jsonINS_3mapES0_NS_12basic_stringIcNS_11char_traitsIcEENS_9allocatorIcEEEEbxydS8_NS2_14adl_serializerENS0_IhNS8_IhEEEEEENS8_ISE_EEEC2B7v160006Ev, symObjAddr: 0x20864, symBinAddr: 0x100024360, symSize: 0x58 }
  - { offsetInCU: 0x590AA, offset: 0x590AA, size: 0x8, addend: 0x0, symName: __ZNSt3__117__compressed_pairIPN8nlohmann16json_abi_v3_11_210basic_jsonINS_3mapENS_6vectorENS_12basic_stringIcNS_11char_traitsIcEENS_9allocatorIcEEEEbxydS9_NS2_14adl_serializerENS5_IhNS9_IhEEEEEENS9_ISF_EEEC1B7v160006IDnNS_18__default_init_tagEEEOT_OT0_, symObjAddr: 0x208BC, symBinAddr: 0x1000243B8, symSize: 0x3C }
  - { offsetInCU: 0x59102, offset: 0x59102, size: 0x8, addend: 0x0, symName: __ZNSt3__117__compressed_pairIPN8nlohmann16json_abi_v3_11_210basic_jsonINS_3mapENS_6vectorENS_12basic_stringIcNS_11char_traitsIcEENS_9allocatorIcEEEEbxydS9_NS2_14adl_serializerENS5_IhNS9_IhEEEEEENS9_ISF_EEEC2B7v160006IDnNS_18__default_init_tagEEEOT_OT0_, symObjAddr: 0x20908, symBinAddr: 0x100024404, symSize: 0x40 }
  - { offsetInCU: 0x5915A, offset: 0x5915A, size: 0x8, addend: 0x0, symName: __ZNSt3__122__compressed_pair_elemIPN8nlohmann16json_abi_v3_11_210basic_jsonINS_3mapENS_6vectorENS_12basic_stringIcNS_11char_traitsIcEENS_9allocatorIcEEEEbxydS9_NS2_14adl_serializerENS5_IhNS9_IhEEEEEELi0ELb0EEC2B7v160006IDnvEEOT_, symObjAddr: 0x20948, symBinAddr: 0x100024444, symSize: 0x1C }
  - { offsetInCU: 0x5919C, offset: 0x5919C, size: 0x8, addend: 0x0, symName: __ZNSt3__122__compressed_pair_elemINS_9allocatorIN8nlohmann16json_abi_v3_11_210basic_jsonINS_3mapENS_6vectorENS_12basic_stringIcNS_11char_traitsIcEENS1_IcEEEEbxydS1_NS3_14adl_serializerENS6_IhNS1_IhEEEEEEEELi1ELb1EEC2B7v160006ENS_18__default_init_tagE, symObjAddr: 0x20964, symBinAddr: 0x100024460, symSize: 0x2C }
  - { offsetInCU: 0x591D1, offset: 0x591D1, size: 0x8, addend: 0x0, symName: __ZNSt3__19allocatorIN8nlohmann16json_abi_v3_11_210basic_jsonINS_3mapENS_6vectorENS_12basic_stringIcNS_11char_traitsIcEENS0_IcEEEEbxydS0_NS2_14adl_serializerENS5_IhNS0_IhEEEEEEEC2B7v160006Ev, symObjAddr: 0x20990, symBinAddr: 0x10002448C, symSize: 0x2C }
  - { offsetInCU: 0x591FB, offset: 0x591FB, size: 0x8, addend: 0x0, symName: __ZNSt3__116__non_trivial_ifILb1ENS_9allocatorIN8nlohmann16json_abi_v3_11_210basic_jsonINS_3mapENS_6vectorENS_12basic_stringIcNS_11char_traitsIcEENS1_IcEEEEbxydS1_NS3_14adl_serializerENS6_IhNS1_IhEEEEEEEEEC2B7v160006Ev, symObjAddr: 0x209BC, symBinAddr: 0x1000244B8, symSize: 0x14 }
  - { offsetInCU: 0x59225, offset: 0x59225, size: 0x8, addend: 0x0, symName: __ZNKSt3__16vectorIN8nlohmann16json_abi_v3_11_210basic_jsonINS_3mapES0_NS_12basic_stringIcNS_11char_traitsIcEENS_9allocatorIcEEEEbxydS8_NS2_14adl_serializerENS0_IhNS8_IhEEEEEENS8_ISE_EEE8capacityB7v160006Ev, symObjAddr: 0x209D0, symBinAddr: 0x1000244CC, symSize: 0x40 }
  - { offsetInCU: 0x5924B, offset: 0x5924B, size: 0x8, addend: 0x0, symName: __ZNKSt3__16vectorIN8nlohmann16json_abi_v3_11_210basic_jsonINS_3mapES0_NS_12basic_stringIcNS_11char_traitsIcEENS_9allocatorIcEEEEbxydS8_NS2_14adl_serializerENS0_IhNS8_IhEEEEEENS8_ISE_EEE8max_sizeEv, symObjAddr: 0x20A10, symBinAddr: 0x10002450C, symSize: 0x60 }
  - { offsetInCU: 0x59273, offset: 0x59273, size: 0x8, addend: 0x0, symName: __ZNKSt3__16vectorIN8nlohmann16json_abi_v3_11_210basic_jsonINS_3mapES0_NS_12basic_stringIcNS_11char_traitsIcEENS_9allocatorIcEEEEbxydS8_NS2_14adl_serializerENS0_IhNS8_IhEEEEEENS8_ISE_EEE20__throw_length_errorB7v160006Ev, symObjAddr: 0x20A70, symBinAddr: 0x10002456C, symSize: 0x1C }
  - { offsetInCU: 0x59299, offset: 0x59299, size: 0x8, addend: 0x0, symName: __ZNSt3__16vectorIN8nlohmann16json_abi_v3_11_210basic_jsonINS_3mapES0_NS_12basic_stringIcNS_11char_traitsIcEENS_9allocatorIcEEEEbxydS8_NS2_14adl_serializerENS0_IhNS8_IhEEEEEENS8_ISE_EEE7__allocB7v160006Ev, symObjAddr: 0x20A8C, symBinAddr: 0x100024588, symSize: 0x28 }
  - { offsetInCU: 0x592BF, offset: 0x592BF, size: 0x8, addend: 0x0, symName: __ZNSt3__114__split_bufferIN8nlohmann16json_abi_v3_11_210basic_jsonINS_3mapENS_6vectorENS_12basic_stringIcNS_11char_traitsIcEENS_9allocatorIcEEEEbxydS9_NS2_14adl_serializerENS5_IhNS9_IhEEEEEERNS9_ISF_EEEC1EmmSH_, symObjAddr: 0x20AB4, symBinAddr: 0x1000245B0, symSize: 0x44 }
  - { offsetInCU: 0x59315, offset: 0x59315, size: 0x8, addend: 0x0, symName: __ZNSt3__114__split_bufferIN8nlohmann16json_abi_v3_11_210basic_jsonINS_3mapENS_6vectorENS_12basic_stringIcNS_11char_traitsIcEENS_9allocatorIcEEEEbxydS9_NS2_14adl_serializerENS5_IhNS9_IhEEEEEERNS9_ISF_EEED1Ev, symObjAddr: 0x20C10, symBinAddr: 0x10002470C, symSize: 0x2C }
  - { offsetInCU: 0x59341, offset: 0x59341, size: 0x8, addend: 0x0, symName: __ZNKSt3__16vectorIN8nlohmann16json_abi_v3_11_210basic_jsonINS_3mapES0_NS_12basic_stringIcNS_11char_traitsIcEENS_9allocatorIcEEEEbxydS8_NS2_14adl_serializerENS0_IhNS8_IhEEEEEENS8_ISE_EEE9__end_capB7v160006Ev, symObjAddr: 0x20C3C, symBinAddr: 0x100024738, symSize: 0x28 }
  - { offsetInCU: 0x59367, offset: 0x59367, size: 0x8, addend: 0x0, symName: __ZNKSt3__117__compressed_pairIPN8nlohmann16json_abi_v3_11_210basic_jsonINS_3mapENS_6vectorENS_12basic_stringIcNS_11char_traitsIcEENS_9allocatorIcEEEEbxydS9_NS2_14adl_serializerENS5_IhNS9_IhEEEEEENS9_ISF_EEE5firstB7v160006Ev, symObjAddr: 0x20C64, symBinAddr: 0x100024760, symSize: 0x24 }
  - { offsetInCU: 0x5938D, offset: 0x5938D, size: 0x8, addend: 0x0, symName: __ZNKSt3__122__compressed_pair_elemIPN8nlohmann16json_abi_v3_11_210basic_jsonINS_3mapENS_6vectorENS_12basic_stringIcNS_11char_traitsIcEENS_9allocatorIcEEEEbxydS9_NS2_14adl_serializerENS5_IhNS9_IhEEEEEELi0ELb0EE5__getB7v160006Ev, symObjAddr: 0x20C88, symBinAddr: 0x100024784, symSize: 0x14 }
  - { offsetInCU: 0x593BE, offset: 0x593BE, size: 0x8, addend: 0x0, symName: __ZNSt3__116allocator_traitsINS_9allocatorIN8nlohmann16json_abi_v3_11_210basic_jsonINS_3mapENS_6vectorENS_12basic_stringIcNS_11char_traitsIcEENS1_IcEEEEbxydS1_NS3_14adl_serializerENS6_IhNS1_IhEEEEEEEEE8max_sizeB7v160006ISG_vEEmRKSG_, symObjAddr: 0x20C9C, symBinAddr: 0x100024798, symSize: 0x24 }
  - { offsetInCU: 0x593EC, offset: 0x593EC, size: 0x8, addend: 0x0, symName: __ZNKSt3__16vectorIN8nlohmann16json_abi_v3_11_210basic_jsonINS_3mapES0_NS_12basic_stringIcNS_11char_traitsIcEENS_9allocatorIcEEEEbxydS8_NS2_14adl_serializerENS0_IhNS8_IhEEEEEENS8_ISE_EEE7__allocB7v160006Ev, symObjAddr: 0x20CC0, symBinAddr: 0x1000247BC, symSize: 0x28 }
  - { offsetInCU: 0x59412, offset: 0x59412, size: 0x8, addend: 0x0, symName: __ZNKSt3__19allocatorIN8nlohmann16json_abi_v3_11_210basic_jsonINS_3mapENS_6vectorENS_12basic_stringIcNS_11char_traitsIcEENS0_IcEEEEbxydS0_NS2_14adl_serializerENS5_IhNS0_IhEEEEEEE8max_sizeB7v160006Ev, symObjAddr: 0x20CE8, symBinAddr: 0x1000247E4, symSize: 0x14 }
  - { offsetInCU: 0x59438, offset: 0x59438, size: 0x8, addend: 0x0, symName: __ZNKSt3__117__compressed_pairIPN8nlohmann16json_abi_v3_11_210basic_jsonINS_3mapENS_6vectorENS_12basic_stringIcNS_11char_traitsIcEENS_9allocatorIcEEEEbxydS9_NS2_14adl_serializerENS5_IhNS9_IhEEEEEENS9_ISF_EEE6secondB7v160006Ev, symObjAddr: 0x20CFC, symBinAddr: 0x1000247F8, symSize: 0x24 }
  - { offsetInCU: 0x5945E, offset: 0x5945E, size: 0x8, addend: 0x0, symName: __ZNKSt3__122__compressed_pair_elemINS_9allocatorIN8nlohmann16json_abi_v3_11_210basic_jsonINS_3mapENS_6vectorENS_12basic_stringIcNS_11char_traitsIcEENS1_IcEEEEbxydS1_NS3_14adl_serializerENS6_IhNS1_IhEEEEEEEELi1ELb1EE5__getB7v160006Ev, symObjAddr: 0x20D20, symBinAddr: 0x10002481C, symSize: 0x14 }
  - { offsetInCU: 0x59484, offset: 0x59484, size: 0x8, addend: 0x0, symName: __ZNSt3__117__compressed_pairIPN8nlohmann16json_abi_v3_11_210basic_jsonINS_3mapENS_6vectorENS_12basic_stringIcNS_11char_traitsIcEENS_9allocatorIcEEEEbxydS9_NS2_14adl_serializerENS5_IhNS9_IhEEEEEENS9_ISF_EEE6secondB7v160006Ev, symObjAddr: 0x20D34, symBinAddr: 0x100024830, symSize: 0x24 }
  - { offsetInCU: 0x594AA, offset: 0x594AA, size: 0x8, addend: 0x0, symName: __ZNSt3__122__compressed_pair_elemINS_9allocatorIN8nlohmann16json_abi_v3_11_210basic_jsonINS_3mapENS_6vectorENS_12basic_stringIcNS_11char_traitsIcEENS1_IcEEEEbxydS1_NS3_14adl_serializerENS6_IhNS1_IhEEEEEEEELi1ELb1EE5__getB7v160006Ev, symObjAddr: 0x20D58, symBinAddr: 0x100024854, symSize: 0x14 }
  - { offsetInCU: 0x594D0, offset: 0x594D0, size: 0x8, addend: 0x0, symName: __ZNSt3__114__split_bufferIN8nlohmann16json_abi_v3_11_210basic_jsonINS_3mapENS_6vectorENS_12basic_stringIcNS_11char_traitsIcEENS_9allocatorIcEEEEbxydS9_NS2_14adl_serializerENS5_IhNS9_IhEEEEEERNS9_ISF_EEEC2EmmSH_, symObjAddr: 0x20D6C, symBinAddr: 0x100024868, symSize: 0xD4 }
  - { offsetInCU: 0x59543, offset: 0x59543, size: 0x8, addend: 0x0, symName: __ZNSt3__117__compressed_pairIPN8nlohmann16json_abi_v3_11_210basic_jsonINS_3mapENS_6vectorENS_12basic_stringIcNS_11char_traitsIcEENS_9allocatorIcEEEEbxydS9_NS2_14adl_serializerENS5_IhNS9_IhEEEEEERNS9_ISF_EEEC1B7v160006IDnSI_EEOT_OT0_, symObjAddr: 0x20E40, symBinAddr: 0x10002493C, symSize: 0x3C }
  - { offsetInCU: 0x5959B, offset: 0x5959B, size: 0x8, addend: 0x0, symName: __ZNSt3__114__split_bufferIN8nlohmann16json_abi_v3_11_210basic_jsonINS_3mapENS_6vectorENS_12basic_stringIcNS_11char_traitsIcEENS_9allocatorIcEEEEbxydS9_NS2_14adl_serializerENS5_IhNS9_IhEEEEEERNS9_ISF_EEE7__allocB7v160006Ev, symObjAddr: 0x20EBC, symBinAddr: 0x1000249B8, symSize: 0x28 }
  - { offsetInCU: 0x595C1, offset: 0x595C1, size: 0x8, addend: 0x0, symName: __ZNSt3__114__split_bufferIN8nlohmann16json_abi_v3_11_210basic_jsonINS_3mapENS_6vectorENS_12basic_stringIcNS_11char_traitsIcEENS_9allocatorIcEEEEbxydS9_NS2_14adl_serializerENS5_IhNS9_IhEEEEEERNS9_ISF_EEE9__end_capB7v160006Ev, symObjAddr: 0x20EE4, symBinAddr: 0x1000249E0, symSize: 0x28 }
  - { offsetInCU: 0x595E7, offset: 0x595E7, size: 0x8, addend: 0x0, symName: __ZNSt3__117__compressed_pairIPN8nlohmann16json_abi_v3_11_210basic_jsonINS_3mapENS_6vectorENS_12basic_stringIcNS_11char_traitsIcEENS_9allocatorIcEEEEbxydS9_NS2_14adl_serializerENS5_IhNS9_IhEEEEEERNS9_ISF_EEEC2B7v160006IDnSI_EEOT_OT0_, symObjAddr: 0x20F0C, symBinAddr: 0x100024A08, symSize: 0x48 }
  - { offsetInCU: 0x5963F, offset: 0x5963F, size: 0x8, addend: 0x0, symName: __ZNSt3__122__compressed_pair_elemIRNS_9allocatorIN8nlohmann16json_abi_v3_11_210basic_jsonINS_3mapENS_6vectorENS_12basic_stringIcNS_11char_traitsIcEENS1_IcEEEEbxydS1_NS3_14adl_serializerENS6_IhNS1_IhEEEEEEEELi1ELb0EEC2B7v160006ISH_vEEOT_, symObjAddr: 0x20F54, symBinAddr: 0x100024A50, symSize: 0x20 }
  - { offsetInCU: 0x59681, offset: 0x59681, size: 0x8, addend: 0x0, symName: __ZNSt3__19allocatorIN8nlohmann16json_abi_v3_11_210basic_jsonINS_3mapENS_6vectorENS_12basic_stringIcNS_11char_traitsIcEENS0_IcEEEEbxydS0_NS2_14adl_serializerENS5_IhNS0_IhEEEEEEE8allocateB7v160006Em, symObjAddr: 0x20F74, symBinAddr: 0x100024A70, symSize: 0x58 }
  - { offsetInCU: 0x596B5, offset: 0x596B5, size: 0x8, addend: 0x0, symName: __ZNSt3__117__compressed_pairIPN8nlohmann16json_abi_v3_11_210basic_jsonINS_3mapENS_6vectorENS_12basic_stringIcNS_11char_traitsIcEENS_9allocatorIcEEEEbxydS9_NS2_14adl_serializerENS5_IhNS9_IhEEEEEERNS9_ISF_EEE6secondB7v160006Ev, symObjAddr: 0x20FCC, symBinAddr: 0x100024AC8, symSize: 0x28 }
  - { offsetInCU: 0x596DB, offset: 0x596DB, size: 0x8, addend: 0x0, symName: __ZNSt3__122__compressed_pair_elemIRNS_9allocatorIN8nlohmann16json_abi_v3_11_210basic_jsonINS_3mapENS_6vectorENS_12basic_stringIcNS_11char_traitsIcEENS1_IcEEEEbxydS1_NS3_14adl_serializerENS6_IhNS1_IhEEEEEEEELi1ELb0EE5__getB7v160006Ev, symObjAddr: 0x20FF4, symBinAddr: 0x100024AF0, symSize: 0x18 }
  - { offsetInCU: 0x59701, offset: 0x59701, size: 0x8, addend: 0x0, symName: __ZNSt3__117__compressed_pairIPN8nlohmann16json_abi_v3_11_210basic_jsonINS_3mapENS_6vectorENS_12basic_stringIcNS_11char_traitsIcEENS_9allocatorIcEEEEbxydS9_NS2_14adl_serializerENS5_IhNS9_IhEEEEEERNS9_ISF_EEE5firstB7v160006Ev, symObjAddr: 0x2100C, symBinAddr: 0x100024B08, symSize: 0x24 }
  - { offsetInCU: 0x59727, offset: 0x59727, size: 0x8, addend: 0x0, symName: __ZNSt3__122__compressed_pair_elemIPN8nlohmann16json_abi_v3_11_210basic_jsonINS_3mapENS_6vectorENS_12basic_stringIcNS_11char_traitsIcEENS_9allocatorIcEEEEbxydS9_NS2_14adl_serializerENS5_IhNS9_IhEEEEEELi0ELb0EE5__getB7v160006Ev, symObjAddr: 0x21030, symBinAddr: 0x100024B2C, symSize: 0x14 }
  - { offsetInCU: 0x5974D, offset: 0x5974D, size: 0x8, addend: 0x0, symName: __ZNKSt3__16vectorIN8nlohmann16json_abi_v3_11_210basic_jsonINS_3mapES0_NS_12basic_stringIcNS_11char_traitsIcEENS_9allocatorIcEEEEbxydS8_NS2_14adl_serializerENS0_IhNS8_IhEEEEEENS8_ISE_EEE17__annotate_deleteB7v160006Ev, symObjAddr: 0x21044, symBinAddr: 0x100024B40, symSize: 0xB8 }
  - { offsetInCU: 0x59773, offset: 0x59773, size: 0x8, addend: 0x0, symName: __ZNSt3__116reverse_iteratorIPN8nlohmann16json_abi_v3_11_210basic_jsonINS_3mapENS_6vectorENS_12basic_stringIcNS_11char_traitsIcEENS_9allocatorIcEEEEbxydS9_NS2_14adl_serializerENS5_IhNS9_IhEEEEEEEC1B7v160006ESG_, symObjAddr: 0x21228, symBinAddr: 0x100024D24, symSize: 0x34 }
  - { offsetInCU: 0x597AB, offset: 0x597AB, size: 0x8, addend: 0x0, symName: __ZNKSt3__116reverse_iteratorIPN8nlohmann16json_abi_v3_11_210basic_jsonINS_3mapENS_6vectorENS_12basic_stringIcNS_11char_traitsIcEENS_9allocatorIcEEEEbxydS9_NS2_14adl_serializerENS5_IhNS9_IhEEEEEEE4baseB7v160006Ev, symObjAddr: 0x2125C, symBinAddr: 0x100024D58, symSize: 0x18 }
  - { offsetInCU: 0x597D1, offset: 0x597D1, size: 0x8, addend: 0x0, symName: __ZNSt3__16vectorIN8nlohmann16json_abi_v3_11_210basic_jsonINS_3mapES0_NS_12basic_stringIcNS_11char_traitsIcEENS_9allocatorIcEEEEbxydS8_NS2_14adl_serializerENS0_IhNS8_IhEEEEEENS8_ISE_EEE9__end_capB7v160006Ev, symObjAddr: 0x212B0, symBinAddr: 0x100024DAC, symSize: 0x28 }
  - { offsetInCU: 0x597F7, offset: 0x597F7, size: 0x8, addend: 0x0, symName: __ZNKSt3__16vectorIN8nlohmann16json_abi_v3_11_210basic_jsonINS_3mapES0_NS_12basic_stringIcNS_11char_traitsIcEENS_9allocatorIcEEEEbxydS8_NS2_14adl_serializerENS0_IhNS8_IhEEEEEENS8_ISE_EEE14__annotate_newB7v160006Em, symObjAddr: 0x212D8, symBinAddr: 0x100024DD4, symSize: 0xAC }
  - { offsetInCU: 0x5982C, offset: 0x5982C, size: 0x8, addend: 0x0, symName: __ZNKSt3__16vectorIN8nlohmann16json_abi_v3_11_210basic_jsonINS_3mapES0_NS_12basic_stringIcNS_11char_traitsIcEENS_9allocatorIcEEEEbxydS8_NS2_14adl_serializerENS0_IhNS8_IhEEEEEENS8_ISE_EEE31__annotate_contiguous_containerB7v160006EPKvSI_SI_SI_, symObjAddr: 0x21394, symBinAddr: 0x100024E90, symSize: 0x20 }
  - { offsetInCU: 0x59882, offset: 0x59882, size: 0x8, addend: 0x0, symName: __ZNKSt3__16vectorIN8nlohmann16json_abi_v3_11_210basic_jsonINS_3mapES0_NS_12basic_stringIcNS_11char_traitsIcEENS_9allocatorIcEEEEbxydS8_NS2_14adl_serializerENS0_IhNS8_IhEEEEEENS8_ISE_EEE4dataB7v160006Ev, symObjAddr: 0x213B4, symBinAddr: 0x100024EB0, symSize: 0x28 }
  - { offsetInCU: 0x598A8, offset: 0x598A8, size: 0x8, addend: 0x0, symName: __ZNSt3__129_AllocatorDestroyRangeReverseINS_9allocatorIN8nlohmann16json_abi_v3_11_210basic_jsonINS_3mapENS_6vectorENS_12basic_stringIcNS_11char_traitsIcEENS1_IcEEEEbxydS1_NS3_14adl_serializerENS6_IhNS1_IhEEEEEEEENS_16reverse_iteratorIPSF_EEEC1B7v160006ERSG_RSJ_SM_, symObjAddr: 0x2143C, symBinAddr: 0x100024F38, symSize: 0x44 }
  - { offsetInCU: 0x598FF, offset: 0x598FF, size: 0x8, addend: 0x0, symName: __ZNSt3__116allocator_traitsINS_9allocatorIN8nlohmann16json_abi_v3_11_210basic_jsonINS_3mapENS_6vectorENS_12basic_stringIcNS_11char_traitsIcEENS1_IcEEEEbxydS1_NS3_14adl_serializerENS6_IhNS1_IhEEEEEEEEE9constructB7v160006ISF_JSF_EvEEvRSG_PT_DpOT0_, symObjAddr: 0x214C8, symBinAddr: 0x100024FC4, symSize: 0x34 }
  - { offsetInCU: 0x59956, offset: 0x59956, size: 0x8, addend: 0x0, symName: __ZNKSt3__116reverse_iteratorIPN8nlohmann16json_abi_v3_11_210basic_jsonINS_3mapENS_6vectorENS_12basic_stringIcNS_11char_traitsIcEENS_9allocatorIcEEEEbxydS9_NS2_14adl_serializerENS5_IhNS9_IhEEEEEEEdeB7v160006Ev, symObjAddr: 0x21520, symBinAddr: 0x10002501C, symSize: 0x28 }
  - { offsetInCU: 0x5998A, offset: 0x5998A, size: 0x8, addend: 0x0, symName: __ZNSt3__116reverse_iteratorIPN8nlohmann16json_abi_v3_11_210basic_jsonINS_3mapENS_6vectorENS_12basic_stringIcNS_11char_traitsIcEENS_9allocatorIcEEEEbxydS9_NS2_14adl_serializerENS5_IhNS9_IhEEEEEEEppB7v160006Ev, symObjAddr: 0x21548, symBinAddr: 0x100025044, symSize: 0x20 }
  - { offsetInCU: 0x599B0, offset: 0x599B0, size: 0x8, addend: 0x0, symName: __ZNSt3__128__exception_guard_exceptionsINS_29_AllocatorDestroyRangeReverseINS_9allocatorIN8nlohmann16json_abi_v3_11_210basic_jsonINS_3mapENS_6vectorENS_12basic_stringIcNS_11char_traitsIcEENS2_IcEEEEbxydS2_NS4_14adl_serializerENS7_IhNS2_IhEEEEEEEENS_16reverse_iteratorIPSG_EEEEE10__completeB7v160006Ev, symObjAddr: 0x21568, symBinAddr: 0x100025064, symSize: 0x1C }
  - { offsetInCU: 0x599D6, offset: 0x599D6, size: 0x8, addend: 0x0, symName: __ZNSt3__128__exception_guard_exceptionsINS_29_AllocatorDestroyRangeReverseINS_9allocatorIN8nlohmann16json_abi_v3_11_210basic_jsonINS_3mapENS_6vectorENS_12basic_stringIcNS_11char_traitsIcEENS2_IcEEEEbxydS2_NS4_14adl_serializerENS7_IhNS2_IhEEEEEEEENS_16reverse_iteratorIPSG_EEEEED1B7v160006Ev, symObjAddr: 0x21584, symBinAddr: 0x100025080, symSize: 0x2C }
  - { offsetInCU: 0x59A00, offset: 0x59A00, size: 0x8, addend: 0x0, symName: __ZNSt3__128__exception_guard_exceptionsINS_29_AllocatorDestroyRangeReverseINS_9allocatorIN8nlohmann16json_abi_v3_11_210basic_jsonINS_3mapENS_6vectorENS_12basic_stringIcNS_11char_traitsIcEENS2_IcEEEEbxydS2_NS4_14adl_serializerENS7_IhNS2_IhEEEEEEEENS_16reverse_iteratorIPSG_EEEEEC1B7v160006ESL_, symObjAddr: 0x215B0, symBinAddr: 0x1000250AC, symSize: 0x34 }
  - { offsetInCU: 0x59A39, offset: 0x59A39, size: 0x8, addend: 0x0, symName: __ZNSt3__128__exception_guard_exceptionsINS_29_AllocatorDestroyRangeReverseINS_9allocatorIN8nlohmann16json_abi_v3_11_210basic_jsonINS_3mapENS_6vectorENS_12basic_stringIcNS_11char_traitsIcEENS2_IcEEEEbxydS2_NS4_14adl_serializerENS7_IhNS2_IhEEEEEEEENS_16reverse_iteratorIPSG_EEEEEC2B7v160006ESL_, symObjAddr: 0x215E4, symBinAddr: 0x1000250E0, symSize: 0x30 }
  - { offsetInCU: 0x59A72, offset: 0x59A72, size: 0x8, addend: 0x0, symName: __ZNSt3__129_AllocatorDestroyRangeReverseINS_9allocatorIN8nlohmann16json_abi_v3_11_210basic_jsonINS_3mapENS_6vectorENS_12basic_stringIcNS_11char_traitsIcEENS1_IcEEEEbxydS1_NS3_14adl_serializerENS6_IhNS1_IhEEEEEEEENS_16reverse_iteratorIPSF_EEEC2B7v160006ERSG_RSJ_SM_, symObjAddr: 0x21614, symBinAddr: 0x100025110, symSize: 0x38 }
  - { offsetInCU: 0x59AC9, offset: 0x59AC9, size: 0x8, addend: 0x0, symName: __ZNSt3__19allocatorIN8nlohmann16json_abi_v3_11_210basic_jsonINS_3mapENS_6vectorENS_12basic_stringIcNS_11char_traitsIcEENS0_IcEEEEbxydS0_NS2_14adl_serializerENS5_IhNS0_IhEEEEEEE9constructB7v160006ISE_JSE_EEEvPT_DpOT0_, symObjAddr: 0x2164C, symBinAddr: 0x100025148, symSize: 0x30 }
  - { offsetInCU: 0x59B25, offset: 0x59B25, size: 0x8, addend: 0x0, symName: __ZNSt3__119__to_address_helperINS_16reverse_iteratorIPN8nlohmann16json_abi_v3_11_210basic_jsonINS_3mapENS_6vectorENS_12basic_stringIcNS_11char_traitsIcEENS_9allocatorIcEEEEbxydSA_NS3_14adl_serializerENS6_IhNSA_IhEEEEEEEEvE6__callB7v160006ERKSI_, symObjAddr: 0x2167C, symBinAddr: 0x100025178, symSize: 0x38 }
  - { offsetInCU: 0x59B48, offset: 0x59B48, size: 0x8, addend: 0x0, symName: __ZNKSt3__116reverse_iteratorIPN8nlohmann16json_abi_v3_11_210basic_jsonINS_3mapENS_6vectorENS_12basic_stringIcNS_11char_traitsIcEENS_9allocatorIcEEEEbxydS9_NS2_14adl_serializerENS5_IhNS9_IhEEEEEEEptB7v160006Ev, symObjAddr: 0x216B4, symBinAddr: 0x1000251B0, symSize: 0x24 }
  - { offsetInCU: 0x59B6E, offset: 0x59B6E, size: 0x8, addend: 0x0, symName: __ZNSt3__128__exception_guard_exceptionsINS_29_AllocatorDestroyRangeReverseINS_9allocatorIN8nlohmann16json_abi_v3_11_210basic_jsonINS_3mapENS_6vectorENS_12basic_stringIcNS_11char_traitsIcEENS2_IcEEEEbxydS2_NS4_14adl_serializerENS7_IhNS2_IhEEEEEEEENS_16reverse_iteratorIPSG_EEEEED2B7v160006Ev, symObjAddr: 0x216D8, symBinAddr: 0x1000251D4, symSize: 0x50 }
  - { offsetInCU: 0x59B98, offset: 0x59B98, size: 0x8, addend: 0x0, symName: __ZNKSt3__129_AllocatorDestroyRangeReverseINS_9allocatorIN8nlohmann16json_abi_v3_11_210basic_jsonINS_3mapENS_6vectorENS_12basic_stringIcNS_11char_traitsIcEENS1_IcEEEEbxydS1_NS3_14adl_serializerENS6_IhNS1_IhEEEEEEEENS_16reverse_iteratorIPSF_EEEclB7v160006Ev, symObjAddr: 0x21728, symBinAddr: 0x100025224, symSize: 0xB4 }
  - { offsetInCU: 0x59BBF, offset: 0x59BBF, size: 0x8, addend: 0x0, symName: __ZNSt3__116reverse_iteratorINS0_IPN8nlohmann16json_abi_v3_11_210basic_jsonINS_3mapENS_6vectorENS_12basic_stringIcNS_11char_traitsIcEENS_9allocatorIcEEEEbxydS9_NS2_14adl_serializerENS5_IhNS9_IhEEEEEEEEEC1B7v160006ESH_, symObjAddr: 0x2184C, symBinAddr: 0x100025348, symSize: 0x3C }
  - { offsetInCU: 0x59BF7, offset: 0x59BF7, size: 0x8, addend: 0x0, symName: __ZNSt3__116allocator_traitsINS_9allocatorIN8nlohmann16json_abi_v3_11_210basic_jsonINS_3mapENS_6vectorENS_12basic_stringIcNS_11char_traitsIcEENS1_IcEEEEbxydS1_NS3_14adl_serializerENS6_IhNS1_IhEEEEEEEEE7destroyB7v160006ISF_vEEvRSG_PT_, symObjAddr: 0x218E8, symBinAddr: 0x1000253E4, symSize: 0x2C }
  - { offsetInCU: 0x59C34, offset: 0x59C34, size: 0x8, addend: 0x0, symName: __ZNSt3__116reverse_iteratorINS0_IPN8nlohmann16json_abi_v3_11_210basic_jsonINS_3mapENS_6vectorENS_12basic_stringIcNS_11char_traitsIcEENS_9allocatorIcEEEEbxydS9_NS2_14adl_serializerENS5_IhNS9_IhEEEEEEEEEppB7v160006Ev, symObjAddr: 0x21938, symBinAddr: 0x100025434, symSize: 0x30 }
  - { offsetInCU: 0x59C5A, offset: 0x59C5A, size: 0x8, addend: 0x0, symName: __ZNKSt3__116reverse_iteratorINS0_IPN8nlohmann16json_abi_v3_11_210basic_jsonINS_3mapENS_6vectorENS_12basic_stringIcNS_11char_traitsIcEENS_9allocatorIcEEEEbxydS9_NS2_14adl_serializerENS5_IhNS9_IhEEEEEEEEE4baseB7v160006Ev, symObjAddr: 0x21968, symBinAddr: 0x100025464, symSize: 0x24 }
  - { offsetInCU: 0x59C80, offset: 0x59C80, size: 0x8, addend: 0x0, symName: __ZNSt3__19allocatorIN8nlohmann16json_abi_v3_11_210basic_jsonINS_3mapENS_6vectorENS_12basic_stringIcNS_11char_traitsIcEENS0_IcEEEEbxydS0_NS2_14adl_serializerENS5_IhNS0_IhEEEEEEE7destroyB7v160006EPSE_, symObjAddr: 0x2198C, symBinAddr: 0x100025488, symSize: 0x28 }
  - { offsetInCU: 0x59CBA, offset: 0x59CBA, size: 0x8, addend: 0x0, symName: __ZNSt3__119__to_address_helperINS_16reverse_iteratorINS1_IPN8nlohmann16json_abi_v3_11_210basic_jsonINS_3mapENS_6vectorENS_12basic_stringIcNS_11char_traitsIcEENS_9allocatorIcEEEEbxydSA_NS3_14adl_serializerENS6_IhNSA_IhEEEEEEEEEEvE6__callB7v160006ERKSJ_, symObjAddr: 0x219B4, symBinAddr: 0x1000254B0, symSize: 0x38 }
  - { offsetInCU: 0x59CDD, offset: 0x59CDD, size: 0x8, addend: 0x0, symName: __ZNKSt3__116reverse_iteratorINS0_IPN8nlohmann16json_abi_v3_11_210basic_jsonINS_3mapENS_6vectorENS_12basic_stringIcNS_11char_traitsIcEENS_9allocatorIcEEEEbxydS9_NS2_14adl_serializerENS5_IhNS9_IhEEEEEEEEEptB7v160006Ev, symObjAddr: 0x219EC, symBinAddr: 0x1000254E8, symSize: 0x24 }
  - { offsetInCU: 0x59D03, offset: 0x59D03, size: 0x8, addend: 0x0, symName: __ZNKSt3__116reverse_iteratorINS0_IPN8nlohmann16json_abi_v3_11_210basic_jsonINS_3mapENS_6vectorENS_12basic_stringIcNS_11char_traitsIcEENS_9allocatorIcEEEEbxydS9_NS2_14adl_serializerENS5_IhNS9_IhEEEEEEEEEdeB7v160006Ev, symObjAddr: 0x21A10, symBinAddr: 0x10002550C, symSize: 0x34 }
  - { offsetInCU: 0x59D37, offset: 0x59D37, size: 0x8, addend: 0x0, symName: __ZNSt3__116reverse_iteratorIPN8nlohmann16json_abi_v3_11_210basic_jsonINS_3mapENS_6vectorENS_12basic_stringIcNS_11char_traitsIcEENS_9allocatorIcEEEEbxydS9_NS2_14adl_serializerENS5_IhNS9_IhEEEEEEEmmB7v160006Ev, symObjAddr: 0x21A44, symBinAddr: 0x100025540, symSize: 0x20 }
  - { offsetInCU: 0x59D5D, offset: 0x59D5D, size: 0x8, addend: 0x0, symName: __ZNSt3__116reverse_iteratorINS0_IPN8nlohmann16json_abi_v3_11_210basic_jsonINS_3mapENS_6vectorENS_12basic_stringIcNS_11char_traitsIcEENS_9allocatorIcEEEEbxydS9_NS2_14adl_serializerENS5_IhNS9_IhEEEEEEEEEC2B7v160006ESH_, symObjAddr: 0x21A64, symBinAddr: 0x100025560, symSize: 0x2C }
  - { offsetInCU: 0x59D95, offset: 0x59D95, size: 0x8, addend: 0x0, symName: __ZNSt3__116reverse_iteratorIPN8nlohmann16json_abi_v3_11_210basic_jsonINS_3mapENS_6vectorENS_12basic_stringIcNS_11char_traitsIcEENS_9allocatorIcEEEEbxydS9_NS2_14adl_serializerENS5_IhNS9_IhEEEEEEEC2B7v160006ESG_, symObjAddr: 0x21A90, symBinAddr: 0x10002558C, symSize: 0x28 }
  - { offsetInCU: 0x59DCD, offset: 0x59DCD, size: 0x8, addend: 0x0, symName: __ZNSt3__117__compressed_pairIPN8nlohmann16json_abi_v3_11_210basic_jsonINS_3mapENS_6vectorENS_12basic_stringIcNS_11char_traitsIcEENS_9allocatorIcEEEEbxydS9_NS2_14adl_serializerENS5_IhNS9_IhEEEEEENS9_ISF_EEE5firstB7v160006Ev, symObjAddr: 0x21AB8, symBinAddr: 0x1000255B4, symSize: 0x24 }
  - { offsetInCU: 0x59DF3, offset: 0x59DF3, size: 0x8, addend: 0x0, symName: __ZNSt3__114__split_bufferIN8nlohmann16json_abi_v3_11_210basic_jsonINS_3mapENS_6vectorENS_12basic_stringIcNS_11char_traitsIcEENS_9allocatorIcEEEEbxydS9_NS2_14adl_serializerENS5_IhNS9_IhEEEEEERNS9_ISF_EEED2Ev, symObjAddr: 0x21ADC, symBinAddr: 0x1000255D8, symSize: 0x8C }
  - { offsetInCU: 0x59E1F, offset: 0x59E1F, size: 0x8, addend: 0x0, symName: __ZNSt3__114__split_bufferIN8nlohmann16json_abi_v3_11_210basic_jsonINS_3mapENS_6vectorENS_12basic_stringIcNS_11char_traitsIcEENS_9allocatorIcEEEEbxydS9_NS2_14adl_serializerENS5_IhNS9_IhEEEEEERNS9_ISF_EEE5clearB7v160006Ev, symObjAddr: 0x21B68, symBinAddr: 0x100025664, symSize: 0x28 }
  - { offsetInCU: 0x59E45, offset: 0x59E45, size: 0x8, addend: 0x0, symName: __ZNSt3__116allocator_traitsINS_9allocatorIN8nlohmann16json_abi_v3_11_210basic_jsonINS_3mapENS_6vectorENS_12basic_stringIcNS_11char_traitsIcEENS1_IcEEEEbxydS1_NS3_14adl_serializerENS6_IhNS1_IhEEEEEEEEE10deallocateB7v160006ERSG_PSF_m, symObjAddr: 0x21B90, symBinAddr: 0x10002568C, symSize: 0x34 }
  - { offsetInCU: 0x59E87, offset: 0x59E87, size: 0x8, addend: 0x0, symName: __ZNKSt3__114__split_bufferIN8nlohmann16json_abi_v3_11_210basic_jsonINS_3mapENS_6vectorENS_12basic_stringIcNS_11char_traitsIcEENS_9allocatorIcEEEEbxydS9_NS2_14adl_serializerENS5_IhNS9_IhEEEEEERNS9_ISF_EEE8capacityB7v160006Ev, symObjAddr: 0x21BC4, symBinAddr: 0x1000256C0, symSize: 0x40 }
  - { offsetInCU: 0x59EAD, offset: 0x59EAD, size: 0x8, addend: 0x0, symName: __ZNSt3__114__split_bufferIN8nlohmann16json_abi_v3_11_210basic_jsonINS_3mapENS_6vectorENS_12basic_stringIcNS_11char_traitsIcEENS_9allocatorIcEEEEbxydS9_NS2_14adl_serializerENS5_IhNS9_IhEEEEEERNS9_ISF_EEE17__destruct_at_endB7v160006EPSF_, symObjAddr: 0x21C04, symBinAddr: 0x100025700, symSize: 0x2C }
  - { offsetInCU: 0x59EE1, offset: 0x59EE1, size: 0x8, addend: 0x0, symName: __ZNSt3__114__split_bufferIN8nlohmann16json_abi_v3_11_210basic_jsonINS_3mapENS_6vectorENS_12basic_stringIcNS_11char_traitsIcEENS_9allocatorIcEEEEbxydS9_NS2_14adl_serializerENS5_IhNS9_IhEEEEEERNS9_ISF_EEE17__destruct_at_endB7v160006EPSF_NS_17integral_constantIbLb0EEE, symObjAddr: 0x21C30, symBinAddr: 0x10002572C, symSize: 0x80 }
  - { offsetInCU: 0x59F22, offset: 0x59F22, size: 0x8, addend: 0x0, symName: __ZNSt3__19allocatorIN8nlohmann16json_abi_v3_11_210basic_jsonINS_3mapENS_6vectorENS_12basic_stringIcNS_11char_traitsIcEENS0_IcEEEEbxydS0_NS2_14adl_serializerENS5_IhNS0_IhEEEEEEE10deallocateB7v160006EPSE_m, symObjAddr: 0x21CB0, symBinAddr: 0x1000257AC, symSize: 0x40 }
  - { offsetInCU: 0x59F64, offset: 0x59F64, size: 0x8, addend: 0x0, symName: __ZNKSt3__114__split_bufferIN8nlohmann16json_abi_v3_11_210basic_jsonINS_3mapENS_6vectorENS_12basic_stringIcNS_11char_traitsIcEENS_9allocatorIcEEEEbxydS9_NS2_14adl_serializerENS5_IhNS9_IhEEEEEERNS9_ISF_EEE9__end_capB7v160006Ev, symObjAddr: 0x21CF0, symBinAddr: 0x1000257EC, symSize: 0x28 }
  - { offsetInCU: 0x59F8A, offset: 0x59F8A, size: 0x8, addend: 0x0, symName: __ZNKSt3__117__compressed_pairIPN8nlohmann16json_abi_v3_11_210basic_jsonINS_3mapENS_6vectorENS_12basic_stringIcNS_11char_traitsIcEENS_9allocatorIcEEEEbxydS9_NS2_14adl_serializerENS5_IhNS9_IhEEEEEERNS9_ISF_EEE5firstB7v160006Ev, symObjAddr: 0x21D18, symBinAddr: 0x100025814, symSize: 0x24 }
  - { offsetInCU: 0x59FD8, offset: 0x59FD8, size: 0x8, addend: 0x0, symName: __ZNKSt3__111__move_loopINS_17_ClassicAlgPolicyEEclB7v160006IPN8nlohmann16json_abi_v3_11_210basic_jsonINS_3mapENS_6vectorENS_12basic_stringIcNS_11char_traitsIcEENS_9allocatorIcEEEEbxydSC_NS5_14adl_serializerENS8_IhNSC_IhEEEEEESJ_NS_20back_insert_iteratorINS8_ISI_NSC_ISI_EEEEEEEENS_4pairIT_T1_EESP_T0_SQ_, symObjAddr: 0x21F4C, symBinAddr: 0x100025A48, symSize: 0x98 }
  - { offsetInCU: 0x5A066, offset: 0x5A066, size: 0x8, addend: 0x0, symName: __ZNSt3__14pairIPN8nlohmann16json_abi_v3_11_210basic_jsonINS_3mapENS_6vectorENS_12basic_stringIcNS_11char_traitsIcEENS_9allocatorIcEEEEbxydS9_NS2_14adl_serializerENS5_IhNS9_IhEEEEEESG_EC1B7v160006ISG_SG_LPv0EEEOT_OT0_, symObjAddr: 0x22144, symBinAddr: 0x100025C40, symSize: 0x3C }
  - { offsetInCU: 0x5A0C4, offset: 0x5A0C4, size: 0x8, addend: 0x0, symName: __ZNSt3__14pairIPN8nlohmann16json_abi_v3_11_210basic_jsonINS_3mapENS_6vectorENS_12basic_stringIcNS_11char_traitsIcEENS_9allocatorIcEEEEbxydS9_NS2_14adl_serializerENS5_IhNS9_IhEEEEEESG_EC2B7v160006ISG_SG_LPv0EEEOT_OT0_, symObjAddr: 0x22180, symBinAddr: 0x100025C7C, symSize: 0x34 }
  - { offsetInCU: 0x5A122, offset: 0x5A122, size: 0x8, addend: 0x0, symName: __ZNSt3__118__unwrap_iter_implINS_11__wrap_iterIPN8nlohmann16json_abi_v3_11_210basic_jsonINS_3mapENS_6vectorENS_12basic_stringIcNS_11char_traitsIcEENS_9allocatorIcEEEEbxydSA_NS3_14adl_serializerENS6_IhNSA_IhEEEEEEEELb1EE8__unwrapB7v160006ESI_, symObjAddr: 0x221B4, symBinAddr: 0x100025CB0, symSize: 0x28 }
  - { offsetInCU: 0x5A151, offset: 0x5A151, size: 0x8, addend: 0x0, symName: __ZNSt3__119__to_address_helperINS_11__wrap_iterIPN8nlohmann16json_abi_v3_11_210basic_jsonINS_3mapENS_6vectorENS_12basic_stringIcNS_11char_traitsIcEENS_9allocatorIcEEEEbxydSA_NS3_14adl_serializerENS6_IhNSA_IhEEEEEEEEvE6__callB7v160006ERKSI_, symObjAddr: 0x22200, symBinAddr: 0x100025CFC, symSize: 0x30 }
  - { offsetInCU: 0x5A174, offset: 0x5A174, size: 0x8, addend: 0x0, symName: __ZNSt3__114pointer_traitsINS_11__wrap_iterIPN8nlohmann16json_abi_v3_11_210basic_jsonINS_3mapENS_6vectorENS_12basic_stringIcNS_11char_traitsIcEENS_9allocatorIcEEEEbxydSA_NS3_14adl_serializerENS6_IhNSA_IhEEEEEEEEE10to_addressB7v160006ESI_, symObjAddr: 0x22230, symBinAddr: 0x100025D2C, symSize: 0x2C }
  - { offsetInCU: 0x5A198, offset: 0x5A198, size: 0x8, addend: 0x0, symName: __ZNKSt3__111__wrap_iterIPN8nlohmann16json_abi_v3_11_210basic_jsonINS_3mapENS_6vectorENS_12basic_stringIcNS_11char_traitsIcEENS_9allocatorIcEEEEbxydS9_NS2_14adl_serializerENS5_IhNS9_IhEEEEEEE4baseB7v160006Ev, symObjAddr: 0x2225C, symBinAddr: 0x100025D58, symSize: 0x18 }
  - { offsetInCU: 0x5A1BE, offset: 0x5A1BE, size: 0x8, addend: 0x0, symName: __ZNSt3__18_IterOpsINS_17_ClassicAlgPolicyEE11__iter_moveB7v160006IRPN8nlohmann16json_abi_v3_11_210basic_jsonINS_3mapENS_6vectorENS_12basic_stringIcNS_11char_traitsIcEENS_9allocatorIcEEEEbxydSC_NS5_14adl_serializerENS8_IhNSC_IhEEEEEEEENS_9enable_ifIXsr12is_referenceIDTdeclsr3stdE7declvalIRT_EEEEE5valueEDTclsr3stdE4movedeclsr3stdE7declvalISN_EEEEE4typeEOSM_, symObjAddr: 0x22274, symBinAddr: 0x100025D70, symSize: 0x28 }
  - { offsetInCU: 0x5A1EA, offset: 0x5A1EA, size: 0x8, addend: 0x0, symName: __ZNSt3__120back_insert_iteratorINS_6vectorIN8nlohmann16json_abi_v3_11_210basic_jsonINS_3mapES1_NS_12basic_stringIcNS_11char_traitsIcEENS_9allocatorIcEEEEbxydS9_NS3_14adl_serializerENS1_IhNS9_IhEEEEEENS9_ISF_EEEEEdeB7v160006Ev, symObjAddr: 0x2229C, symBinAddr: 0x100025D98, symSize: 0x14 }
  - { offsetInCU: 0x5A210, offset: 0x5A210, size: 0x8, addend: 0x0, symName: __ZNSt3__120back_insert_iteratorINS_6vectorIN8nlohmann16json_abi_v3_11_210basic_jsonINS_3mapES1_NS_12basic_stringIcNS_11char_traitsIcEENS_9allocatorIcEEEEbxydS9_NS3_14adl_serializerENS1_IhNS9_IhEEEEEENS9_ISF_EEEEEaSB7v160006EOSF_, symObjAddr: 0x222B0, symBinAddr: 0x100025DAC, symSize: 0x38 }
  - { offsetInCU: 0x5A244, offset: 0x5A244, size: 0x8, addend: 0x0, symName: __ZNSt3__120back_insert_iteratorINS_6vectorIN8nlohmann16json_abi_v3_11_210basic_jsonINS_3mapES1_NS_12basic_stringIcNS_11char_traitsIcEENS_9allocatorIcEEEEbxydS9_NS3_14adl_serializerENS1_IhNS9_IhEEEEEENS9_ISF_EEEEEppB7v160006Ev, symObjAddr: 0x222E8, symBinAddr: 0x100025DE4, symSize: 0x14 }
  - { offsetInCU: 0x5A26A, offset: 0x5A26A, size: 0x8, addend: 0x0, symName: __ZNSt3__18_IterOpsINS_17_ClassicAlgPolicyEE25__validate_iter_referenceB7v160006IRPN8nlohmann16json_abi_v3_11_210basic_jsonINS_3mapENS_6vectorENS_12basic_stringIcNS_11char_traitsIcEENS_9allocatorIcEEEEbxydSC_NS5_14adl_serializerENS8_IhNSC_IhEEEEEEEEvv, symObjAddr: 0x22334, symBinAddr: 0x100025E30, symSize: 0x4 }
  - { offsetInCU: 0x5A28E, offset: 0x5A28E, size: 0x8, addend: 0x0, symName: __ZNSt3__14pairIPN8nlohmann16json_abi_v3_11_210basic_jsonINS_3mapENS_6vectorENS_12basic_stringIcNS_11char_traitsIcEENS_9allocatorIcEEEEbxydS9_NS2_14adl_serializerENS5_IhNS9_IhEEEEEENS_20back_insert_iteratorINS5_ISF_NS9_ISF_EEEEEEEC1B7v160006ISG_SK_LPv0EEEOT_OT0_, symObjAddr: 0x22338, symBinAddr: 0x100025E34, symSize: 0x3C }
  - { offsetInCU: 0x5A2EC, offset: 0x5A2EC, size: 0x8, addend: 0x0, symName: __ZNSt3__14pairIPN8nlohmann16json_abi_v3_11_210basic_jsonINS_3mapENS_6vectorENS_12basic_stringIcNS_11char_traitsIcEENS_9allocatorIcEEEEbxydS9_NS2_14adl_serializerENS5_IhNS9_IhEEEEEENS_20back_insert_iteratorINS5_ISF_NS9_ISF_EEEEEEEC2B7v160006ISG_SK_LPv0EEEOT_OT0_, symObjAddr: 0x22374, symBinAddr: 0x100025E70, symSize: 0x34 }
  - { offsetInCU: 0x5A34A, offset: 0x5A34A, size: 0x8, addend: 0x0, symName: __ZNSt3__118__unwrap_iter_implINS_20back_insert_iteratorINS_6vectorIN8nlohmann16json_abi_v3_11_210basic_jsonINS_3mapES2_NS_12basic_stringIcNS_11char_traitsIcEENS_9allocatorIcEEEEbxydSA_NS4_14adl_serializerENS2_IhNSA_IhEEEEEENSA_ISG_EEEEEELb0EE8__unwrapB7v160006ESJ_, symObjAddr: 0x223A8, symBinAddr: 0x100025EA4, symSize: 0x1C }
  - { offsetInCU: 0x5A390, offset: 0x5A390, size: 0x8, addend: 0x0, symName: __ZNSt3__14pairINS_11__wrap_iterIPN8nlohmann16json_abi_v3_11_210basic_jsonINS_3mapENS_6vectorENS_12basic_stringIcNS_11char_traitsIcEENS_9allocatorIcEEEEbxydSA_NS3_14adl_serializerENS6_IhNSA_IhEEEEEEEENS_20back_insert_iteratorINS6_ISG_NSA_ISG_EEEEEEEC1B7v160006ISI_SM_LPv0EEEOT_OT0_, symObjAddr: 0x223C4, symBinAddr: 0x100025EC0, symSize: 0x3C }
  - { offsetInCU: 0x5A3EE, offset: 0x5A3EE, size: 0x8, addend: 0x0, symName: __ZNSt3__14pairINS_11__wrap_iterIPN8nlohmann16json_abi_v3_11_210basic_jsonINS_3mapENS_6vectorENS_12basic_stringIcNS_11char_traitsIcEENS_9allocatorIcEEEEbxydSA_NS3_14adl_serializerENS6_IhNSA_IhEEEEEEEENS_20back_insert_iteratorINS6_ISG_NSA_ISG_EEEEEEEC2B7v160006ISI_SM_LPv0EEEOT_OT0_, symObjAddr: 0x22400, symBinAddr: 0x100025EFC, symSize: 0x34 }
  - { offsetInCU: 0x5A44C, offset: 0x5A44C, size: 0x8, addend: 0x0, symName: __ZNSt3__118__unwrap_iter_implINS_11__wrap_iterIPN8nlohmann16json_abi_v3_11_210basic_jsonINS_3mapENS_6vectorENS_12basic_stringIcNS_11char_traitsIcEENS_9allocatorIcEEEEbxydSA_NS3_14adl_serializerENS6_IhNSA_IhEEEEEEEELb1EE8__rewrapB7v160006ESI_SH_, symObjAddr: 0x22480, symBinAddr: 0x100025F7C, symSize: 0x5C }
  - { offsetInCU: 0x5A47D, offset: 0x5A47D, size: 0x8, addend: 0x0, symName: __ZNKSt3__111__wrap_iterIPN8nlohmann16json_abi_v3_11_210basic_jsonINS_3mapENS_6vectorENS_12basic_stringIcNS_11char_traitsIcEENS_9allocatorIcEEEEbxydS9_NS2_14adl_serializerENS5_IhNS9_IhEEEEEEEplB7v160006El, symObjAddr: 0x224DC, symBinAddr: 0x100025FD8, symSize: 0x3C }
  - { offsetInCU: 0x5A4BF, offset: 0x5A4BF, size: 0x8, addend: 0x0, symName: __ZNSt3__111__wrap_iterIPN8nlohmann16json_abi_v3_11_210basic_jsonINS_3mapENS_6vectorENS_12basic_stringIcNS_11char_traitsIcEENS_9allocatorIcEEEEbxydS9_NS2_14adl_serializerENS5_IhNS9_IhEEEEEEEpLB7v160006El, symObjAddr: 0x22518, symBinAddr: 0x100026014, symSize: 0x28 }
  - { offsetInCU: 0x5A4F3, offset: 0x5A4F3, size: 0x8, addend: 0x0, symName: __ZNSt3__118__unwrap_iter_implINS_20back_insert_iteratorINS_6vectorIN8nlohmann16json_abi_v3_11_210basic_jsonINS_3mapES2_NS_12basic_stringIcNS_11char_traitsIcEENS_9allocatorIcEEEEbxydSA_NS4_14adl_serializerENS2_IhNSA_IhEEEEEENSA_ISG_EEEEEELb0EE8__rewrapB7v160006ESJ_SJ_, symObjAddr: 0x22540, symBinAddr: 0x10002603C, symSize: 0x20 }
  - { offsetInCU: 0x5A521, offset: 0x5A521, size: 0x8, addend: 0x0, symName: __ZNSt3__16vectorIN8nlohmann16json_abi_v3_11_210basic_jsonINS_3mapES0_NS_12basic_stringIcNS_11char_traitsIcEENS_9allocatorIcEEEEbxydS8_NS2_14adl_serializerENS0_IhNS8_IhEEEEEENS8_ISE_EEE11__make_iterB7v160006EPSE_, symObjAddr: 0x22560, symBinAddr: 0x10002605C, symSize: 0x34 }
  - { offsetInCU: 0x5A556, offset: 0x5A556, size: 0x8, addend: 0x0, symName: __ZNSt3__111__wrap_iterIPN8nlohmann16json_abi_v3_11_210basic_jsonINS_3mapENS_6vectorENS_12basic_stringIcNS_11char_traitsIcEENS_9allocatorIcEEEEbxydS9_NS2_14adl_serializerENS5_IhNS9_IhEEEEEEEC1B7v160006EPKvSG_, symObjAddr: 0x22594, symBinAddr: 0x100026090, symSize: 0x3C }
  - { offsetInCU: 0x5A59C, offset: 0x5A59C, size: 0x8, addend: 0x0, symName: __ZNSt3__111__wrap_iterIPN8nlohmann16json_abi_v3_11_210basic_jsonINS_3mapENS_6vectorENS_12basic_stringIcNS_11char_traitsIcEENS_9allocatorIcEEEEbxydS9_NS2_14adl_serializerENS5_IhNS9_IhEEEEEEEC2B7v160006EPKvSG_, symObjAddr: 0x225D0, symBinAddr: 0x1000260CC, symSize: 0x24 }
  - { offsetInCU: 0x5A5E2, offset: 0x5A5E2, size: 0x8, addend: 0x0, symName: __ZNSt3__120back_insert_iteratorINS_6vectorIN8nlohmann16json_abi_v3_11_210basic_jsonINS_3mapES1_NS_12basic_stringIcNS_11char_traitsIcEENS_9allocatorIcEEEEbxydS9_NS3_14adl_serializerENS1_IhNS9_IhEEEEEENS9_ISF_EEEEEC1B7v160006ERSH_, symObjAddr: 0x225F4, symBinAddr: 0x1000260F0, symSize: 0x34 }
  - { offsetInCU: 0x5A61A, offset: 0x5A61A, size: 0x8, addend: 0x0, symName: __ZNSt3__120back_insert_iteratorINS_6vectorIN8nlohmann16json_abi_v3_11_210basic_jsonINS_3mapES1_NS_12basic_stringIcNS_11char_traitsIcEENS_9allocatorIcEEEEbxydS9_NS3_14adl_serializerENS1_IhNS9_IhEEEEEENS9_ISF_EEEEEC2B7v160006ERSH_, symObjAddr: 0x22628, symBinAddr: 0x100026124, symSize: 0x20 }
  - { offsetInCU: 0x5A652, offset: 0x5A652, size: 0x8, addend: 0x0, symName: __ZNKSt3__16__treeINS_12__value_typeINS_12basic_stringIcNS_11char_traitsIcEENS_9allocatorIcEEEEN8nlohmann16json_abi_v3_11_210basic_jsonINS_3mapENS_6vectorES7_bxydS5_NS9_14adl_serializerENSC_IhNS5_IhEEEEEEEENS_19__map_value_compareIS7_SH_NS_4lessIvEELb1EEENS5_ISH_EEE4sizeB7v160006Ev, symObjAddr: 0x22648, symBinAddr: 0x100026144, symSize: 0x28 }
  - { offsetInCU: 0x5A678, offset: 0x5A678, size: 0x8, addend: 0x0, symName: __ZNKSt3__117__compressed_pairImNS_19__map_value_compareINS_12basic_stringIcNS_11char_traitsIcEENS_9allocatorIcEEEENS_12__value_typeIS7_N8nlohmann16json_abi_v3_11_210basic_jsonINS_3mapENS_6vectorES7_bxydS5_NSA_14adl_serializerENSD_IhNS5_IhEEEEEEEENS_4lessIvEELb1EEEE5firstB7v160006Ev, symObjAddr: 0x22670, symBinAddr: 0x10002616C, symSize: 0x24 }
  - { offsetInCU: 0x5A69E, offset: 0x5A69E, size: 0x8, addend: 0x0, symName: __ZNKSt3__122__compressed_pair_elemImLi0ELb0EE5__getB7v160006Ev, symObjAddr: 0x22694, symBinAddr: 0x100026190, symSize: 0x14 }
  - { offsetInCU: 0x5A6C4, offset: 0x5A6C4, size: 0x8, addend: 0x0, symName: __ZNSt3__16__treeINS_12__value_typeINS_12basic_stringIcNS_11char_traitsIcEENS_9allocatorIcEEEEN8nlohmann16json_abi_v3_11_210basic_jsonINS_3mapENS_6vectorES7_bxydS5_NS9_14adl_serializerENSC_IhNS5_IhEEEEEEEENS_19__map_value_compareIS7_SH_NS_4lessIvEELb1EEENS5_ISH_EEE5beginB7v160006Ev, symObjAddr: 0x226A8, symBinAddr: 0x1000261A4, symSize: 0x34 }
